ARM GAS  C:\Users\PgRick\AppData\Local\Temp\ccFebq6t.s 			page 1


   1              		.cpu cortex-m7
   2              		.arch armv7e-m
   3              		.fpu fpv5-d16
   4              		.eabi_attribute 28, 1
   5              		.eabi_attribute 20, 1
   6              		.eabi_attribute 21, 1
   7              		.eabi_attribute 23, 3
   8              		.eabi_attribute 24, 1
   9              		.eabi_attribute 25, 1
  10              		.eabi_attribute 26, 1
  11              		.eabi_attribute 30, 1
  12              		.eabi_attribute 34, 1
  13              		.eabi_attribute 18, 4
  14              		.file	"stm32h7xx_ll_usb.c"
  15              		.text
  16              	.Ltext0:
  17              		.cfi_sections	.debug_frame
  18              		.section	.text.USB_CoreReset,"ax",%progbits
  19              		.align	1
  20              		.syntax unified
  21              		.thumb
  22              		.thumb_func
  24              	USB_CoreReset:
  25              	.LVL0:
  26              	.LFB178:
  27              		.file 1 "Drivers/STM32H7xx_HAL_Driver/Src/stm32h7xx_ll_usb.c"
   1:Drivers/STM32H7xx_HAL_Driver/Src/stm32h7xx_ll_usb.c **** /**
   2:Drivers/STM32H7xx_HAL_Driver/Src/stm32h7xx_ll_usb.c ****   ******************************************************************************
   3:Drivers/STM32H7xx_HAL_Driver/Src/stm32h7xx_ll_usb.c ****   * @file    stm32h7xx_ll_usb.c
   4:Drivers/STM32H7xx_HAL_Driver/Src/stm32h7xx_ll_usb.c ****   * @author  MCD Application Team
   5:Drivers/STM32H7xx_HAL_Driver/Src/stm32h7xx_ll_usb.c ****   * @brief   USB Low Layer HAL module driver.
   6:Drivers/STM32H7xx_HAL_Driver/Src/stm32h7xx_ll_usb.c ****   *
   7:Drivers/STM32H7xx_HAL_Driver/Src/stm32h7xx_ll_usb.c ****   *          This file provides firmware functions to manage the following
   8:Drivers/STM32H7xx_HAL_Driver/Src/stm32h7xx_ll_usb.c ****   *          functionalities of the USB Peripheral Controller:
   9:Drivers/STM32H7xx_HAL_Driver/Src/stm32h7xx_ll_usb.c ****   *           + Initialization/de-initialization functions
  10:Drivers/STM32H7xx_HAL_Driver/Src/stm32h7xx_ll_usb.c ****   *           + I/O operation functions
  11:Drivers/STM32H7xx_HAL_Driver/Src/stm32h7xx_ll_usb.c ****   *           + Peripheral Control functions
  12:Drivers/STM32H7xx_HAL_Driver/Src/stm32h7xx_ll_usb.c ****   *           + Peripheral State functions
  13:Drivers/STM32H7xx_HAL_Driver/Src/stm32h7xx_ll_usb.c ****   *
  14:Drivers/STM32H7xx_HAL_Driver/Src/stm32h7xx_ll_usb.c ****   ******************************************************************************
  15:Drivers/STM32H7xx_HAL_Driver/Src/stm32h7xx_ll_usb.c ****   * @attention
  16:Drivers/STM32H7xx_HAL_Driver/Src/stm32h7xx_ll_usb.c ****   *
  17:Drivers/STM32H7xx_HAL_Driver/Src/stm32h7xx_ll_usb.c ****   * Copyright (c) 2017 STMicroelectronics.
  18:Drivers/STM32H7xx_HAL_Driver/Src/stm32h7xx_ll_usb.c ****   * All rights reserved.
  19:Drivers/STM32H7xx_HAL_Driver/Src/stm32h7xx_ll_usb.c ****   *
  20:Drivers/STM32H7xx_HAL_Driver/Src/stm32h7xx_ll_usb.c ****   * This software is licensed under terms that can be found in the LICENSE file
  21:Drivers/STM32H7xx_HAL_Driver/Src/stm32h7xx_ll_usb.c ****   * in the root directory of this software component.
  22:Drivers/STM32H7xx_HAL_Driver/Src/stm32h7xx_ll_usb.c ****   * If no LICENSE file comes with this software, it is provided AS-IS.
  23:Drivers/STM32H7xx_HAL_Driver/Src/stm32h7xx_ll_usb.c ****   *
  24:Drivers/STM32H7xx_HAL_Driver/Src/stm32h7xx_ll_usb.c ****   ******************************************************************************
  25:Drivers/STM32H7xx_HAL_Driver/Src/stm32h7xx_ll_usb.c ****   @verbatim
  26:Drivers/STM32H7xx_HAL_Driver/Src/stm32h7xx_ll_usb.c ****   ==============================================================================
  27:Drivers/STM32H7xx_HAL_Driver/Src/stm32h7xx_ll_usb.c ****                     ##### How to use this driver #####
  28:Drivers/STM32H7xx_HAL_Driver/Src/stm32h7xx_ll_usb.c ****   ==============================================================================
  29:Drivers/STM32H7xx_HAL_Driver/Src/stm32h7xx_ll_usb.c ****     [..]
  30:Drivers/STM32H7xx_HAL_Driver/Src/stm32h7xx_ll_usb.c ****       (#) Fill parameters of Init structure in USB_CfgTypeDef structure.
  31:Drivers/STM32H7xx_HAL_Driver/Src/stm32h7xx_ll_usb.c **** 
ARM GAS  C:\Users\PgRick\AppData\Local\Temp\ccFebq6t.s 			page 2


  32:Drivers/STM32H7xx_HAL_Driver/Src/stm32h7xx_ll_usb.c ****       (#) Call USB_CoreInit() API to initialize the USB Core peripheral.
  33:Drivers/STM32H7xx_HAL_Driver/Src/stm32h7xx_ll_usb.c **** 
  34:Drivers/STM32H7xx_HAL_Driver/Src/stm32h7xx_ll_usb.c ****       (#) The upper HAL HCD/PCD driver will call the right routines for its internal processes.
  35:Drivers/STM32H7xx_HAL_Driver/Src/stm32h7xx_ll_usb.c **** 
  36:Drivers/STM32H7xx_HAL_Driver/Src/stm32h7xx_ll_usb.c ****   @endverbatim
  37:Drivers/STM32H7xx_HAL_Driver/Src/stm32h7xx_ll_usb.c **** 
  38:Drivers/STM32H7xx_HAL_Driver/Src/stm32h7xx_ll_usb.c ****   ******************************************************************************
  39:Drivers/STM32H7xx_HAL_Driver/Src/stm32h7xx_ll_usb.c ****   */
  40:Drivers/STM32H7xx_HAL_Driver/Src/stm32h7xx_ll_usb.c **** 
  41:Drivers/STM32H7xx_HAL_Driver/Src/stm32h7xx_ll_usb.c **** /* Includes ------------------------------------------------------------------*/
  42:Drivers/STM32H7xx_HAL_Driver/Src/stm32h7xx_ll_usb.c **** #include "stm32h7xx_hal.h"
  43:Drivers/STM32H7xx_HAL_Driver/Src/stm32h7xx_ll_usb.c **** 
  44:Drivers/STM32H7xx_HAL_Driver/Src/stm32h7xx_ll_usb.c **** /** @addtogroup STM32H7xx_LL_USB_DRIVER
  45:Drivers/STM32H7xx_HAL_Driver/Src/stm32h7xx_ll_usb.c ****   * @{
  46:Drivers/STM32H7xx_HAL_Driver/Src/stm32h7xx_ll_usb.c ****   */
  47:Drivers/STM32H7xx_HAL_Driver/Src/stm32h7xx_ll_usb.c **** 
  48:Drivers/STM32H7xx_HAL_Driver/Src/stm32h7xx_ll_usb.c **** #if defined (HAL_PCD_MODULE_ENABLED) || defined (HAL_HCD_MODULE_ENABLED)
  49:Drivers/STM32H7xx_HAL_Driver/Src/stm32h7xx_ll_usb.c **** #if defined (USB_OTG_FS) || defined (USB_OTG_HS)
  50:Drivers/STM32H7xx_HAL_Driver/Src/stm32h7xx_ll_usb.c **** /* Private typedef -----------------------------------------------------------*/
  51:Drivers/STM32H7xx_HAL_Driver/Src/stm32h7xx_ll_usb.c **** /* Private define ------------------------------------------------------------*/
  52:Drivers/STM32H7xx_HAL_Driver/Src/stm32h7xx_ll_usb.c **** /* Private macro -------------------------------------------------------------*/
  53:Drivers/STM32H7xx_HAL_Driver/Src/stm32h7xx_ll_usb.c **** /* Private variables ---------------------------------------------------------*/
  54:Drivers/STM32H7xx_HAL_Driver/Src/stm32h7xx_ll_usb.c **** /* Private function prototypes -----------------------------------------------*/
  55:Drivers/STM32H7xx_HAL_Driver/Src/stm32h7xx_ll_usb.c **** /* Private functions ---------------------------------------------------------*/
  56:Drivers/STM32H7xx_HAL_Driver/Src/stm32h7xx_ll_usb.c **** #if defined (USB_OTG_FS) || defined (USB_OTG_HS)
  57:Drivers/STM32H7xx_HAL_Driver/Src/stm32h7xx_ll_usb.c **** static HAL_StatusTypeDef USB_CoreReset(USB_OTG_GlobalTypeDef *USBx);
  58:Drivers/STM32H7xx_HAL_Driver/Src/stm32h7xx_ll_usb.c **** 
  59:Drivers/STM32H7xx_HAL_Driver/Src/stm32h7xx_ll_usb.c **** /* Exported functions --------------------------------------------------------*/
  60:Drivers/STM32H7xx_HAL_Driver/Src/stm32h7xx_ll_usb.c **** /** @defgroup USB_LL_Exported_Functions USB Low Layer Exported Functions
  61:Drivers/STM32H7xx_HAL_Driver/Src/stm32h7xx_ll_usb.c ****   * @{
  62:Drivers/STM32H7xx_HAL_Driver/Src/stm32h7xx_ll_usb.c ****   */
  63:Drivers/STM32H7xx_HAL_Driver/Src/stm32h7xx_ll_usb.c **** 
  64:Drivers/STM32H7xx_HAL_Driver/Src/stm32h7xx_ll_usb.c **** /** @defgroup USB_LL_Exported_Functions_Group1 Initialization/de-initialization functions
  65:Drivers/STM32H7xx_HAL_Driver/Src/stm32h7xx_ll_usb.c ****   *  @brief    Initialization and Configuration functions
  66:Drivers/STM32H7xx_HAL_Driver/Src/stm32h7xx_ll_usb.c ****   *
  67:Drivers/STM32H7xx_HAL_Driver/Src/stm32h7xx_ll_usb.c **** @verbatim
  68:Drivers/STM32H7xx_HAL_Driver/Src/stm32h7xx_ll_usb.c ****  ===============================================================================
  69:Drivers/STM32H7xx_HAL_Driver/Src/stm32h7xx_ll_usb.c ****                       ##### Initialization/de-initialization functions #####
  70:Drivers/STM32H7xx_HAL_Driver/Src/stm32h7xx_ll_usb.c ****  ===============================================================================
  71:Drivers/STM32H7xx_HAL_Driver/Src/stm32h7xx_ll_usb.c **** 
  72:Drivers/STM32H7xx_HAL_Driver/Src/stm32h7xx_ll_usb.c **** @endverbatim
  73:Drivers/STM32H7xx_HAL_Driver/Src/stm32h7xx_ll_usb.c ****   * @{
  74:Drivers/STM32H7xx_HAL_Driver/Src/stm32h7xx_ll_usb.c ****   */
  75:Drivers/STM32H7xx_HAL_Driver/Src/stm32h7xx_ll_usb.c **** 
  76:Drivers/STM32H7xx_HAL_Driver/Src/stm32h7xx_ll_usb.c **** /**
  77:Drivers/STM32H7xx_HAL_Driver/Src/stm32h7xx_ll_usb.c ****   * @brief  Initializes the USB Core
  78:Drivers/STM32H7xx_HAL_Driver/Src/stm32h7xx_ll_usb.c ****   * @param  USBx USB Instance
  79:Drivers/STM32H7xx_HAL_Driver/Src/stm32h7xx_ll_usb.c ****   * @param  cfg pointer to a USB_OTG_CfgTypeDef structure that contains
  80:Drivers/STM32H7xx_HAL_Driver/Src/stm32h7xx_ll_usb.c ****   *         the configuration information for the specified USBx peripheral.
  81:Drivers/STM32H7xx_HAL_Driver/Src/stm32h7xx_ll_usb.c ****   * @retval HAL status
  82:Drivers/STM32H7xx_HAL_Driver/Src/stm32h7xx_ll_usb.c ****   */
  83:Drivers/STM32H7xx_HAL_Driver/Src/stm32h7xx_ll_usb.c **** HAL_StatusTypeDef USB_CoreInit(USB_OTG_GlobalTypeDef *USBx, USB_OTG_CfgTypeDef cfg)
  84:Drivers/STM32H7xx_HAL_Driver/Src/stm32h7xx_ll_usb.c **** {
  85:Drivers/STM32H7xx_HAL_Driver/Src/stm32h7xx_ll_usb.c ****   HAL_StatusTypeDef ret;
  86:Drivers/STM32H7xx_HAL_Driver/Src/stm32h7xx_ll_usb.c ****   if (cfg.phy_itface == USB_OTG_ULPI_PHY)
  87:Drivers/STM32H7xx_HAL_Driver/Src/stm32h7xx_ll_usb.c ****   {
  88:Drivers/STM32H7xx_HAL_Driver/Src/stm32h7xx_ll_usb.c ****     USBx->GCCFG &= ~(USB_OTG_GCCFG_PWRDWN);
ARM GAS  C:\Users\PgRick\AppData\Local\Temp\ccFebq6t.s 			page 3


  89:Drivers/STM32H7xx_HAL_Driver/Src/stm32h7xx_ll_usb.c **** 
  90:Drivers/STM32H7xx_HAL_Driver/Src/stm32h7xx_ll_usb.c ****     /* Init The ULPI Interface */
  91:Drivers/STM32H7xx_HAL_Driver/Src/stm32h7xx_ll_usb.c ****     USBx->GUSBCFG &= ~(USB_OTG_GUSBCFG_TSDPS | USB_OTG_GUSBCFG_ULPIFSLS | USB_OTG_GUSBCFG_PHYSEL);
  92:Drivers/STM32H7xx_HAL_Driver/Src/stm32h7xx_ll_usb.c **** 
  93:Drivers/STM32H7xx_HAL_Driver/Src/stm32h7xx_ll_usb.c ****     /* Select vbus source */
  94:Drivers/STM32H7xx_HAL_Driver/Src/stm32h7xx_ll_usb.c ****     USBx->GUSBCFG &= ~(USB_OTG_GUSBCFG_ULPIEVBUSD | USB_OTG_GUSBCFG_ULPIEVBUSI);
  95:Drivers/STM32H7xx_HAL_Driver/Src/stm32h7xx_ll_usb.c ****     if (cfg.use_external_vbus == 1U)
  96:Drivers/STM32H7xx_HAL_Driver/Src/stm32h7xx_ll_usb.c ****     {
  97:Drivers/STM32H7xx_HAL_Driver/Src/stm32h7xx_ll_usb.c ****       USBx->GUSBCFG |= USB_OTG_GUSBCFG_ULPIEVBUSD;
  98:Drivers/STM32H7xx_HAL_Driver/Src/stm32h7xx_ll_usb.c ****     }
  99:Drivers/STM32H7xx_HAL_Driver/Src/stm32h7xx_ll_usb.c **** 
 100:Drivers/STM32H7xx_HAL_Driver/Src/stm32h7xx_ll_usb.c ****     /* Reset after a PHY select */
 101:Drivers/STM32H7xx_HAL_Driver/Src/stm32h7xx_ll_usb.c ****     ret = USB_CoreReset(USBx);
 102:Drivers/STM32H7xx_HAL_Driver/Src/stm32h7xx_ll_usb.c ****   }
 103:Drivers/STM32H7xx_HAL_Driver/Src/stm32h7xx_ll_usb.c ****   else /* FS interface (embedded Phy) */
 104:Drivers/STM32H7xx_HAL_Driver/Src/stm32h7xx_ll_usb.c ****   {
 105:Drivers/STM32H7xx_HAL_Driver/Src/stm32h7xx_ll_usb.c ****     /* Select FS Embedded PHY */
 106:Drivers/STM32H7xx_HAL_Driver/Src/stm32h7xx_ll_usb.c ****     USBx->GUSBCFG |= USB_OTG_GUSBCFG_PHYSEL;
 107:Drivers/STM32H7xx_HAL_Driver/Src/stm32h7xx_ll_usb.c **** 
 108:Drivers/STM32H7xx_HAL_Driver/Src/stm32h7xx_ll_usb.c ****     /* Reset after a PHY select */
 109:Drivers/STM32H7xx_HAL_Driver/Src/stm32h7xx_ll_usb.c ****     ret = USB_CoreReset(USBx);
 110:Drivers/STM32H7xx_HAL_Driver/Src/stm32h7xx_ll_usb.c **** 
 111:Drivers/STM32H7xx_HAL_Driver/Src/stm32h7xx_ll_usb.c ****     if (cfg.battery_charging_enable == 0U)
 112:Drivers/STM32H7xx_HAL_Driver/Src/stm32h7xx_ll_usb.c ****     {
 113:Drivers/STM32H7xx_HAL_Driver/Src/stm32h7xx_ll_usb.c ****       /* Activate the USB Transceiver */
 114:Drivers/STM32H7xx_HAL_Driver/Src/stm32h7xx_ll_usb.c ****       USBx->GCCFG |= USB_OTG_GCCFG_PWRDWN;
 115:Drivers/STM32H7xx_HAL_Driver/Src/stm32h7xx_ll_usb.c ****     }
 116:Drivers/STM32H7xx_HAL_Driver/Src/stm32h7xx_ll_usb.c ****     else
 117:Drivers/STM32H7xx_HAL_Driver/Src/stm32h7xx_ll_usb.c ****     {
 118:Drivers/STM32H7xx_HAL_Driver/Src/stm32h7xx_ll_usb.c ****       /* Deactivate the USB Transceiver */
 119:Drivers/STM32H7xx_HAL_Driver/Src/stm32h7xx_ll_usb.c ****       USBx->GCCFG &= ~(USB_OTG_GCCFG_PWRDWN);
 120:Drivers/STM32H7xx_HAL_Driver/Src/stm32h7xx_ll_usb.c ****     }
 121:Drivers/STM32H7xx_HAL_Driver/Src/stm32h7xx_ll_usb.c ****   }
 122:Drivers/STM32H7xx_HAL_Driver/Src/stm32h7xx_ll_usb.c **** 
 123:Drivers/STM32H7xx_HAL_Driver/Src/stm32h7xx_ll_usb.c ****   if (cfg.dma_enable == 1U)
 124:Drivers/STM32H7xx_HAL_Driver/Src/stm32h7xx_ll_usb.c ****   {
 125:Drivers/STM32H7xx_HAL_Driver/Src/stm32h7xx_ll_usb.c ****     /* make sure to reserve 18 fifo Locations for DMA buffers */
 126:Drivers/STM32H7xx_HAL_Driver/Src/stm32h7xx_ll_usb.c ****     USBx->GDFIFOCFG &= ~(0xFFFFU << 16);
 127:Drivers/STM32H7xx_HAL_Driver/Src/stm32h7xx_ll_usb.c ****     USBx->GDFIFOCFG |= 0x3EEU << 16;
 128:Drivers/STM32H7xx_HAL_Driver/Src/stm32h7xx_ll_usb.c **** 
 129:Drivers/STM32H7xx_HAL_Driver/Src/stm32h7xx_ll_usb.c ****     USBx->GAHBCFG |= USB_OTG_GAHBCFG_HBSTLEN_2;
 130:Drivers/STM32H7xx_HAL_Driver/Src/stm32h7xx_ll_usb.c ****     USBx->GAHBCFG |= USB_OTG_GAHBCFG_DMAEN;
 131:Drivers/STM32H7xx_HAL_Driver/Src/stm32h7xx_ll_usb.c ****   }
 132:Drivers/STM32H7xx_HAL_Driver/Src/stm32h7xx_ll_usb.c **** 
 133:Drivers/STM32H7xx_HAL_Driver/Src/stm32h7xx_ll_usb.c ****   return ret;
 134:Drivers/STM32H7xx_HAL_Driver/Src/stm32h7xx_ll_usb.c **** }
 135:Drivers/STM32H7xx_HAL_Driver/Src/stm32h7xx_ll_usb.c **** 
 136:Drivers/STM32H7xx_HAL_Driver/Src/stm32h7xx_ll_usb.c **** 
 137:Drivers/STM32H7xx_HAL_Driver/Src/stm32h7xx_ll_usb.c **** /**
 138:Drivers/STM32H7xx_HAL_Driver/Src/stm32h7xx_ll_usb.c ****   * @brief  Set the USB turnaround time
 139:Drivers/STM32H7xx_HAL_Driver/Src/stm32h7xx_ll_usb.c ****   * @param  USBx USB Instance
 140:Drivers/STM32H7xx_HAL_Driver/Src/stm32h7xx_ll_usb.c ****   * @param  hclk: AHB clock frequency
 141:Drivers/STM32H7xx_HAL_Driver/Src/stm32h7xx_ll_usb.c ****   * @retval USB turnaround time In PHY Clocks number
 142:Drivers/STM32H7xx_HAL_Driver/Src/stm32h7xx_ll_usb.c ****   */
 143:Drivers/STM32H7xx_HAL_Driver/Src/stm32h7xx_ll_usb.c **** HAL_StatusTypeDef USB_SetTurnaroundTime(USB_OTG_GlobalTypeDef *USBx,
 144:Drivers/STM32H7xx_HAL_Driver/Src/stm32h7xx_ll_usb.c ****                                         uint32_t hclk, uint8_t speed)
 145:Drivers/STM32H7xx_HAL_Driver/Src/stm32h7xx_ll_usb.c **** {
ARM GAS  C:\Users\PgRick\AppData\Local\Temp\ccFebq6t.s 			page 4


 146:Drivers/STM32H7xx_HAL_Driver/Src/stm32h7xx_ll_usb.c ****   uint32_t UsbTrd;
 147:Drivers/STM32H7xx_HAL_Driver/Src/stm32h7xx_ll_usb.c **** 
 148:Drivers/STM32H7xx_HAL_Driver/Src/stm32h7xx_ll_usb.c ****   /* The USBTRD is configured according to the tables below, depending on AHB frequency
 149:Drivers/STM32H7xx_HAL_Driver/Src/stm32h7xx_ll_usb.c ****   used by application. In the low AHB frequency range it is used to stretch enough the USB response
 150:Drivers/STM32H7xx_HAL_Driver/Src/stm32h7xx_ll_usb.c ****   time to IN tokens, the USB turnaround time, so to compensate for the longer AHB read access
 151:Drivers/STM32H7xx_HAL_Driver/Src/stm32h7xx_ll_usb.c ****   latency to the Data FIFO */
 152:Drivers/STM32H7xx_HAL_Driver/Src/stm32h7xx_ll_usb.c ****   if (speed == USBD_FS_SPEED)
 153:Drivers/STM32H7xx_HAL_Driver/Src/stm32h7xx_ll_usb.c ****   {
 154:Drivers/STM32H7xx_HAL_Driver/Src/stm32h7xx_ll_usb.c ****     if ((hclk >= 14200000U) && (hclk < 15000000U))
 155:Drivers/STM32H7xx_HAL_Driver/Src/stm32h7xx_ll_usb.c ****     {
 156:Drivers/STM32H7xx_HAL_Driver/Src/stm32h7xx_ll_usb.c ****       /* hclk Clock Range between 14.2-15 MHz */
 157:Drivers/STM32H7xx_HAL_Driver/Src/stm32h7xx_ll_usb.c ****       UsbTrd = 0xFU;
 158:Drivers/STM32H7xx_HAL_Driver/Src/stm32h7xx_ll_usb.c ****     }
 159:Drivers/STM32H7xx_HAL_Driver/Src/stm32h7xx_ll_usb.c ****     else if ((hclk >= 15000000U) && (hclk < 16000000U))
 160:Drivers/STM32H7xx_HAL_Driver/Src/stm32h7xx_ll_usb.c ****     {
 161:Drivers/STM32H7xx_HAL_Driver/Src/stm32h7xx_ll_usb.c ****       /* hclk Clock Range between 15-16 MHz */
 162:Drivers/STM32H7xx_HAL_Driver/Src/stm32h7xx_ll_usb.c ****       UsbTrd = 0xEU;
 163:Drivers/STM32H7xx_HAL_Driver/Src/stm32h7xx_ll_usb.c ****     }
 164:Drivers/STM32H7xx_HAL_Driver/Src/stm32h7xx_ll_usb.c ****     else if ((hclk >= 16000000U) && (hclk < 17200000U))
 165:Drivers/STM32H7xx_HAL_Driver/Src/stm32h7xx_ll_usb.c ****     {
 166:Drivers/STM32H7xx_HAL_Driver/Src/stm32h7xx_ll_usb.c ****       /* hclk Clock Range between 16-17.2 MHz */
 167:Drivers/STM32H7xx_HAL_Driver/Src/stm32h7xx_ll_usb.c ****       UsbTrd = 0xDU;
 168:Drivers/STM32H7xx_HAL_Driver/Src/stm32h7xx_ll_usb.c ****     }
 169:Drivers/STM32H7xx_HAL_Driver/Src/stm32h7xx_ll_usb.c ****     else if ((hclk >= 17200000U) && (hclk < 18500000U))
 170:Drivers/STM32H7xx_HAL_Driver/Src/stm32h7xx_ll_usb.c ****     {
 171:Drivers/STM32H7xx_HAL_Driver/Src/stm32h7xx_ll_usb.c ****       /* hclk Clock Range between 17.2-18.5 MHz */
 172:Drivers/STM32H7xx_HAL_Driver/Src/stm32h7xx_ll_usb.c ****       UsbTrd = 0xCU;
 173:Drivers/STM32H7xx_HAL_Driver/Src/stm32h7xx_ll_usb.c ****     }
 174:Drivers/STM32H7xx_HAL_Driver/Src/stm32h7xx_ll_usb.c ****     else if ((hclk >= 18500000U) && (hclk < 20000000U))
 175:Drivers/STM32H7xx_HAL_Driver/Src/stm32h7xx_ll_usb.c ****     {
 176:Drivers/STM32H7xx_HAL_Driver/Src/stm32h7xx_ll_usb.c ****       /* hclk Clock Range between 18.5-20 MHz */
 177:Drivers/STM32H7xx_HAL_Driver/Src/stm32h7xx_ll_usb.c ****       UsbTrd = 0xBU;
 178:Drivers/STM32H7xx_HAL_Driver/Src/stm32h7xx_ll_usb.c ****     }
 179:Drivers/STM32H7xx_HAL_Driver/Src/stm32h7xx_ll_usb.c ****     else if ((hclk >= 20000000U) && (hclk < 21800000U))
 180:Drivers/STM32H7xx_HAL_Driver/Src/stm32h7xx_ll_usb.c ****     {
 181:Drivers/STM32H7xx_HAL_Driver/Src/stm32h7xx_ll_usb.c ****       /* hclk Clock Range between 20-21.8 MHz */
 182:Drivers/STM32H7xx_HAL_Driver/Src/stm32h7xx_ll_usb.c ****       UsbTrd = 0xAU;
 183:Drivers/STM32H7xx_HAL_Driver/Src/stm32h7xx_ll_usb.c ****     }
 184:Drivers/STM32H7xx_HAL_Driver/Src/stm32h7xx_ll_usb.c ****     else if ((hclk >= 21800000U) && (hclk < 24000000U))
 185:Drivers/STM32H7xx_HAL_Driver/Src/stm32h7xx_ll_usb.c ****     {
 186:Drivers/STM32H7xx_HAL_Driver/Src/stm32h7xx_ll_usb.c ****       /* hclk Clock Range between 21.8-24 MHz */
 187:Drivers/STM32H7xx_HAL_Driver/Src/stm32h7xx_ll_usb.c ****       UsbTrd = 0x9U;
 188:Drivers/STM32H7xx_HAL_Driver/Src/stm32h7xx_ll_usb.c ****     }
 189:Drivers/STM32H7xx_HAL_Driver/Src/stm32h7xx_ll_usb.c ****     else if ((hclk >= 24000000U) && (hclk < 27700000U))
 190:Drivers/STM32H7xx_HAL_Driver/Src/stm32h7xx_ll_usb.c ****     {
 191:Drivers/STM32H7xx_HAL_Driver/Src/stm32h7xx_ll_usb.c ****       /* hclk Clock Range between 24-27.7 MHz */
 192:Drivers/STM32H7xx_HAL_Driver/Src/stm32h7xx_ll_usb.c ****       UsbTrd = 0x8U;
 193:Drivers/STM32H7xx_HAL_Driver/Src/stm32h7xx_ll_usb.c ****     }
 194:Drivers/STM32H7xx_HAL_Driver/Src/stm32h7xx_ll_usb.c ****     else if ((hclk >= 27700000U) && (hclk < 32000000U))
 195:Drivers/STM32H7xx_HAL_Driver/Src/stm32h7xx_ll_usb.c ****     {
 196:Drivers/STM32H7xx_HAL_Driver/Src/stm32h7xx_ll_usb.c ****       /* hclk Clock Range between 27.7-32 MHz */
 197:Drivers/STM32H7xx_HAL_Driver/Src/stm32h7xx_ll_usb.c ****       UsbTrd = 0x7U;
 198:Drivers/STM32H7xx_HAL_Driver/Src/stm32h7xx_ll_usb.c ****     }
 199:Drivers/STM32H7xx_HAL_Driver/Src/stm32h7xx_ll_usb.c ****     else /* if(hclk >= 32000000) */
 200:Drivers/STM32H7xx_HAL_Driver/Src/stm32h7xx_ll_usb.c ****     {
 201:Drivers/STM32H7xx_HAL_Driver/Src/stm32h7xx_ll_usb.c ****       /* hclk Clock Range between 32-200 MHz */
 202:Drivers/STM32H7xx_HAL_Driver/Src/stm32h7xx_ll_usb.c ****       UsbTrd = 0x6U;
ARM GAS  C:\Users\PgRick\AppData\Local\Temp\ccFebq6t.s 			page 5


 203:Drivers/STM32H7xx_HAL_Driver/Src/stm32h7xx_ll_usb.c ****     }
 204:Drivers/STM32H7xx_HAL_Driver/Src/stm32h7xx_ll_usb.c ****   }
 205:Drivers/STM32H7xx_HAL_Driver/Src/stm32h7xx_ll_usb.c ****   else if (speed == USBD_HS_SPEED)
 206:Drivers/STM32H7xx_HAL_Driver/Src/stm32h7xx_ll_usb.c ****   {
 207:Drivers/STM32H7xx_HAL_Driver/Src/stm32h7xx_ll_usb.c ****     UsbTrd = USBD_HS_TRDT_VALUE;
 208:Drivers/STM32H7xx_HAL_Driver/Src/stm32h7xx_ll_usb.c ****   }
 209:Drivers/STM32H7xx_HAL_Driver/Src/stm32h7xx_ll_usb.c ****   else
 210:Drivers/STM32H7xx_HAL_Driver/Src/stm32h7xx_ll_usb.c ****   {
 211:Drivers/STM32H7xx_HAL_Driver/Src/stm32h7xx_ll_usb.c ****     UsbTrd = USBD_DEFAULT_TRDT_VALUE;
 212:Drivers/STM32H7xx_HAL_Driver/Src/stm32h7xx_ll_usb.c ****   }
 213:Drivers/STM32H7xx_HAL_Driver/Src/stm32h7xx_ll_usb.c **** 
 214:Drivers/STM32H7xx_HAL_Driver/Src/stm32h7xx_ll_usb.c ****   USBx->GUSBCFG &= ~USB_OTG_GUSBCFG_TRDT;
 215:Drivers/STM32H7xx_HAL_Driver/Src/stm32h7xx_ll_usb.c ****   USBx->GUSBCFG |= (uint32_t)((UsbTrd << 10) & USB_OTG_GUSBCFG_TRDT);
 216:Drivers/STM32H7xx_HAL_Driver/Src/stm32h7xx_ll_usb.c **** 
 217:Drivers/STM32H7xx_HAL_Driver/Src/stm32h7xx_ll_usb.c ****   return HAL_OK;
 218:Drivers/STM32H7xx_HAL_Driver/Src/stm32h7xx_ll_usb.c **** }
 219:Drivers/STM32H7xx_HAL_Driver/Src/stm32h7xx_ll_usb.c **** 
 220:Drivers/STM32H7xx_HAL_Driver/Src/stm32h7xx_ll_usb.c **** /**
 221:Drivers/STM32H7xx_HAL_Driver/Src/stm32h7xx_ll_usb.c ****   * @brief  USB_EnableGlobalInt
 222:Drivers/STM32H7xx_HAL_Driver/Src/stm32h7xx_ll_usb.c ****   *         Enables the controller's Global Int in the AHB Config reg
 223:Drivers/STM32H7xx_HAL_Driver/Src/stm32h7xx_ll_usb.c ****   * @param  USBx  Selected device
 224:Drivers/STM32H7xx_HAL_Driver/Src/stm32h7xx_ll_usb.c ****   * @retval HAL status
 225:Drivers/STM32H7xx_HAL_Driver/Src/stm32h7xx_ll_usb.c ****   */
 226:Drivers/STM32H7xx_HAL_Driver/Src/stm32h7xx_ll_usb.c **** HAL_StatusTypeDef USB_EnableGlobalInt(USB_OTG_GlobalTypeDef *USBx)
 227:Drivers/STM32H7xx_HAL_Driver/Src/stm32h7xx_ll_usb.c **** {
 228:Drivers/STM32H7xx_HAL_Driver/Src/stm32h7xx_ll_usb.c ****   USBx->GAHBCFG |= USB_OTG_GAHBCFG_GINT;
 229:Drivers/STM32H7xx_HAL_Driver/Src/stm32h7xx_ll_usb.c ****   return HAL_OK;
 230:Drivers/STM32H7xx_HAL_Driver/Src/stm32h7xx_ll_usb.c **** }
 231:Drivers/STM32H7xx_HAL_Driver/Src/stm32h7xx_ll_usb.c **** 
 232:Drivers/STM32H7xx_HAL_Driver/Src/stm32h7xx_ll_usb.c **** /**
 233:Drivers/STM32H7xx_HAL_Driver/Src/stm32h7xx_ll_usb.c ****   * @brief  USB_DisableGlobalInt
 234:Drivers/STM32H7xx_HAL_Driver/Src/stm32h7xx_ll_usb.c ****   *         Disable the controller's Global Int in the AHB Config reg
 235:Drivers/STM32H7xx_HAL_Driver/Src/stm32h7xx_ll_usb.c ****   * @param  USBx  Selected device
 236:Drivers/STM32H7xx_HAL_Driver/Src/stm32h7xx_ll_usb.c ****   * @retval HAL status
 237:Drivers/STM32H7xx_HAL_Driver/Src/stm32h7xx_ll_usb.c ****   */
 238:Drivers/STM32H7xx_HAL_Driver/Src/stm32h7xx_ll_usb.c **** HAL_StatusTypeDef USB_DisableGlobalInt(USB_OTG_GlobalTypeDef *USBx)
 239:Drivers/STM32H7xx_HAL_Driver/Src/stm32h7xx_ll_usb.c **** {
 240:Drivers/STM32H7xx_HAL_Driver/Src/stm32h7xx_ll_usb.c ****   USBx->GAHBCFG &= ~USB_OTG_GAHBCFG_GINT;
 241:Drivers/STM32H7xx_HAL_Driver/Src/stm32h7xx_ll_usb.c ****   return HAL_OK;
 242:Drivers/STM32H7xx_HAL_Driver/Src/stm32h7xx_ll_usb.c **** }
 243:Drivers/STM32H7xx_HAL_Driver/Src/stm32h7xx_ll_usb.c **** 
 244:Drivers/STM32H7xx_HAL_Driver/Src/stm32h7xx_ll_usb.c **** /**
 245:Drivers/STM32H7xx_HAL_Driver/Src/stm32h7xx_ll_usb.c ****   * @brief  USB_SetCurrentMode Set functional mode
 246:Drivers/STM32H7xx_HAL_Driver/Src/stm32h7xx_ll_usb.c ****   * @param  USBx  Selected device
 247:Drivers/STM32H7xx_HAL_Driver/Src/stm32h7xx_ll_usb.c ****   * @param  mode  current core mode
 248:Drivers/STM32H7xx_HAL_Driver/Src/stm32h7xx_ll_usb.c ****   *          This parameter can be one of these values:
 249:Drivers/STM32H7xx_HAL_Driver/Src/stm32h7xx_ll_usb.c ****   *            @arg USB_DEVICE_MODE Peripheral mode
 250:Drivers/STM32H7xx_HAL_Driver/Src/stm32h7xx_ll_usb.c ****   *            @arg USB_HOST_MODE Host mode
 251:Drivers/STM32H7xx_HAL_Driver/Src/stm32h7xx_ll_usb.c ****   * @retval HAL status
 252:Drivers/STM32H7xx_HAL_Driver/Src/stm32h7xx_ll_usb.c ****   */
 253:Drivers/STM32H7xx_HAL_Driver/Src/stm32h7xx_ll_usb.c **** HAL_StatusTypeDef USB_SetCurrentMode(USB_OTG_GlobalTypeDef *USBx, USB_OTG_ModeTypeDef mode)
 254:Drivers/STM32H7xx_HAL_Driver/Src/stm32h7xx_ll_usb.c **** {
 255:Drivers/STM32H7xx_HAL_Driver/Src/stm32h7xx_ll_usb.c ****   uint32_t ms = 0U;
 256:Drivers/STM32H7xx_HAL_Driver/Src/stm32h7xx_ll_usb.c **** 
 257:Drivers/STM32H7xx_HAL_Driver/Src/stm32h7xx_ll_usb.c ****   USBx->GUSBCFG &= ~(USB_OTG_GUSBCFG_FHMOD | USB_OTG_GUSBCFG_FDMOD);
 258:Drivers/STM32H7xx_HAL_Driver/Src/stm32h7xx_ll_usb.c **** 
 259:Drivers/STM32H7xx_HAL_Driver/Src/stm32h7xx_ll_usb.c ****   if (mode == USB_HOST_MODE)
ARM GAS  C:\Users\PgRick\AppData\Local\Temp\ccFebq6t.s 			page 6


 260:Drivers/STM32H7xx_HAL_Driver/Src/stm32h7xx_ll_usb.c ****   {
 261:Drivers/STM32H7xx_HAL_Driver/Src/stm32h7xx_ll_usb.c ****     USBx->GUSBCFG |= USB_OTG_GUSBCFG_FHMOD;
 262:Drivers/STM32H7xx_HAL_Driver/Src/stm32h7xx_ll_usb.c **** 
 263:Drivers/STM32H7xx_HAL_Driver/Src/stm32h7xx_ll_usb.c ****     do
 264:Drivers/STM32H7xx_HAL_Driver/Src/stm32h7xx_ll_usb.c ****     {
 265:Drivers/STM32H7xx_HAL_Driver/Src/stm32h7xx_ll_usb.c ****       HAL_Delay(10U);
 266:Drivers/STM32H7xx_HAL_Driver/Src/stm32h7xx_ll_usb.c ****       ms += 10U;
 267:Drivers/STM32H7xx_HAL_Driver/Src/stm32h7xx_ll_usb.c ****     } while ((USB_GetMode(USBx) != (uint32_t)USB_HOST_MODE) && (ms < HAL_USB_CURRENT_MODE_MAX_DELAY
 268:Drivers/STM32H7xx_HAL_Driver/Src/stm32h7xx_ll_usb.c ****   }
 269:Drivers/STM32H7xx_HAL_Driver/Src/stm32h7xx_ll_usb.c ****   else if (mode == USB_DEVICE_MODE)
 270:Drivers/STM32H7xx_HAL_Driver/Src/stm32h7xx_ll_usb.c ****   {
 271:Drivers/STM32H7xx_HAL_Driver/Src/stm32h7xx_ll_usb.c ****     USBx->GUSBCFG |= USB_OTG_GUSBCFG_FDMOD;
 272:Drivers/STM32H7xx_HAL_Driver/Src/stm32h7xx_ll_usb.c **** 
 273:Drivers/STM32H7xx_HAL_Driver/Src/stm32h7xx_ll_usb.c ****     do
 274:Drivers/STM32H7xx_HAL_Driver/Src/stm32h7xx_ll_usb.c ****     {
 275:Drivers/STM32H7xx_HAL_Driver/Src/stm32h7xx_ll_usb.c ****       HAL_Delay(10U);
 276:Drivers/STM32H7xx_HAL_Driver/Src/stm32h7xx_ll_usb.c ****       ms += 10U;
 277:Drivers/STM32H7xx_HAL_Driver/Src/stm32h7xx_ll_usb.c ****     } while ((USB_GetMode(USBx) != (uint32_t)USB_DEVICE_MODE) && (ms < HAL_USB_CURRENT_MODE_MAX_DEL
 278:Drivers/STM32H7xx_HAL_Driver/Src/stm32h7xx_ll_usb.c ****   }
 279:Drivers/STM32H7xx_HAL_Driver/Src/stm32h7xx_ll_usb.c ****   else
 280:Drivers/STM32H7xx_HAL_Driver/Src/stm32h7xx_ll_usb.c ****   {
 281:Drivers/STM32H7xx_HAL_Driver/Src/stm32h7xx_ll_usb.c ****     return HAL_ERROR;
 282:Drivers/STM32H7xx_HAL_Driver/Src/stm32h7xx_ll_usb.c ****   }
 283:Drivers/STM32H7xx_HAL_Driver/Src/stm32h7xx_ll_usb.c **** 
 284:Drivers/STM32H7xx_HAL_Driver/Src/stm32h7xx_ll_usb.c ****   if (ms == HAL_USB_CURRENT_MODE_MAX_DELAY_MS)
 285:Drivers/STM32H7xx_HAL_Driver/Src/stm32h7xx_ll_usb.c ****   {
 286:Drivers/STM32H7xx_HAL_Driver/Src/stm32h7xx_ll_usb.c ****     return HAL_ERROR;
 287:Drivers/STM32H7xx_HAL_Driver/Src/stm32h7xx_ll_usb.c ****   }
 288:Drivers/STM32H7xx_HAL_Driver/Src/stm32h7xx_ll_usb.c **** 
 289:Drivers/STM32H7xx_HAL_Driver/Src/stm32h7xx_ll_usb.c ****   return HAL_OK;
 290:Drivers/STM32H7xx_HAL_Driver/Src/stm32h7xx_ll_usb.c **** }
 291:Drivers/STM32H7xx_HAL_Driver/Src/stm32h7xx_ll_usb.c **** 
 292:Drivers/STM32H7xx_HAL_Driver/Src/stm32h7xx_ll_usb.c **** /**
 293:Drivers/STM32H7xx_HAL_Driver/Src/stm32h7xx_ll_usb.c ****   * @brief  USB_DevInit Initializes the USB_OTG controller registers
 294:Drivers/STM32H7xx_HAL_Driver/Src/stm32h7xx_ll_usb.c ****   *         for device mode
 295:Drivers/STM32H7xx_HAL_Driver/Src/stm32h7xx_ll_usb.c ****   * @param  USBx  Selected device
 296:Drivers/STM32H7xx_HAL_Driver/Src/stm32h7xx_ll_usb.c ****   * @param  cfg   pointer to a USB_OTG_CfgTypeDef structure that contains
 297:Drivers/STM32H7xx_HAL_Driver/Src/stm32h7xx_ll_usb.c ****   *         the configuration information for the specified USBx peripheral.
 298:Drivers/STM32H7xx_HAL_Driver/Src/stm32h7xx_ll_usb.c ****   * @retval HAL status
 299:Drivers/STM32H7xx_HAL_Driver/Src/stm32h7xx_ll_usb.c ****   */
 300:Drivers/STM32H7xx_HAL_Driver/Src/stm32h7xx_ll_usb.c **** HAL_StatusTypeDef USB_DevInit(USB_OTG_GlobalTypeDef *USBx, USB_OTG_CfgTypeDef cfg)
 301:Drivers/STM32H7xx_HAL_Driver/Src/stm32h7xx_ll_usb.c **** {
 302:Drivers/STM32H7xx_HAL_Driver/Src/stm32h7xx_ll_usb.c ****   HAL_StatusTypeDef ret = HAL_OK;
 303:Drivers/STM32H7xx_HAL_Driver/Src/stm32h7xx_ll_usb.c ****   uint32_t USBx_BASE = (uint32_t)USBx;
 304:Drivers/STM32H7xx_HAL_Driver/Src/stm32h7xx_ll_usb.c ****   uint32_t i;
 305:Drivers/STM32H7xx_HAL_Driver/Src/stm32h7xx_ll_usb.c **** 
 306:Drivers/STM32H7xx_HAL_Driver/Src/stm32h7xx_ll_usb.c ****   for (i = 0U; i < 15U; i++)
 307:Drivers/STM32H7xx_HAL_Driver/Src/stm32h7xx_ll_usb.c ****   {
 308:Drivers/STM32H7xx_HAL_Driver/Src/stm32h7xx_ll_usb.c ****     USBx->DIEPTXF[i] = 0U;
 309:Drivers/STM32H7xx_HAL_Driver/Src/stm32h7xx_ll_usb.c ****   }
 310:Drivers/STM32H7xx_HAL_Driver/Src/stm32h7xx_ll_usb.c **** 
 311:Drivers/STM32H7xx_HAL_Driver/Src/stm32h7xx_ll_usb.c ****   /* VBUS Sensing setup */
 312:Drivers/STM32H7xx_HAL_Driver/Src/stm32h7xx_ll_usb.c ****   if (cfg.vbus_sensing_enable == 0U)
 313:Drivers/STM32H7xx_HAL_Driver/Src/stm32h7xx_ll_usb.c ****   {
 314:Drivers/STM32H7xx_HAL_Driver/Src/stm32h7xx_ll_usb.c ****     USBx_DEVICE->DCTL |= USB_OTG_DCTL_SDIS;
 315:Drivers/STM32H7xx_HAL_Driver/Src/stm32h7xx_ll_usb.c **** 
 316:Drivers/STM32H7xx_HAL_Driver/Src/stm32h7xx_ll_usb.c ****     /* Deactivate VBUS Sensing B */
ARM GAS  C:\Users\PgRick\AppData\Local\Temp\ccFebq6t.s 			page 7


 317:Drivers/STM32H7xx_HAL_Driver/Src/stm32h7xx_ll_usb.c ****     USBx->GCCFG &= ~USB_OTG_GCCFG_VBDEN;
 318:Drivers/STM32H7xx_HAL_Driver/Src/stm32h7xx_ll_usb.c **** 
 319:Drivers/STM32H7xx_HAL_Driver/Src/stm32h7xx_ll_usb.c ****     /* B-peripheral session valid override enable */
 320:Drivers/STM32H7xx_HAL_Driver/Src/stm32h7xx_ll_usb.c ****     USBx->GOTGCTL |= USB_OTG_GOTGCTL_BVALOEN;
 321:Drivers/STM32H7xx_HAL_Driver/Src/stm32h7xx_ll_usb.c ****     USBx->GOTGCTL |= USB_OTG_GOTGCTL_BVALOVAL;
 322:Drivers/STM32H7xx_HAL_Driver/Src/stm32h7xx_ll_usb.c ****   }
 323:Drivers/STM32H7xx_HAL_Driver/Src/stm32h7xx_ll_usb.c ****   else
 324:Drivers/STM32H7xx_HAL_Driver/Src/stm32h7xx_ll_usb.c ****   {
 325:Drivers/STM32H7xx_HAL_Driver/Src/stm32h7xx_ll_usb.c ****     /* Enable HW VBUS sensing */
 326:Drivers/STM32H7xx_HAL_Driver/Src/stm32h7xx_ll_usb.c ****     USBx->GCCFG |= USB_OTG_GCCFG_VBDEN;
 327:Drivers/STM32H7xx_HAL_Driver/Src/stm32h7xx_ll_usb.c ****   }
 328:Drivers/STM32H7xx_HAL_Driver/Src/stm32h7xx_ll_usb.c **** 
 329:Drivers/STM32H7xx_HAL_Driver/Src/stm32h7xx_ll_usb.c ****   /* Restart the Phy Clock */
 330:Drivers/STM32H7xx_HAL_Driver/Src/stm32h7xx_ll_usb.c ****   USBx_PCGCCTL = 0U;
 331:Drivers/STM32H7xx_HAL_Driver/Src/stm32h7xx_ll_usb.c **** 
 332:Drivers/STM32H7xx_HAL_Driver/Src/stm32h7xx_ll_usb.c ****   if (cfg.phy_itface == USB_OTG_ULPI_PHY)
 333:Drivers/STM32H7xx_HAL_Driver/Src/stm32h7xx_ll_usb.c ****   {
 334:Drivers/STM32H7xx_HAL_Driver/Src/stm32h7xx_ll_usb.c ****     if (cfg.speed == USBD_HS_SPEED)
 335:Drivers/STM32H7xx_HAL_Driver/Src/stm32h7xx_ll_usb.c ****     {
 336:Drivers/STM32H7xx_HAL_Driver/Src/stm32h7xx_ll_usb.c ****       /* Set Core speed to High speed mode */
 337:Drivers/STM32H7xx_HAL_Driver/Src/stm32h7xx_ll_usb.c ****       (void)USB_SetDevSpeed(USBx, USB_OTG_SPEED_HIGH);
 338:Drivers/STM32H7xx_HAL_Driver/Src/stm32h7xx_ll_usb.c ****     }
 339:Drivers/STM32H7xx_HAL_Driver/Src/stm32h7xx_ll_usb.c ****     else
 340:Drivers/STM32H7xx_HAL_Driver/Src/stm32h7xx_ll_usb.c ****     {
 341:Drivers/STM32H7xx_HAL_Driver/Src/stm32h7xx_ll_usb.c ****       /* Set Core speed to Full speed mode */
 342:Drivers/STM32H7xx_HAL_Driver/Src/stm32h7xx_ll_usb.c ****       (void)USB_SetDevSpeed(USBx, USB_OTG_SPEED_HIGH_IN_FULL);
 343:Drivers/STM32H7xx_HAL_Driver/Src/stm32h7xx_ll_usb.c ****     }
 344:Drivers/STM32H7xx_HAL_Driver/Src/stm32h7xx_ll_usb.c ****   }
 345:Drivers/STM32H7xx_HAL_Driver/Src/stm32h7xx_ll_usb.c ****   else
 346:Drivers/STM32H7xx_HAL_Driver/Src/stm32h7xx_ll_usb.c ****   {
 347:Drivers/STM32H7xx_HAL_Driver/Src/stm32h7xx_ll_usb.c ****     /* Set Core speed to Full speed mode */
 348:Drivers/STM32H7xx_HAL_Driver/Src/stm32h7xx_ll_usb.c ****     (void)USB_SetDevSpeed(USBx, USB_OTG_SPEED_FULL);
 349:Drivers/STM32H7xx_HAL_Driver/Src/stm32h7xx_ll_usb.c ****   }
 350:Drivers/STM32H7xx_HAL_Driver/Src/stm32h7xx_ll_usb.c **** 
 351:Drivers/STM32H7xx_HAL_Driver/Src/stm32h7xx_ll_usb.c ****   /* Flush the FIFOs */
 352:Drivers/STM32H7xx_HAL_Driver/Src/stm32h7xx_ll_usb.c ****   if (USB_FlushTxFifo(USBx, 0x10U) != HAL_OK) /* all Tx FIFOs */
 353:Drivers/STM32H7xx_HAL_Driver/Src/stm32h7xx_ll_usb.c ****   {
 354:Drivers/STM32H7xx_HAL_Driver/Src/stm32h7xx_ll_usb.c ****     ret = HAL_ERROR;
 355:Drivers/STM32H7xx_HAL_Driver/Src/stm32h7xx_ll_usb.c ****   }
 356:Drivers/STM32H7xx_HAL_Driver/Src/stm32h7xx_ll_usb.c **** 
 357:Drivers/STM32H7xx_HAL_Driver/Src/stm32h7xx_ll_usb.c ****   if (USB_FlushRxFifo(USBx) != HAL_OK)
 358:Drivers/STM32H7xx_HAL_Driver/Src/stm32h7xx_ll_usb.c ****   {
 359:Drivers/STM32H7xx_HAL_Driver/Src/stm32h7xx_ll_usb.c ****     ret = HAL_ERROR;
 360:Drivers/STM32H7xx_HAL_Driver/Src/stm32h7xx_ll_usb.c ****   }
 361:Drivers/STM32H7xx_HAL_Driver/Src/stm32h7xx_ll_usb.c **** 
 362:Drivers/STM32H7xx_HAL_Driver/Src/stm32h7xx_ll_usb.c ****   /* Clear all pending Device Interrupts */
 363:Drivers/STM32H7xx_HAL_Driver/Src/stm32h7xx_ll_usb.c ****   USBx_DEVICE->DIEPMSK = 0U;
 364:Drivers/STM32H7xx_HAL_Driver/Src/stm32h7xx_ll_usb.c ****   USBx_DEVICE->DOEPMSK = 0U;
 365:Drivers/STM32H7xx_HAL_Driver/Src/stm32h7xx_ll_usb.c ****   USBx_DEVICE->DAINTMSK = 0U;
 366:Drivers/STM32H7xx_HAL_Driver/Src/stm32h7xx_ll_usb.c **** 
 367:Drivers/STM32H7xx_HAL_Driver/Src/stm32h7xx_ll_usb.c ****   for (i = 0U; i < cfg.dev_endpoints; i++)
 368:Drivers/STM32H7xx_HAL_Driver/Src/stm32h7xx_ll_usb.c ****   {
 369:Drivers/STM32H7xx_HAL_Driver/Src/stm32h7xx_ll_usb.c ****     if ((USBx_INEP(i)->DIEPCTL & USB_OTG_DIEPCTL_EPENA) == USB_OTG_DIEPCTL_EPENA)
 370:Drivers/STM32H7xx_HAL_Driver/Src/stm32h7xx_ll_usb.c ****     {
 371:Drivers/STM32H7xx_HAL_Driver/Src/stm32h7xx_ll_usb.c ****       if (i == 0U)
 372:Drivers/STM32H7xx_HAL_Driver/Src/stm32h7xx_ll_usb.c ****       {
 373:Drivers/STM32H7xx_HAL_Driver/Src/stm32h7xx_ll_usb.c ****         USBx_INEP(i)->DIEPCTL = USB_OTG_DIEPCTL_SNAK;
ARM GAS  C:\Users\PgRick\AppData\Local\Temp\ccFebq6t.s 			page 8


 374:Drivers/STM32H7xx_HAL_Driver/Src/stm32h7xx_ll_usb.c ****       }
 375:Drivers/STM32H7xx_HAL_Driver/Src/stm32h7xx_ll_usb.c ****       else
 376:Drivers/STM32H7xx_HAL_Driver/Src/stm32h7xx_ll_usb.c ****       {
 377:Drivers/STM32H7xx_HAL_Driver/Src/stm32h7xx_ll_usb.c ****         USBx_INEP(i)->DIEPCTL = USB_OTG_DIEPCTL_EPDIS | USB_OTG_DIEPCTL_SNAK;
 378:Drivers/STM32H7xx_HAL_Driver/Src/stm32h7xx_ll_usb.c ****       }
 379:Drivers/STM32H7xx_HAL_Driver/Src/stm32h7xx_ll_usb.c ****     }
 380:Drivers/STM32H7xx_HAL_Driver/Src/stm32h7xx_ll_usb.c ****     else
 381:Drivers/STM32H7xx_HAL_Driver/Src/stm32h7xx_ll_usb.c ****     {
 382:Drivers/STM32H7xx_HAL_Driver/Src/stm32h7xx_ll_usb.c ****       USBx_INEP(i)->DIEPCTL = 0U;
 383:Drivers/STM32H7xx_HAL_Driver/Src/stm32h7xx_ll_usb.c ****     }
 384:Drivers/STM32H7xx_HAL_Driver/Src/stm32h7xx_ll_usb.c **** 
 385:Drivers/STM32H7xx_HAL_Driver/Src/stm32h7xx_ll_usb.c ****     USBx_INEP(i)->DIEPTSIZ = 0U;
 386:Drivers/STM32H7xx_HAL_Driver/Src/stm32h7xx_ll_usb.c ****     USBx_INEP(i)->DIEPINT  = 0xFB7FU;
 387:Drivers/STM32H7xx_HAL_Driver/Src/stm32h7xx_ll_usb.c ****   }
 388:Drivers/STM32H7xx_HAL_Driver/Src/stm32h7xx_ll_usb.c **** 
 389:Drivers/STM32H7xx_HAL_Driver/Src/stm32h7xx_ll_usb.c ****   for (i = 0U; i < cfg.dev_endpoints; i++)
 390:Drivers/STM32H7xx_HAL_Driver/Src/stm32h7xx_ll_usb.c ****   {
 391:Drivers/STM32H7xx_HAL_Driver/Src/stm32h7xx_ll_usb.c ****     if ((USBx_OUTEP(i)->DOEPCTL & USB_OTG_DOEPCTL_EPENA) == USB_OTG_DOEPCTL_EPENA)
 392:Drivers/STM32H7xx_HAL_Driver/Src/stm32h7xx_ll_usb.c ****     {
 393:Drivers/STM32H7xx_HAL_Driver/Src/stm32h7xx_ll_usb.c ****       if (i == 0U)
 394:Drivers/STM32H7xx_HAL_Driver/Src/stm32h7xx_ll_usb.c ****       {
 395:Drivers/STM32H7xx_HAL_Driver/Src/stm32h7xx_ll_usb.c ****         USBx_OUTEP(i)->DOEPCTL = USB_OTG_DOEPCTL_SNAK;
 396:Drivers/STM32H7xx_HAL_Driver/Src/stm32h7xx_ll_usb.c ****       }
 397:Drivers/STM32H7xx_HAL_Driver/Src/stm32h7xx_ll_usb.c ****       else
 398:Drivers/STM32H7xx_HAL_Driver/Src/stm32h7xx_ll_usb.c ****       {
 399:Drivers/STM32H7xx_HAL_Driver/Src/stm32h7xx_ll_usb.c ****         USBx_OUTEP(i)->DOEPCTL = USB_OTG_DOEPCTL_EPDIS | USB_OTG_DOEPCTL_SNAK;
 400:Drivers/STM32H7xx_HAL_Driver/Src/stm32h7xx_ll_usb.c ****       }
 401:Drivers/STM32H7xx_HAL_Driver/Src/stm32h7xx_ll_usb.c ****     }
 402:Drivers/STM32H7xx_HAL_Driver/Src/stm32h7xx_ll_usb.c ****     else
 403:Drivers/STM32H7xx_HAL_Driver/Src/stm32h7xx_ll_usb.c ****     {
 404:Drivers/STM32H7xx_HAL_Driver/Src/stm32h7xx_ll_usb.c ****       USBx_OUTEP(i)->DOEPCTL = 0U;
 405:Drivers/STM32H7xx_HAL_Driver/Src/stm32h7xx_ll_usb.c ****     }
 406:Drivers/STM32H7xx_HAL_Driver/Src/stm32h7xx_ll_usb.c **** 
 407:Drivers/STM32H7xx_HAL_Driver/Src/stm32h7xx_ll_usb.c ****     USBx_OUTEP(i)->DOEPTSIZ = 0U;
 408:Drivers/STM32H7xx_HAL_Driver/Src/stm32h7xx_ll_usb.c ****     USBx_OUTEP(i)->DOEPINT  = 0xFB7FU;
 409:Drivers/STM32H7xx_HAL_Driver/Src/stm32h7xx_ll_usb.c ****   }
 410:Drivers/STM32H7xx_HAL_Driver/Src/stm32h7xx_ll_usb.c **** 
 411:Drivers/STM32H7xx_HAL_Driver/Src/stm32h7xx_ll_usb.c ****   USBx_DEVICE->DIEPMSK &= ~(USB_OTG_DIEPMSK_TXFURM);
 412:Drivers/STM32H7xx_HAL_Driver/Src/stm32h7xx_ll_usb.c **** 
 413:Drivers/STM32H7xx_HAL_Driver/Src/stm32h7xx_ll_usb.c ****   /* Disable all interrupts. */
 414:Drivers/STM32H7xx_HAL_Driver/Src/stm32h7xx_ll_usb.c ****   USBx->GINTMSK = 0U;
 415:Drivers/STM32H7xx_HAL_Driver/Src/stm32h7xx_ll_usb.c **** 
 416:Drivers/STM32H7xx_HAL_Driver/Src/stm32h7xx_ll_usb.c ****   /* Clear any pending interrupts */
 417:Drivers/STM32H7xx_HAL_Driver/Src/stm32h7xx_ll_usb.c ****   USBx->GINTSTS = 0xBFFFFFFFU;
 418:Drivers/STM32H7xx_HAL_Driver/Src/stm32h7xx_ll_usb.c **** 
 419:Drivers/STM32H7xx_HAL_Driver/Src/stm32h7xx_ll_usb.c ****   /* Enable the common interrupts */
 420:Drivers/STM32H7xx_HAL_Driver/Src/stm32h7xx_ll_usb.c ****   if (cfg.dma_enable == 0U)
 421:Drivers/STM32H7xx_HAL_Driver/Src/stm32h7xx_ll_usb.c ****   {
 422:Drivers/STM32H7xx_HAL_Driver/Src/stm32h7xx_ll_usb.c ****     USBx->GINTMSK |= USB_OTG_GINTMSK_RXFLVLM;
 423:Drivers/STM32H7xx_HAL_Driver/Src/stm32h7xx_ll_usb.c ****   }
 424:Drivers/STM32H7xx_HAL_Driver/Src/stm32h7xx_ll_usb.c **** 
 425:Drivers/STM32H7xx_HAL_Driver/Src/stm32h7xx_ll_usb.c ****   /* Enable interrupts matching to the Device mode ONLY */
 426:Drivers/STM32H7xx_HAL_Driver/Src/stm32h7xx_ll_usb.c ****   USBx->GINTMSK |= USB_OTG_GINTMSK_USBSUSPM | USB_OTG_GINTMSK_USBRST |
 427:Drivers/STM32H7xx_HAL_Driver/Src/stm32h7xx_ll_usb.c ****                    USB_OTG_GINTMSK_ENUMDNEM | USB_OTG_GINTMSK_IEPINT |
 428:Drivers/STM32H7xx_HAL_Driver/Src/stm32h7xx_ll_usb.c ****                    USB_OTG_GINTMSK_OEPINT   | USB_OTG_GINTMSK_IISOIXFRM |
 429:Drivers/STM32H7xx_HAL_Driver/Src/stm32h7xx_ll_usb.c ****                    USB_OTG_GINTMSK_PXFRM_IISOOXFRM | USB_OTG_GINTMSK_WUIM;
 430:Drivers/STM32H7xx_HAL_Driver/Src/stm32h7xx_ll_usb.c **** 
ARM GAS  C:\Users\PgRick\AppData\Local\Temp\ccFebq6t.s 			page 9


 431:Drivers/STM32H7xx_HAL_Driver/Src/stm32h7xx_ll_usb.c ****   if (cfg.Sof_enable != 0U)
 432:Drivers/STM32H7xx_HAL_Driver/Src/stm32h7xx_ll_usb.c ****   {
 433:Drivers/STM32H7xx_HAL_Driver/Src/stm32h7xx_ll_usb.c ****     USBx->GINTMSK |= USB_OTG_GINTMSK_SOFM;
 434:Drivers/STM32H7xx_HAL_Driver/Src/stm32h7xx_ll_usb.c ****   }
 435:Drivers/STM32H7xx_HAL_Driver/Src/stm32h7xx_ll_usb.c **** 
 436:Drivers/STM32H7xx_HAL_Driver/Src/stm32h7xx_ll_usb.c ****   if (cfg.vbus_sensing_enable == 1U)
 437:Drivers/STM32H7xx_HAL_Driver/Src/stm32h7xx_ll_usb.c ****   {
 438:Drivers/STM32H7xx_HAL_Driver/Src/stm32h7xx_ll_usb.c ****     USBx->GINTMSK |= (USB_OTG_GINTMSK_SRQIM | USB_OTG_GINTMSK_OTGINT);
 439:Drivers/STM32H7xx_HAL_Driver/Src/stm32h7xx_ll_usb.c ****   }
 440:Drivers/STM32H7xx_HAL_Driver/Src/stm32h7xx_ll_usb.c **** 
 441:Drivers/STM32H7xx_HAL_Driver/Src/stm32h7xx_ll_usb.c ****   return ret;
 442:Drivers/STM32H7xx_HAL_Driver/Src/stm32h7xx_ll_usb.c **** }
 443:Drivers/STM32H7xx_HAL_Driver/Src/stm32h7xx_ll_usb.c **** 
 444:Drivers/STM32H7xx_HAL_Driver/Src/stm32h7xx_ll_usb.c **** /**
 445:Drivers/STM32H7xx_HAL_Driver/Src/stm32h7xx_ll_usb.c ****   * @brief  USB_FlushTxFifo Flush a Tx FIFO
 446:Drivers/STM32H7xx_HAL_Driver/Src/stm32h7xx_ll_usb.c ****   * @param  USBx  Selected device
 447:Drivers/STM32H7xx_HAL_Driver/Src/stm32h7xx_ll_usb.c ****   * @param  num  FIFO number
 448:Drivers/STM32H7xx_HAL_Driver/Src/stm32h7xx_ll_usb.c ****   *         This parameter can be a value from 1 to 15
 449:Drivers/STM32H7xx_HAL_Driver/Src/stm32h7xx_ll_usb.c ****             15 means Flush all Tx FIFOs
 450:Drivers/STM32H7xx_HAL_Driver/Src/stm32h7xx_ll_usb.c ****   * @retval HAL status
 451:Drivers/STM32H7xx_HAL_Driver/Src/stm32h7xx_ll_usb.c ****   */
 452:Drivers/STM32H7xx_HAL_Driver/Src/stm32h7xx_ll_usb.c **** HAL_StatusTypeDef USB_FlushTxFifo(USB_OTG_GlobalTypeDef *USBx, uint32_t num)
 453:Drivers/STM32H7xx_HAL_Driver/Src/stm32h7xx_ll_usb.c **** {
 454:Drivers/STM32H7xx_HAL_Driver/Src/stm32h7xx_ll_usb.c ****   __IO uint32_t count = 0U;
 455:Drivers/STM32H7xx_HAL_Driver/Src/stm32h7xx_ll_usb.c **** 
 456:Drivers/STM32H7xx_HAL_Driver/Src/stm32h7xx_ll_usb.c ****   /* Wait for AHB master IDLE state. */
 457:Drivers/STM32H7xx_HAL_Driver/Src/stm32h7xx_ll_usb.c ****   do
 458:Drivers/STM32H7xx_HAL_Driver/Src/stm32h7xx_ll_usb.c ****   {
 459:Drivers/STM32H7xx_HAL_Driver/Src/stm32h7xx_ll_usb.c ****     count++;
 460:Drivers/STM32H7xx_HAL_Driver/Src/stm32h7xx_ll_usb.c **** 
 461:Drivers/STM32H7xx_HAL_Driver/Src/stm32h7xx_ll_usb.c ****     if (count > HAL_USB_TIMEOUT)
 462:Drivers/STM32H7xx_HAL_Driver/Src/stm32h7xx_ll_usb.c ****     {
 463:Drivers/STM32H7xx_HAL_Driver/Src/stm32h7xx_ll_usb.c ****       return HAL_TIMEOUT;
 464:Drivers/STM32H7xx_HAL_Driver/Src/stm32h7xx_ll_usb.c ****     }
 465:Drivers/STM32H7xx_HAL_Driver/Src/stm32h7xx_ll_usb.c ****   } while ((USBx->GRSTCTL & USB_OTG_GRSTCTL_AHBIDL) == 0U);
 466:Drivers/STM32H7xx_HAL_Driver/Src/stm32h7xx_ll_usb.c **** 
 467:Drivers/STM32H7xx_HAL_Driver/Src/stm32h7xx_ll_usb.c ****   /* Flush TX Fifo */
 468:Drivers/STM32H7xx_HAL_Driver/Src/stm32h7xx_ll_usb.c ****   count = 0U;
 469:Drivers/STM32H7xx_HAL_Driver/Src/stm32h7xx_ll_usb.c ****   USBx->GRSTCTL = (USB_OTG_GRSTCTL_TXFFLSH | (num << 6));
 470:Drivers/STM32H7xx_HAL_Driver/Src/stm32h7xx_ll_usb.c **** 
 471:Drivers/STM32H7xx_HAL_Driver/Src/stm32h7xx_ll_usb.c ****   do
 472:Drivers/STM32H7xx_HAL_Driver/Src/stm32h7xx_ll_usb.c ****   {
 473:Drivers/STM32H7xx_HAL_Driver/Src/stm32h7xx_ll_usb.c ****     count++;
 474:Drivers/STM32H7xx_HAL_Driver/Src/stm32h7xx_ll_usb.c **** 
 475:Drivers/STM32H7xx_HAL_Driver/Src/stm32h7xx_ll_usb.c ****     if (count > HAL_USB_TIMEOUT)
 476:Drivers/STM32H7xx_HAL_Driver/Src/stm32h7xx_ll_usb.c ****     {
 477:Drivers/STM32H7xx_HAL_Driver/Src/stm32h7xx_ll_usb.c ****       return HAL_TIMEOUT;
 478:Drivers/STM32H7xx_HAL_Driver/Src/stm32h7xx_ll_usb.c ****     }
 479:Drivers/STM32H7xx_HAL_Driver/Src/stm32h7xx_ll_usb.c ****   } while ((USBx->GRSTCTL & USB_OTG_GRSTCTL_TXFFLSH) == USB_OTG_GRSTCTL_TXFFLSH);
 480:Drivers/STM32H7xx_HAL_Driver/Src/stm32h7xx_ll_usb.c **** 
 481:Drivers/STM32H7xx_HAL_Driver/Src/stm32h7xx_ll_usb.c ****   return HAL_OK;
 482:Drivers/STM32H7xx_HAL_Driver/Src/stm32h7xx_ll_usb.c **** }
 483:Drivers/STM32H7xx_HAL_Driver/Src/stm32h7xx_ll_usb.c **** 
 484:Drivers/STM32H7xx_HAL_Driver/Src/stm32h7xx_ll_usb.c **** /**
 485:Drivers/STM32H7xx_HAL_Driver/Src/stm32h7xx_ll_usb.c ****   * @brief  USB_FlushRxFifo  Flush Rx FIFO
 486:Drivers/STM32H7xx_HAL_Driver/Src/stm32h7xx_ll_usb.c ****   * @param  USBx  Selected device
 487:Drivers/STM32H7xx_HAL_Driver/Src/stm32h7xx_ll_usb.c ****   * @retval HAL status
ARM GAS  C:\Users\PgRick\AppData\Local\Temp\ccFebq6t.s 			page 10


 488:Drivers/STM32H7xx_HAL_Driver/Src/stm32h7xx_ll_usb.c ****   */
 489:Drivers/STM32H7xx_HAL_Driver/Src/stm32h7xx_ll_usb.c **** HAL_StatusTypeDef USB_FlushRxFifo(USB_OTG_GlobalTypeDef *USBx)
 490:Drivers/STM32H7xx_HAL_Driver/Src/stm32h7xx_ll_usb.c **** {
 491:Drivers/STM32H7xx_HAL_Driver/Src/stm32h7xx_ll_usb.c ****   __IO uint32_t count = 0U;
 492:Drivers/STM32H7xx_HAL_Driver/Src/stm32h7xx_ll_usb.c **** 
 493:Drivers/STM32H7xx_HAL_Driver/Src/stm32h7xx_ll_usb.c ****   /* Wait for AHB master IDLE state. */
 494:Drivers/STM32H7xx_HAL_Driver/Src/stm32h7xx_ll_usb.c ****   do
 495:Drivers/STM32H7xx_HAL_Driver/Src/stm32h7xx_ll_usb.c ****   {
 496:Drivers/STM32H7xx_HAL_Driver/Src/stm32h7xx_ll_usb.c ****     count++;
 497:Drivers/STM32H7xx_HAL_Driver/Src/stm32h7xx_ll_usb.c **** 
 498:Drivers/STM32H7xx_HAL_Driver/Src/stm32h7xx_ll_usb.c ****     if (count > HAL_USB_TIMEOUT)
 499:Drivers/STM32H7xx_HAL_Driver/Src/stm32h7xx_ll_usb.c ****     {
 500:Drivers/STM32H7xx_HAL_Driver/Src/stm32h7xx_ll_usb.c ****       return HAL_TIMEOUT;
 501:Drivers/STM32H7xx_HAL_Driver/Src/stm32h7xx_ll_usb.c ****     }
 502:Drivers/STM32H7xx_HAL_Driver/Src/stm32h7xx_ll_usb.c ****   } while ((USBx->GRSTCTL & USB_OTG_GRSTCTL_AHBIDL) == 0U);
 503:Drivers/STM32H7xx_HAL_Driver/Src/stm32h7xx_ll_usb.c **** 
 504:Drivers/STM32H7xx_HAL_Driver/Src/stm32h7xx_ll_usb.c ****   /* Flush RX Fifo */
 505:Drivers/STM32H7xx_HAL_Driver/Src/stm32h7xx_ll_usb.c ****   count = 0U;
 506:Drivers/STM32H7xx_HAL_Driver/Src/stm32h7xx_ll_usb.c ****   USBx->GRSTCTL = USB_OTG_GRSTCTL_RXFFLSH;
 507:Drivers/STM32H7xx_HAL_Driver/Src/stm32h7xx_ll_usb.c **** 
 508:Drivers/STM32H7xx_HAL_Driver/Src/stm32h7xx_ll_usb.c ****   do
 509:Drivers/STM32H7xx_HAL_Driver/Src/stm32h7xx_ll_usb.c ****   {
 510:Drivers/STM32H7xx_HAL_Driver/Src/stm32h7xx_ll_usb.c ****     count++;
 511:Drivers/STM32H7xx_HAL_Driver/Src/stm32h7xx_ll_usb.c **** 
 512:Drivers/STM32H7xx_HAL_Driver/Src/stm32h7xx_ll_usb.c ****     if (count > HAL_USB_TIMEOUT)
 513:Drivers/STM32H7xx_HAL_Driver/Src/stm32h7xx_ll_usb.c ****     {
 514:Drivers/STM32H7xx_HAL_Driver/Src/stm32h7xx_ll_usb.c ****       return HAL_TIMEOUT;
 515:Drivers/STM32H7xx_HAL_Driver/Src/stm32h7xx_ll_usb.c ****     }
 516:Drivers/STM32H7xx_HAL_Driver/Src/stm32h7xx_ll_usb.c ****   } while ((USBx->GRSTCTL & USB_OTG_GRSTCTL_RXFFLSH) == USB_OTG_GRSTCTL_RXFFLSH);
 517:Drivers/STM32H7xx_HAL_Driver/Src/stm32h7xx_ll_usb.c **** 
 518:Drivers/STM32H7xx_HAL_Driver/Src/stm32h7xx_ll_usb.c ****   return HAL_OK;
 519:Drivers/STM32H7xx_HAL_Driver/Src/stm32h7xx_ll_usb.c **** }
 520:Drivers/STM32H7xx_HAL_Driver/Src/stm32h7xx_ll_usb.c **** 
 521:Drivers/STM32H7xx_HAL_Driver/Src/stm32h7xx_ll_usb.c **** /**
 522:Drivers/STM32H7xx_HAL_Driver/Src/stm32h7xx_ll_usb.c ****   * @brief  USB_SetDevSpeed  Initializes the DevSpd field of DCFG register
 523:Drivers/STM32H7xx_HAL_Driver/Src/stm32h7xx_ll_usb.c ****   *         depending the PHY type and the enumeration speed of the device.
 524:Drivers/STM32H7xx_HAL_Driver/Src/stm32h7xx_ll_usb.c ****   * @param  USBx  Selected device
 525:Drivers/STM32H7xx_HAL_Driver/Src/stm32h7xx_ll_usb.c ****   * @param  speed  device speed
 526:Drivers/STM32H7xx_HAL_Driver/Src/stm32h7xx_ll_usb.c ****   *          This parameter can be one of these values:
 527:Drivers/STM32H7xx_HAL_Driver/Src/stm32h7xx_ll_usb.c ****   *            @arg USB_OTG_SPEED_HIGH: High speed mode
 528:Drivers/STM32H7xx_HAL_Driver/Src/stm32h7xx_ll_usb.c ****   *            @arg USB_OTG_SPEED_HIGH_IN_FULL: High speed core in Full Speed mode
 529:Drivers/STM32H7xx_HAL_Driver/Src/stm32h7xx_ll_usb.c ****   *            @arg USB_OTG_SPEED_FULL: Full speed mode
 530:Drivers/STM32H7xx_HAL_Driver/Src/stm32h7xx_ll_usb.c ****   * @retval  Hal status
 531:Drivers/STM32H7xx_HAL_Driver/Src/stm32h7xx_ll_usb.c ****   */
 532:Drivers/STM32H7xx_HAL_Driver/Src/stm32h7xx_ll_usb.c **** HAL_StatusTypeDef USB_SetDevSpeed(const USB_OTG_GlobalTypeDef *USBx, uint8_t speed)
 533:Drivers/STM32H7xx_HAL_Driver/Src/stm32h7xx_ll_usb.c **** {
 534:Drivers/STM32H7xx_HAL_Driver/Src/stm32h7xx_ll_usb.c ****   uint32_t USBx_BASE = (uint32_t)USBx;
 535:Drivers/STM32H7xx_HAL_Driver/Src/stm32h7xx_ll_usb.c **** 
 536:Drivers/STM32H7xx_HAL_Driver/Src/stm32h7xx_ll_usb.c ****   USBx_DEVICE->DCFG |= speed;
 537:Drivers/STM32H7xx_HAL_Driver/Src/stm32h7xx_ll_usb.c ****   return HAL_OK;
 538:Drivers/STM32H7xx_HAL_Driver/Src/stm32h7xx_ll_usb.c **** }
 539:Drivers/STM32H7xx_HAL_Driver/Src/stm32h7xx_ll_usb.c **** 
 540:Drivers/STM32H7xx_HAL_Driver/Src/stm32h7xx_ll_usb.c **** /**
 541:Drivers/STM32H7xx_HAL_Driver/Src/stm32h7xx_ll_usb.c ****   * @brief  USB_GetDevSpeed  Return the Dev Speed
 542:Drivers/STM32H7xx_HAL_Driver/Src/stm32h7xx_ll_usb.c ****   * @param  USBx  Selected device
 543:Drivers/STM32H7xx_HAL_Driver/Src/stm32h7xx_ll_usb.c ****   * @retval speed  device speed
 544:Drivers/STM32H7xx_HAL_Driver/Src/stm32h7xx_ll_usb.c ****   *          This parameter can be one of these values:
ARM GAS  C:\Users\PgRick\AppData\Local\Temp\ccFebq6t.s 			page 11


 545:Drivers/STM32H7xx_HAL_Driver/Src/stm32h7xx_ll_usb.c ****   *            @arg USBD_HS_SPEED: High speed mode
 546:Drivers/STM32H7xx_HAL_Driver/Src/stm32h7xx_ll_usb.c ****   *            @arg USBD_FS_SPEED: Full speed mode
 547:Drivers/STM32H7xx_HAL_Driver/Src/stm32h7xx_ll_usb.c ****   */
 548:Drivers/STM32H7xx_HAL_Driver/Src/stm32h7xx_ll_usb.c **** uint8_t USB_GetDevSpeed(const USB_OTG_GlobalTypeDef *USBx)
 549:Drivers/STM32H7xx_HAL_Driver/Src/stm32h7xx_ll_usb.c **** {
 550:Drivers/STM32H7xx_HAL_Driver/Src/stm32h7xx_ll_usb.c ****   uint32_t USBx_BASE = (uint32_t)USBx;
 551:Drivers/STM32H7xx_HAL_Driver/Src/stm32h7xx_ll_usb.c ****   uint8_t speed;
 552:Drivers/STM32H7xx_HAL_Driver/Src/stm32h7xx_ll_usb.c ****   uint32_t DevEnumSpeed = USBx_DEVICE->DSTS & USB_OTG_DSTS_ENUMSPD;
 553:Drivers/STM32H7xx_HAL_Driver/Src/stm32h7xx_ll_usb.c **** 
 554:Drivers/STM32H7xx_HAL_Driver/Src/stm32h7xx_ll_usb.c ****   if (DevEnumSpeed == DSTS_ENUMSPD_HS_PHY_30MHZ_OR_60MHZ)
 555:Drivers/STM32H7xx_HAL_Driver/Src/stm32h7xx_ll_usb.c ****   {
 556:Drivers/STM32H7xx_HAL_Driver/Src/stm32h7xx_ll_usb.c ****     speed = USBD_HS_SPEED;
 557:Drivers/STM32H7xx_HAL_Driver/Src/stm32h7xx_ll_usb.c ****   }
 558:Drivers/STM32H7xx_HAL_Driver/Src/stm32h7xx_ll_usb.c ****   else if ((DevEnumSpeed == DSTS_ENUMSPD_FS_PHY_30MHZ_OR_60MHZ) ||
 559:Drivers/STM32H7xx_HAL_Driver/Src/stm32h7xx_ll_usb.c ****            (DevEnumSpeed == DSTS_ENUMSPD_FS_PHY_48MHZ))
 560:Drivers/STM32H7xx_HAL_Driver/Src/stm32h7xx_ll_usb.c ****   {
 561:Drivers/STM32H7xx_HAL_Driver/Src/stm32h7xx_ll_usb.c ****     speed = USBD_FS_SPEED;
 562:Drivers/STM32H7xx_HAL_Driver/Src/stm32h7xx_ll_usb.c ****   }
 563:Drivers/STM32H7xx_HAL_Driver/Src/stm32h7xx_ll_usb.c ****   else
 564:Drivers/STM32H7xx_HAL_Driver/Src/stm32h7xx_ll_usb.c ****   {
 565:Drivers/STM32H7xx_HAL_Driver/Src/stm32h7xx_ll_usb.c ****     speed = 0xFU;
 566:Drivers/STM32H7xx_HAL_Driver/Src/stm32h7xx_ll_usb.c ****   }
 567:Drivers/STM32H7xx_HAL_Driver/Src/stm32h7xx_ll_usb.c **** 
 568:Drivers/STM32H7xx_HAL_Driver/Src/stm32h7xx_ll_usb.c ****   return speed;
 569:Drivers/STM32H7xx_HAL_Driver/Src/stm32h7xx_ll_usb.c **** }
 570:Drivers/STM32H7xx_HAL_Driver/Src/stm32h7xx_ll_usb.c **** 
 571:Drivers/STM32H7xx_HAL_Driver/Src/stm32h7xx_ll_usb.c **** /**
 572:Drivers/STM32H7xx_HAL_Driver/Src/stm32h7xx_ll_usb.c ****   * @brief  Activate and configure an endpoint
 573:Drivers/STM32H7xx_HAL_Driver/Src/stm32h7xx_ll_usb.c ****   * @param  USBx  Selected device
 574:Drivers/STM32H7xx_HAL_Driver/Src/stm32h7xx_ll_usb.c ****   * @param  ep pointer to endpoint structure
 575:Drivers/STM32H7xx_HAL_Driver/Src/stm32h7xx_ll_usb.c ****   * @retval HAL status
 576:Drivers/STM32H7xx_HAL_Driver/Src/stm32h7xx_ll_usb.c ****   */
 577:Drivers/STM32H7xx_HAL_Driver/Src/stm32h7xx_ll_usb.c **** HAL_StatusTypeDef USB_ActivateEndpoint(const USB_OTG_GlobalTypeDef *USBx, const USB_OTG_EPTypeDef *
 578:Drivers/STM32H7xx_HAL_Driver/Src/stm32h7xx_ll_usb.c **** {
 579:Drivers/STM32H7xx_HAL_Driver/Src/stm32h7xx_ll_usb.c ****   uint32_t USBx_BASE = (uint32_t)USBx;
 580:Drivers/STM32H7xx_HAL_Driver/Src/stm32h7xx_ll_usb.c ****   uint32_t epnum = (uint32_t)ep->num;
 581:Drivers/STM32H7xx_HAL_Driver/Src/stm32h7xx_ll_usb.c **** 
 582:Drivers/STM32H7xx_HAL_Driver/Src/stm32h7xx_ll_usb.c ****   if (ep->is_in == 1U)
 583:Drivers/STM32H7xx_HAL_Driver/Src/stm32h7xx_ll_usb.c ****   {
 584:Drivers/STM32H7xx_HAL_Driver/Src/stm32h7xx_ll_usb.c ****     USBx_DEVICE->DAINTMSK |= USB_OTG_DAINTMSK_IEPM & (uint32_t)(1UL << (ep->num & EP_ADDR_MSK));
 585:Drivers/STM32H7xx_HAL_Driver/Src/stm32h7xx_ll_usb.c **** 
 586:Drivers/STM32H7xx_HAL_Driver/Src/stm32h7xx_ll_usb.c ****     if ((USBx_INEP(epnum)->DIEPCTL & USB_OTG_DIEPCTL_USBAEP) == 0U)
 587:Drivers/STM32H7xx_HAL_Driver/Src/stm32h7xx_ll_usb.c ****     {
 588:Drivers/STM32H7xx_HAL_Driver/Src/stm32h7xx_ll_usb.c ****       USBx_INEP(epnum)->DIEPCTL |= (ep->maxpacket & USB_OTG_DIEPCTL_MPSIZ) |
 589:Drivers/STM32H7xx_HAL_Driver/Src/stm32h7xx_ll_usb.c ****                                    ((uint32_t)ep->type << 18) | (epnum << 22) |
 590:Drivers/STM32H7xx_HAL_Driver/Src/stm32h7xx_ll_usb.c ****                                    USB_OTG_DIEPCTL_SD0PID_SEVNFRM |
 591:Drivers/STM32H7xx_HAL_Driver/Src/stm32h7xx_ll_usb.c ****                                    USB_OTG_DIEPCTL_USBAEP;
 592:Drivers/STM32H7xx_HAL_Driver/Src/stm32h7xx_ll_usb.c ****     }
 593:Drivers/STM32H7xx_HAL_Driver/Src/stm32h7xx_ll_usb.c ****   }
 594:Drivers/STM32H7xx_HAL_Driver/Src/stm32h7xx_ll_usb.c ****   else
 595:Drivers/STM32H7xx_HAL_Driver/Src/stm32h7xx_ll_usb.c ****   {
 596:Drivers/STM32H7xx_HAL_Driver/Src/stm32h7xx_ll_usb.c ****     USBx_DEVICE->DAINTMSK |= USB_OTG_DAINTMSK_OEPM & ((uint32_t)(1UL << (ep->num & EP_ADDR_MSK)) <<
 597:Drivers/STM32H7xx_HAL_Driver/Src/stm32h7xx_ll_usb.c **** 
 598:Drivers/STM32H7xx_HAL_Driver/Src/stm32h7xx_ll_usb.c ****     if (((USBx_OUTEP(epnum)->DOEPCTL) & USB_OTG_DOEPCTL_USBAEP) == 0U)
 599:Drivers/STM32H7xx_HAL_Driver/Src/stm32h7xx_ll_usb.c ****     {
 600:Drivers/STM32H7xx_HAL_Driver/Src/stm32h7xx_ll_usb.c ****       USBx_OUTEP(epnum)->DOEPCTL |= (ep->maxpacket & USB_OTG_DOEPCTL_MPSIZ) |
 601:Drivers/STM32H7xx_HAL_Driver/Src/stm32h7xx_ll_usb.c ****                                     ((uint32_t)ep->type << 18) |
ARM GAS  C:\Users\PgRick\AppData\Local\Temp\ccFebq6t.s 			page 12


 602:Drivers/STM32H7xx_HAL_Driver/Src/stm32h7xx_ll_usb.c ****                                     USB_OTG_DIEPCTL_SD0PID_SEVNFRM |
 603:Drivers/STM32H7xx_HAL_Driver/Src/stm32h7xx_ll_usb.c ****                                     USB_OTG_DOEPCTL_USBAEP;
 604:Drivers/STM32H7xx_HAL_Driver/Src/stm32h7xx_ll_usb.c ****     }
 605:Drivers/STM32H7xx_HAL_Driver/Src/stm32h7xx_ll_usb.c ****   }
 606:Drivers/STM32H7xx_HAL_Driver/Src/stm32h7xx_ll_usb.c ****   return HAL_OK;
 607:Drivers/STM32H7xx_HAL_Driver/Src/stm32h7xx_ll_usb.c **** }
 608:Drivers/STM32H7xx_HAL_Driver/Src/stm32h7xx_ll_usb.c **** 
 609:Drivers/STM32H7xx_HAL_Driver/Src/stm32h7xx_ll_usb.c **** /**
 610:Drivers/STM32H7xx_HAL_Driver/Src/stm32h7xx_ll_usb.c ****   * @brief  Activate and configure a dedicated endpoint
 611:Drivers/STM32H7xx_HAL_Driver/Src/stm32h7xx_ll_usb.c ****   * @param  USBx  Selected device
 612:Drivers/STM32H7xx_HAL_Driver/Src/stm32h7xx_ll_usb.c ****   * @param  ep pointer to endpoint structure
 613:Drivers/STM32H7xx_HAL_Driver/Src/stm32h7xx_ll_usb.c ****   * @retval HAL status
 614:Drivers/STM32H7xx_HAL_Driver/Src/stm32h7xx_ll_usb.c ****   */
 615:Drivers/STM32H7xx_HAL_Driver/Src/stm32h7xx_ll_usb.c **** HAL_StatusTypeDef USB_ActivateDedicatedEndpoint(const USB_OTG_GlobalTypeDef *USBx, const USB_OTG_EP
 616:Drivers/STM32H7xx_HAL_Driver/Src/stm32h7xx_ll_usb.c **** {
 617:Drivers/STM32H7xx_HAL_Driver/Src/stm32h7xx_ll_usb.c ****   uint32_t USBx_BASE = (uint32_t)USBx;
 618:Drivers/STM32H7xx_HAL_Driver/Src/stm32h7xx_ll_usb.c ****   uint32_t epnum = (uint32_t)ep->num;
 619:Drivers/STM32H7xx_HAL_Driver/Src/stm32h7xx_ll_usb.c **** 
 620:Drivers/STM32H7xx_HAL_Driver/Src/stm32h7xx_ll_usb.c ****   /* Read DEPCTLn register */
 621:Drivers/STM32H7xx_HAL_Driver/Src/stm32h7xx_ll_usb.c ****   if (ep->is_in == 1U)
 622:Drivers/STM32H7xx_HAL_Driver/Src/stm32h7xx_ll_usb.c ****   {
 623:Drivers/STM32H7xx_HAL_Driver/Src/stm32h7xx_ll_usb.c ****     if (((USBx_INEP(epnum)->DIEPCTL) & USB_OTG_DIEPCTL_USBAEP) == 0U)
 624:Drivers/STM32H7xx_HAL_Driver/Src/stm32h7xx_ll_usb.c ****     {
 625:Drivers/STM32H7xx_HAL_Driver/Src/stm32h7xx_ll_usb.c ****       USBx_INEP(epnum)->DIEPCTL |= (ep->maxpacket & USB_OTG_DIEPCTL_MPSIZ) |
 626:Drivers/STM32H7xx_HAL_Driver/Src/stm32h7xx_ll_usb.c ****                                    ((uint32_t)ep->type << 18) | (epnum << 22) |
 627:Drivers/STM32H7xx_HAL_Driver/Src/stm32h7xx_ll_usb.c ****                                    USB_OTG_DIEPCTL_SD0PID_SEVNFRM |
 628:Drivers/STM32H7xx_HAL_Driver/Src/stm32h7xx_ll_usb.c ****                                    USB_OTG_DIEPCTL_USBAEP;
 629:Drivers/STM32H7xx_HAL_Driver/Src/stm32h7xx_ll_usb.c ****     }
 630:Drivers/STM32H7xx_HAL_Driver/Src/stm32h7xx_ll_usb.c **** 
 631:Drivers/STM32H7xx_HAL_Driver/Src/stm32h7xx_ll_usb.c ****     USBx_DEVICE->DEACHMSK |= USB_OTG_DAINTMSK_IEPM & (uint32_t)(1UL << (ep->num & EP_ADDR_MSK));
 632:Drivers/STM32H7xx_HAL_Driver/Src/stm32h7xx_ll_usb.c ****   }
 633:Drivers/STM32H7xx_HAL_Driver/Src/stm32h7xx_ll_usb.c ****   else
 634:Drivers/STM32H7xx_HAL_Driver/Src/stm32h7xx_ll_usb.c ****   {
 635:Drivers/STM32H7xx_HAL_Driver/Src/stm32h7xx_ll_usb.c ****     if (((USBx_OUTEP(epnum)->DOEPCTL) & USB_OTG_DOEPCTL_USBAEP) == 0U)
 636:Drivers/STM32H7xx_HAL_Driver/Src/stm32h7xx_ll_usb.c ****     {
 637:Drivers/STM32H7xx_HAL_Driver/Src/stm32h7xx_ll_usb.c ****       USBx_OUTEP(epnum)->DOEPCTL |= (ep->maxpacket & USB_OTG_DOEPCTL_MPSIZ) |
 638:Drivers/STM32H7xx_HAL_Driver/Src/stm32h7xx_ll_usb.c ****                                     ((uint32_t)ep->type << 18) | (epnum << 22) |
 639:Drivers/STM32H7xx_HAL_Driver/Src/stm32h7xx_ll_usb.c ****                                     USB_OTG_DOEPCTL_USBAEP;
 640:Drivers/STM32H7xx_HAL_Driver/Src/stm32h7xx_ll_usb.c ****     }
 641:Drivers/STM32H7xx_HAL_Driver/Src/stm32h7xx_ll_usb.c **** 
 642:Drivers/STM32H7xx_HAL_Driver/Src/stm32h7xx_ll_usb.c ****     USBx_DEVICE->DEACHMSK |= USB_OTG_DAINTMSK_OEPM & ((uint32_t)(1UL << (ep->num & EP_ADDR_MSK)) <<
 643:Drivers/STM32H7xx_HAL_Driver/Src/stm32h7xx_ll_usb.c ****   }
 644:Drivers/STM32H7xx_HAL_Driver/Src/stm32h7xx_ll_usb.c **** 
 645:Drivers/STM32H7xx_HAL_Driver/Src/stm32h7xx_ll_usb.c ****   return HAL_OK;
 646:Drivers/STM32H7xx_HAL_Driver/Src/stm32h7xx_ll_usb.c **** }
 647:Drivers/STM32H7xx_HAL_Driver/Src/stm32h7xx_ll_usb.c **** 
 648:Drivers/STM32H7xx_HAL_Driver/Src/stm32h7xx_ll_usb.c **** /**
 649:Drivers/STM32H7xx_HAL_Driver/Src/stm32h7xx_ll_usb.c ****   * @brief  De-activate and de-initialize an endpoint
 650:Drivers/STM32H7xx_HAL_Driver/Src/stm32h7xx_ll_usb.c ****   * @param  USBx  Selected device
 651:Drivers/STM32H7xx_HAL_Driver/Src/stm32h7xx_ll_usb.c ****   * @param  ep pointer to endpoint structure
 652:Drivers/STM32H7xx_HAL_Driver/Src/stm32h7xx_ll_usb.c ****   * @retval HAL status
 653:Drivers/STM32H7xx_HAL_Driver/Src/stm32h7xx_ll_usb.c ****   */
 654:Drivers/STM32H7xx_HAL_Driver/Src/stm32h7xx_ll_usb.c **** HAL_StatusTypeDef USB_DeactivateEndpoint(const USB_OTG_GlobalTypeDef *USBx, const USB_OTG_EPTypeDef
 655:Drivers/STM32H7xx_HAL_Driver/Src/stm32h7xx_ll_usb.c **** {
 656:Drivers/STM32H7xx_HAL_Driver/Src/stm32h7xx_ll_usb.c ****   uint32_t USBx_BASE = (uint32_t)USBx;
 657:Drivers/STM32H7xx_HAL_Driver/Src/stm32h7xx_ll_usb.c ****   uint32_t epnum = (uint32_t)ep->num;
 658:Drivers/STM32H7xx_HAL_Driver/Src/stm32h7xx_ll_usb.c **** 
ARM GAS  C:\Users\PgRick\AppData\Local\Temp\ccFebq6t.s 			page 13


 659:Drivers/STM32H7xx_HAL_Driver/Src/stm32h7xx_ll_usb.c ****   /* Read DEPCTLn register */
 660:Drivers/STM32H7xx_HAL_Driver/Src/stm32h7xx_ll_usb.c ****   if (ep->is_in == 1U)
 661:Drivers/STM32H7xx_HAL_Driver/Src/stm32h7xx_ll_usb.c ****   {
 662:Drivers/STM32H7xx_HAL_Driver/Src/stm32h7xx_ll_usb.c ****     if ((USBx_INEP(epnum)->DIEPCTL & USB_OTG_DIEPCTL_EPENA) == USB_OTG_DIEPCTL_EPENA)
 663:Drivers/STM32H7xx_HAL_Driver/Src/stm32h7xx_ll_usb.c ****     {
 664:Drivers/STM32H7xx_HAL_Driver/Src/stm32h7xx_ll_usb.c ****       USBx_INEP(epnum)->DIEPCTL |= USB_OTG_DIEPCTL_SNAK;
 665:Drivers/STM32H7xx_HAL_Driver/Src/stm32h7xx_ll_usb.c ****       USBx_INEP(epnum)->DIEPCTL |= USB_OTG_DIEPCTL_EPDIS;
 666:Drivers/STM32H7xx_HAL_Driver/Src/stm32h7xx_ll_usb.c ****     }
 667:Drivers/STM32H7xx_HAL_Driver/Src/stm32h7xx_ll_usb.c **** 
 668:Drivers/STM32H7xx_HAL_Driver/Src/stm32h7xx_ll_usb.c ****     USBx_DEVICE->DEACHMSK &= ~(USB_OTG_DAINTMSK_IEPM & (uint32_t)(1UL << (ep->num & EP_ADDR_MSK)));
 669:Drivers/STM32H7xx_HAL_Driver/Src/stm32h7xx_ll_usb.c ****     USBx_DEVICE->DAINTMSK &= ~(USB_OTG_DAINTMSK_IEPM & (uint32_t)(1UL << (ep->num & EP_ADDR_MSK)));
 670:Drivers/STM32H7xx_HAL_Driver/Src/stm32h7xx_ll_usb.c ****     USBx_INEP(epnum)->DIEPCTL &= ~(USB_OTG_DIEPCTL_USBAEP |
 671:Drivers/STM32H7xx_HAL_Driver/Src/stm32h7xx_ll_usb.c ****                                    USB_OTG_DIEPCTL_MPSIZ |
 672:Drivers/STM32H7xx_HAL_Driver/Src/stm32h7xx_ll_usb.c ****                                    USB_OTG_DIEPCTL_TXFNUM |
 673:Drivers/STM32H7xx_HAL_Driver/Src/stm32h7xx_ll_usb.c ****                                    USB_OTG_DIEPCTL_SD0PID_SEVNFRM |
 674:Drivers/STM32H7xx_HAL_Driver/Src/stm32h7xx_ll_usb.c ****                                    USB_OTG_DIEPCTL_EPTYP);
 675:Drivers/STM32H7xx_HAL_Driver/Src/stm32h7xx_ll_usb.c ****   }
 676:Drivers/STM32H7xx_HAL_Driver/Src/stm32h7xx_ll_usb.c ****   else
 677:Drivers/STM32H7xx_HAL_Driver/Src/stm32h7xx_ll_usb.c ****   {
 678:Drivers/STM32H7xx_HAL_Driver/Src/stm32h7xx_ll_usb.c ****     if ((USBx_OUTEP(epnum)->DOEPCTL & USB_OTG_DOEPCTL_EPENA) == USB_OTG_DOEPCTL_EPENA)
 679:Drivers/STM32H7xx_HAL_Driver/Src/stm32h7xx_ll_usb.c ****     {
 680:Drivers/STM32H7xx_HAL_Driver/Src/stm32h7xx_ll_usb.c ****       USBx_OUTEP(epnum)->DOEPCTL |= USB_OTG_DOEPCTL_SNAK;
 681:Drivers/STM32H7xx_HAL_Driver/Src/stm32h7xx_ll_usb.c ****       USBx_OUTEP(epnum)->DOEPCTL |= USB_OTG_DOEPCTL_EPDIS;
 682:Drivers/STM32H7xx_HAL_Driver/Src/stm32h7xx_ll_usb.c ****     }
 683:Drivers/STM32H7xx_HAL_Driver/Src/stm32h7xx_ll_usb.c **** 
 684:Drivers/STM32H7xx_HAL_Driver/Src/stm32h7xx_ll_usb.c ****     USBx_DEVICE->DEACHMSK &= ~(USB_OTG_DAINTMSK_OEPM & ((uint32_t)(1UL << (ep->num & EP_ADDR_MSK)) 
 685:Drivers/STM32H7xx_HAL_Driver/Src/stm32h7xx_ll_usb.c ****     USBx_DEVICE->DAINTMSK &= ~(USB_OTG_DAINTMSK_OEPM & ((uint32_t)(1UL << (ep->num & EP_ADDR_MSK)) 
 686:Drivers/STM32H7xx_HAL_Driver/Src/stm32h7xx_ll_usb.c ****     USBx_OUTEP(epnum)->DOEPCTL &= ~(USB_OTG_DOEPCTL_USBAEP |
 687:Drivers/STM32H7xx_HAL_Driver/Src/stm32h7xx_ll_usb.c ****                                     USB_OTG_DOEPCTL_MPSIZ |
 688:Drivers/STM32H7xx_HAL_Driver/Src/stm32h7xx_ll_usb.c ****                                     USB_OTG_DOEPCTL_SD0PID_SEVNFRM |
 689:Drivers/STM32H7xx_HAL_Driver/Src/stm32h7xx_ll_usb.c ****                                     USB_OTG_DOEPCTL_EPTYP);
 690:Drivers/STM32H7xx_HAL_Driver/Src/stm32h7xx_ll_usb.c ****   }
 691:Drivers/STM32H7xx_HAL_Driver/Src/stm32h7xx_ll_usb.c **** 
 692:Drivers/STM32H7xx_HAL_Driver/Src/stm32h7xx_ll_usb.c ****   return HAL_OK;
 693:Drivers/STM32H7xx_HAL_Driver/Src/stm32h7xx_ll_usb.c **** }
 694:Drivers/STM32H7xx_HAL_Driver/Src/stm32h7xx_ll_usb.c **** 
 695:Drivers/STM32H7xx_HAL_Driver/Src/stm32h7xx_ll_usb.c **** /**
 696:Drivers/STM32H7xx_HAL_Driver/Src/stm32h7xx_ll_usb.c ****   * @brief  De-activate and de-initialize a dedicated endpoint
 697:Drivers/STM32H7xx_HAL_Driver/Src/stm32h7xx_ll_usb.c ****   * @param  USBx  Selected device
 698:Drivers/STM32H7xx_HAL_Driver/Src/stm32h7xx_ll_usb.c ****   * @param  ep pointer to endpoint structure
 699:Drivers/STM32H7xx_HAL_Driver/Src/stm32h7xx_ll_usb.c ****   * @retval HAL status
 700:Drivers/STM32H7xx_HAL_Driver/Src/stm32h7xx_ll_usb.c ****   */
 701:Drivers/STM32H7xx_HAL_Driver/Src/stm32h7xx_ll_usb.c **** HAL_StatusTypeDef USB_DeactivateDedicatedEndpoint(const USB_OTG_GlobalTypeDef *USBx, const USB_OTG_
 702:Drivers/STM32H7xx_HAL_Driver/Src/stm32h7xx_ll_usb.c **** {
 703:Drivers/STM32H7xx_HAL_Driver/Src/stm32h7xx_ll_usb.c ****   uint32_t USBx_BASE = (uint32_t)USBx;
 704:Drivers/STM32H7xx_HAL_Driver/Src/stm32h7xx_ll_usb.c ****   uint32_t epnum = (uint32_t)ep->num;
 705:Drivers/STM32H7xx_HAL_Driver/Src/stm32h7xx_ll_usb.c **** 
 706:Drivers/STM32H7xx_HAL_Driver/Src/stm32h7xx_ll_usb.c ****   /* Read DEPCTLn register */
 707:Drivers/STM32H7xx_HAL_Driver/Src/stm32h7xx_ll_usb.c ****   if (ep->is_in == 1U)
 708:Drivers/STM32H7xx_HAL_Driver/Src/stm32h7xx_ll_usb.c ****   {
 709:Drivers/STM32H7xx_HAL_Driver/Src/stm32h7xx_ll_usb.c ****     if ((USBx_INEP(epnum)->DIEPCTL & USB_OTG_DIEPCTL_EPENA) == USB_OTG_DIEPCTL_EPENA)
 710:Drivers/STM32H7xx_HAL_Driver/Src/stm32h7xx_ll_usb.c ****     {
 711:Drivers/STM32H7xx_HAL_Driver/Src/stm32h7xx_ll_usb.c ****       USBx_INEP(epnum)->DIEPCTL  |= USB_OTG_DIEPCTL_SNAK;
 712:Drivers/STM32H7xx_HAL_Driver/Src/stm32h7xx_ll_usb.c ****       USBx_INEP(epnum)->DIEPCTL  |= USB_OTG_DIEPCTL_EPDIS;
 713:Drivers/STM32H7xx_HAL_Driver/Src/stm32h7xx_ll_usb.c ****     }
 714:Drivers/STM32H7xx_HAL_Driver/Src/stm32h7xx_ll_usb.c **** 
 715:Drivers/STM32H7xx_HAL_Driver/Src/stm32h7xx_ll_usb.c ****     USBx_INEP(epnum)->DIEPCTL &= ~ USB_OTG_DIEPCTL_USBAEP;
ARM GAS  C:\Users\PgRick\AppData\Local\Temp\ccFebq6t.s 			page 14


 716:Drivers/STM32H7xx_HAL_Driver/Src/stm32h7xx_ll_usb.c ****     USBx_DEVICE->DAINTMSK &= ~(USB_OTG_DAINTMSK_IEPM & (uint32_t)(1UL << (ep->num & EP_ADDR_MSK)));
 717:Drivers/STM32H7xx_HAL_Driver/Src/stm32h7xx_ll_usb.c ****   }
 718:Drivers/STM32H7xx_HAL_Driver/Src/stm32h7xx_ll_usb.c ****   else
 719:Drivers/STM32H7xx_HAL_Driver/Src/stm32h7xx_ll_usb.c ****   {
 720:Drivers/STM32H7xx_HAL_Driver/Src/stm32h7xx_ll_usb.c ****     if ((USBx_OUTEP(epnum)->DOEPCTL & USB_OTG_DOEPCTL_EPENA) == USB_OTG_DOEPCTL_EPENA)
 721:Drivers/STM32H7xx_HAL_Driver/Src/stm32h7xx_ll_usb.c ****     {
 722:Drivers/STM32H7xx_HAL_Driver/Src/stm32h7xx_ll_usb.c ****       USBx_OUTEP(epnum)->DOEPCTL  |= USB_OTG_DOEPCTL_SNAK;
 723:Drivers/STM32H7xx_HAL_Driver/Src/stm32h7xx_ll_usb.c ****       USBx_OUTEP(epnum)->DOEPCTL  |= USB_OTG_DOEPCTL_EPDIS;
 724:Drivers/STM32H7xx_HAL_Driver/Src/stm32h7xx_ll_usb.c ****     }
 725:Drivers/STM32H7xx_HAL_Driver/Src/stm32h7xx_ll_usb.c **** 
 726:Drivers/STM32H7xx_HAL_Driver/Src/stm32h7xx_ll_usb.c ****     USBx_OUTEP(epnum)->DOEPCTL &= ~USB_OTG_DOEPCTL_USBAEP;
 727:Drivers/STM32H7xx_HAL_Driver/Src/stm32h7xx_ll_usb.c ****     USBx_DEVICE->DAINTMSK &= ~(USB_OTG_DAINTMSK_OEPM & ((uint32_t)(1UL << (ep->num & EP_ADDR_MSK)) 
 728:Drivers/STM32H7xx_HAL_Driver/Src/stm32h7xx_ll_usb.c ****   }
 729:Drivers/STM32H7xx_HAL_Driver/Src/stm32h7xx_ll_usb.c **** 
 730:Drivers/STM32H7xx_HAL_Driver/Src/stm32h7xx_ll_usb.c ****   return HAL_OK;
 731:Drivers/STM32H7xx_HAL_Driver/Src/stm32h7xx_ll_usb.c **** }
 732:Drivers/STM32H7xx_HAL_Driver/Src/stm32h7xx_ll_usb.c **** 
 733:Drivers/STM32H7xx_HAL_Driver/Src/stm32h7xx_ll_usb.c **** /**
 734:Drivers/STM32H7xx_HAL_Driver/Src/stm32h7xx_ll_usb.c ****   * @brief  USB_EPStartXfer : setup and starts a transfer over an EP
 735:Drivers/STM32H7xx_HAL_Driver/Src/stm32h7xx_ll_usb.c ****   * @param  USBx  Selected device
 736:Drivers/STM32H7xx_HAL_Driver/Src/stm32h7xx_ll_usb.c ****   * @param  ep pointer to endpoint structure
 737:Drivers/STM32H7xx_HAL_Driver/Src/stm32h7xx_ll_usb.c ****   * @param  dma USB dma enabled or disabled
 738:Drivers/STM32H7xx_HAL_Driver/Src/stm32h7xx_ll_usb.c ****   *          This parameter can be one of these values:
 739:Drivers/STM32H7xx_HAL_Driver/Src/stm32h7xx_ll_usb.c ****   *           0 : DMA feature not used
 740:Drivers/STM32H7xx_HAL_Driver/Src/stm32h7xx_ll_usb.c ****   *           1 : DMA feature used
 741:Drivers/STM32H7xx_HAL_Driver/Src/stm32h7xx_ll_usb.c ****   * @retval HAL status
 742:Drivers/STM32H7xx_HAL_Driver/Src/stm32h7xx_ll_usb.c ****   */
 743:Drivers/STM32H7xx_HAL_Driver/Src/stm32h7xx_ll_usb.c **** HAL_StatusTypeDef USB_EPStartXfer(USB_OTG_GlobalTypeDef *USBx, USB_OTG_EPTypeDef *ep, uint8_t dma)
 744:Drivers/STM32H7xx_HAL_Driver/Src/stm32h7xx_ll_usb.c **** {
 745:Drivers/STM32H7xx_HAL_Driver/Src/stm32h7xx_ll_usb.c ****   uint32_t USBx_BASE = (uint32_t)USBx;
 746:Drivers/STM32H7xx_HAL_Driver/Src/stm32h7xx_ll_usb.c ****   uint32_t epnum = (uint32_t)ep->num;
 747:Drivers/STM32H7xx_HAL_Driver/Src/stm32h7xx_ll_usb.c ****   uint16_t pktcnt;
 748:Drivers/STM32H7xx_HAL_Driver/Src/stm32h7xx_ll_usb.c **** 
 749:Drivers/STM32H7xx_HAL_Driver/Src/stm32h7xx_ll_usb.c ****   /* IN endpoint */
 750:Drivers/STM32H7xx_HAL_Driver/Src/stm32h7xx_ll_usb.c ****   if (ep->is_in == 1U)
 751:Drivers/STM32H7xx_HAL_Driver/Src/stm32h7xx_ll_usb.c ****   {
 752:Drivers/STM32H7xx_HAL_Driver/Src/stm32h7xx_ll_usb.c ****     /* Zero Length Packet? */
 753:Drivers/STM32H7xx_HAL_Driver/Src/stm32h7xx_ll_usb.c ****     if (ep->xfer_len == 0U)
 754:Drivers/STM32H7xx_HAL_Driver/Src/stm32h7xx_ll_usb.c ****     {
 755:Drivers/STM32H7xx_HAL_Driver/Src/stm32h7xx_ll_usb.c ****       USBx_INEP(epnum)->DIEPTSIZ &= ~(USB_OTG_DIEPTSIZ_PKTCNT);
 756:Drivers/STM32H7xx_HAL_Driver/Src/stm32h7xx_ll_usb.c ****       USBx_INEP(epnum)->DIEPTSIZ |= (USB_OTG_DIEPTSIZ_PKTCNT & (1U << 19));
 757:Drivers/STM32H7xx_HAL_Driver/Src/stm32h7xx_ll_usb.c ****       USBx_INEP(epnum)->DIEPTSIZ &= ~(USB_OTG_DIEPTSIZ_XFRSIZ);
 758:Drivers/STM32H7xx_HAL_Driver/Src/stm32h7xx_ll_usb.c ****     }
 759:Drivers/STM32H7xx_HAL_Driver/Src/stm32h7xx_ll_usb.c ****     else
 760:Drivers/STM32H7xx_HAL_Driver/Src/stm32h7xx_ll_usb.c ****     {
 761:Drivers/STM32H7xx_HAL_Driver/Src/stm32h7xx_ll_usb.c ****       /* Program the transfer size and packet count
 762:Drivers/STM32H7xx_HAL_Driver/Src/stm32h7xx_ll_usb.c ****       * as follows: xfersize = N * maxpacket +
 763:Drivers/STM32H7xx_HAL_Driver/Src/stm32h7xx_ll_usb.c ****       * short_packet pktcnt = N + (short_packet
 764:Drivers/STM32H7xx_HAL_Driver/Src/stm32h7xx_ll_usb.c ****       * exist ? 1 : 0)
 765:Drivers/STM32H7xx_HAL_Driver/Src/stm32h7xx_ll_usb.c ****       */
 766:Drivers/STM32H7xx_HAL_Driver/Src/stm32h7xx_ll_usb.c ****       USBx_INEP(epnum)->DIEPTSIZ &= ~(USB_OTG_DIEPTSIZ_XFRSIZ);
 767:Drivers/STM32H7xx_HAL_Driver/Src/stm32h7xx_ll_usb.c ****       USBx_INEP(epnum)->DIEPTSIZ &= ~(USB_OTG_DIEPTSIZ_PKTCNT);
 768:Drivers/STM32H7xx_HAL_Driver/Src/stm32h7xx_ll_usb.c **** 
 769:Drivers/STM32H7xx_HAL_Driver/Src/stm32h7xx_ll_usb.c ****       if (epnum == 0U)
 770:Drivers/STM32H7xx_HAL_Driver/Src/stm32h7xx_ll_usb.c ****       {
 771:Drivers/STM32H7xx_HAL_Driver/Src/stm32h7xx_ll_usb.c ****         if (ep->xfer_len > ep->maxpacket)
 772:Drivers/STM32H7xx_HAL_Driver/Src/stm32h7xx_ll_usb.c ****         {
ARM GAS  C:\Users\PgRick\AppData\Local\Temp\ccFebq6t.s 			page 15


 773:Drivers/STM32H7xx_HAL_Driver/Src/stm32h7xx_ll_usb.c ****           ep->xfer_len = ep->maxpacket;
 774:Drivers/STM32H7xx_HAL_Driver/Src/stm32h7xx_ll_usb.c ****         }
 775:Drivers/STM32H7xx_HAL_Driver/Src/stm32h7xx_ll_usb.c **** 
 776:Drivers/STM32H7xx_HAL_Driver/Src/stm32h7xx_ll_usb.c ****         USBx_INEP(epnum)->DIEPTSIZ |= (USB_OTG_DIEPTSIZ_PKTCNT & (1U << 19));
 777:Drivers/STM32H7xx_HAL_Driver/Src/stm32h7xx_ll_usb.c ****       }
 778:Drivers/STM32H7xx_HAL_Driver/Src/stm32h7xx_ll_usb.c ****       else
 779:Drivers/STM32H7xx_HAL_Driver/Src/stm32h7xx_ll_usb.c ****       {
 780:Drivers/STM32H7xx_HAL_Driver/Src/stm32h7xx_ll_usb.c ****         USBx_INEP(epnum)->DIEPTSIZ |= (USB_OTG_DIEPTSIZ_PKTCNT &
 781:Drivers/STM32H7xx_HAL_Driver/Src/stm32h7xx_ll_usb.c ****                                        (((ep->xfer_len + ep->maxpacket - 1U) / ep->maxpacket) << 19
 782:Drivers/STM32H7xx_HAL_Driver/Src/stm32h7xx_ll_usb.c ****       }
 783:Drivers/STM32H7xx_HAL_Driver/Src/stm32h7xx_ll_usb.c **** 
 784:Drivers/STM32H7xx_HAL_Driver/Src/stm32h7xx_ll_usb.c ****       USBx_INEP(epnum)->DIEPTSIZ |= (USB_OTG_DIEPTSIZ_XFRSIZ & ep->xfer_len);
 785:Drivers/STM32H7xx_HAL_Driver/Src/stm32h7xx_ll_usb.c **** 
 786:Drivers/STM32H7xx_HAL_Driver/Src/stm32h7xx_ll_usb.c ****       if (ep->type == EP_TYPE_ISOC)
 787:Drivers/STM32H7xx_HAL_Driver/Src/stm32h7xx_ll_usb.c ****       {
 788:Drivers/STM32H7xx_HAL_Driver/Src/stm32h7xx_ll_usb.c ****         USBx_INEP(epnum)->DIEPTSIZ &= ~(USB_OTG_DIEPTSIZ_MULCNT);
 789:Drivers/STM32H7xx_HAL_Driver/Src/stm32h7xx_ll_usb.c ****         USBx_INEP(epnum)->DIEPTSIZ |= (USB_OTG_DIEPTSIZ_MULCNT & (1U << 29));
 790:Drivers/STM32H7xx_HAL_Driver/Src/stm32h7xx_ll_usb.c ****       }
 791:Drivers/STM32H7xx_HAL_Driver/Src/stm32h7xx_ll_usb.c ****     }
 792:Drivers/STM32H7xx_HAL_Driver/Src/stm32h7xx_ll_usb.c **** 
 793:Drivers/STM32H7xx_HAL_Driver/Src/stm32h7xx_ll_usb.c ****     if (dma == 1U)
 794:Drivers/STM32H7xx_HAL_Driver/Src/stm32h7xx_ll_usb.c ****     {
 795:Drivers/STM32H7xx_HAL_Driver/Src/stm32h7xx_ll_usb.c ****       if ((uint32_t)ep->dma_addr != 0U)
 796:Drivers/STM32H7xx_HAL_Driver/Src/stm32h7xx_ll_usb.c ****       {
 797:Drivers/STM32H7xx_HAL_Driver/Src/stm32h7xx_ll_usb.c ****         USBx_INEP(epnum)->DIEPDMA = (uint32_t)(ep->dma_addr);
 798:Drivers/STM32H7xx_HAL_Driver/Src/stm32h7xx_ll_usb.c ****       }
 799:Drivers/STM32H7xx_HAL_Driver/Src/stm32h7xx_ll_usb.c **** 
 800:Drivers/STM32H7xx_HAL_Driver/Src/stm32h7xx_ll_usb.c ****       if (ep->type == EP_TYPE_ISOC)
 801:Drivers/STM32H7xx_HAL_Driver/Src/stm32h7xx_ll_usb.c ****       {
 802:Drivers/STM32H7xx_HAL_Driver/Src/stm32h7xx_ll_usb.c ****         if ((USBx_DEVICE->DSTS & (1U << 8)) == 0U)
 803:Drivers/STM32H7xx_HAL_Driver/Src/stm32h7xx_ll_usb.c ****         {
 804:Drivers/STM32H7xx_HAL_Driver/Src/stm32h7xx_ll_usb.c ****           USBx_INEP(epnum)->DIEPCTL |= USB_OTG_DIEPCTL_SODDFRM;
 805:Drivers/STM32H7xx_HAL_Driver/Src/stm32h7xx_ll_usb.c ****         }
 806:Drivers/STM32H7xx_HAL_Driver/Src/stm32h7xx_ll_usb.c ****         else
 807:Drivers/STM32H7xx_HAL_Driver/Src/stm32h7xx_ll_usb.c ****         {
 808:Drivers/STM32H7xx_HAL_Driver/Src/stm32h7xx_ll_usb.c ****           USBx_INEP(epnum)->DIEPCTL |= USB_OTG_DIEPCTL_SD0PID_SEVNFRM;
 809:Drivers/STM32H7xx_HAL_Driver/Src/stm32h7xx_ll_usb.c ****         }
 810:Drivers/STM32H7xx_HAL_Driver/Src/stm32h7xx_ll_usb.c ****       }
 811:Drivers/STM32H7xx_HAL_Driver/Src/stm32h7xx_ll_usb.c **** 
 812:Drivers/STM32H7xx_HAL_Driver/Src/stm32h7xx_ll_usb.c ****       /* EP enable, IN data in FIFO */
 813:Drivers/STM32H7xx_HAL_Driver/Src/stm32h7xx_ll_usb.c ****       USBx_INEP(epnum)->DIEPCTL |= (USB_OTG_DIEPCTL_CNAK | USB_OTG_DIEPCTL_EPENA);
 814:Drivers/STM32H7xx_HAL_Driver/Src/stm32h7xx_ll_usb.c ****     }
 815:Drivers/STM32H7xx_HAL_Driver/Src/stm32h7xx_ll_usb.c ****     else
 816:Drivers/STM32H7xx_HAL_Driver/Src/stm32h7xx_ll_usb.c ****     {
 817:Drivers/STM32H7xx_HAL_Driver/Src/stm32h7xx_ll_usb.c ****       /* EP enable, IN data in FIFO */
 818:Drivers/STM32H7xx_HAL_Driver/Src/stm32h7xx_ll_usb.c ****       USBx_INEP(epnum)->DIEPCTL |= (USB_OTG_DIEPCTL_CNAK | USB_OTG_DIEPCTL_EPENA);
 819:Drivers/STM32H7xx_HAL_Driver/Src/stm32h7xx_ll_usb.c **** 
 820:Drivers/STM32H7xx_HAL_Driver/Src/stm32h7xx_ll_usb.c ****       if (ep->type != EP_TYPE_ISOC)
 821:Drivers/STM32H7xx_HAL_Driver/Src/stm32h7xx_ll_usb.c ****       {
 822:Drivers/STM32H7xx_HAL_Driver/Src/stm32h7xx_ll_usb.c ****         /* Enable the Tx FIFO Empty Interrupt for this EP */
 823:Drivers/STM32H7xx_HAL_Driver/Src/stm32h7xx_ll_usb.c ****         if (ep->xfer_len > 0U)
 824:Drivers/STM32H7xx_HAL_Driver/Src/stm32h7xx_ll_usb.c ****         {
 825:Drivers/STM32H7xx_HAL_Driver/Src/stm32h7xx_ll_usb.c ****           USBx_DEVICE->DIEPEMPMSK |= 1UL << (ep->num & EP_ADDR_MSK);
 826:Drivers/STM32H7xx_HAL_Driver/Src/stm32h7xx_ll_usb.c ****         }
 827:Drivers/STM32H7xx_HAL_Driver/Src/stm32h7xx_ll_usb.c ****       }
 828:Drivers/STM32H7xx_HAL_Driver/Src/stm32h7xx_ll_usb.c ****       else
 829:Drivers/STM32H7xx_HAL_Driver/Src/stm32h7xx_ll_usb.c ****       {
ARM GAS  C:\Users\PgRick\AppData\Local\Temp\ccFebq6t.s 			page 16


 830:Drivers/STM32H7xx_HAL_Driver/Src/stm32h7xx_ll_usb.c ****         if ((USBx_DEVICE->DSTS & (1U << 8)) == 0U)
 831:Drivers/STM32H7xx_HAL_Driver/Src/stm32h7xx_ll_usb.c ****         {
 832:Drivers/STM32H7xx_HAL_Driver/Src/stm32h7xx_ll_usb.c ****           USBx_INEP(epnum)->DIEPCTL |= USB_OTG_DIEPCTL_SODDFRM;
 833:Drivers/STM32H7xx_HAL_Driver/Src/stm32h7xx_ll_usb.c ****         }
 834:Drivers/STM32H7xx_HAL_Driver/Src/stm32h7xx_ll_usb.c ****         else
 835:Drivers/STM32H7xx_HAL_Driver/Src/stm32h7xx_ll_usb.c ****         {
 836:Drivers/STM32H7xx_HAL_Driver/Src/stm32h7xx_ll_usb.c ****           USBx_INEP(epnum)->DIEPCTL |= USB_OTG_DIEPCTL_SD0PID_SEVNFRM;
 837:Drivers/STM32H7xx_HAL_Driver/Src/stm32h7xx_ll_usb.c ****         }
 838:Drivers/STM32H7xx_HAL_Driver/Src/stm32h7xx_ll_usb.c **** 
 839:Drivers/STM32H7xx_HAL_Driver/Src/stm32h7xx_ll_usb.c ****         (void)USB_WritePacket(USBx, ep->xfer_buff, ep->num, (uint16_t)ep->xfer_len, dma);
 840:Drivers/STM32H7xx_HAL_Driver/Src/stm32h7xx_ll_usb.c ****       }
 841:Drivers/STM32H7xx_HAL_Driver/Src/stm32h7xx_ll_usb.c ****     }
 842:Drivers/STM32H7xx_HAL_Driver/Src/stm32h7xx_ll_usb.c ****   }
 843:Drivers/STM32H7xx_HAL_Driver/Src/stm32h7xx_ll_usb.c ****   else /* OUT endpoint */
 844:Drivers/STM32H7xx_HAL_Driver/Src/stm32h7xx_ll_usb.c ****   {
 845:Drivers/STM32H7xx_HAL_Driver/Src/stm32h7xx_ll_usb.c ****     /* Program the transfer size and packet count as follows:
 846:Drivers/STM32H7xx_HAL_Driver/Src/stm32h7xx_ll_usb.c ****     * pktcnt = N
 847:Drivers/STM32H7xx_HAL_Driver/Src/stm32h7xx_ll_usb.c ****     * xfersize = N * maxpacket
 848:Drivers/STM32H7xx_HAL_Driver/Src/stm32h7xx_ll_usb.c ****     */
 849:Drivers/STM32H7xx_HAL_Driver/Src/stm32h7xx_ll_usb.c ****     USBx_OUTEP(epnum)->DOEPTSIZ &= ~(USB_OTG_DOEPTSIZ_XFRSIZ);
 850:Drivers/STM32H7xx_HAL_Driver/Src/stm32h7xx_ll_usb.c ****     USBx_OUTEP(epnum)->DOEPTSIZ &= ~(USB_OTG_DOEPTSIZ_PKTCNT);
 851:Drivers/STM32H7xx_HAL_Driver/Src/stm32h7xx_ll_usb.c **** 
 852:Drivers/STM32H7xx_HAL_Driver/Src/stm32h7xx_ll_usb.c ****     if (epnum == 0U)
 853:Drivers/STM32H7xx_HAL_Driver/Src/stm32h7xx_ll_usb.c ****     {
 854:Drivers/STM32H7xx_HAL_Driver/Src/stm32h7xx_ll_usb.c ****       if (ep->xfer_len > 0U)
 855:Drivers/STM32H7xx_HAL_Driver/Src/stm32h7xx_ll_usb.c ****       {
 856:Drivers/STM32H7xx_HAL_Driver/Src/stm32h7xx_ll_usb.c ****         ep->xfer_len = ep->maxpacket;
 857:Drivers/STM32H7xx_HAL_Driver/Src/stm32h7xx_ll_usb.c ****       }
 858:Drivers/STM32H7xx_HAL_Driver/Src/stm32h7xx_ll_usb.c **** 
 859:Drivers/STM32H7xx_HAL_Driver/Src/stm32h7xx_ll_usb.c ****       /* Store transfer size, for EP0 this is equal to endpoint max packet size */
 860:Drivers/STM32H7xx_HAL_Driver/Src/stm32h7xx_ll_usb.c ****       ep->xfer_size = ep->maxpacket;
 861:Drivers/STM32H7xx_HAL_Driver/Src/stm32h7xx_ll_usb.c **** 
 862:Drivers/STM32H7xx_HAL_Driver/Src/stm32h7xx_ll_usb.c ****       USBx_OUTEP(epnum)->DOEPTSIZ |= (USB_OTG_DOEPTSIZ_XFRSIZ & ep->xfer_size);
 863:Drivers/STM32H7xx_HAL_Driver/Src/stm32h7xx_ll_usb.c ****       USBx_OUTEP(epnum)->DOEPTSIZ |= (USB_OTG_DOEPTSIZ_PKTCNT & (1U << 19));
 864:Drivers/STM32H7xx_HAL_Driver/Src/stm32h7xx_ll_usb.c ****     }
 865:Drivers/STM32H7xx_HAL_Driver/Src/stm32h7xx_ll_usb.c ****     else
 866:Drivers/STM32H7xx_HAL_Driver/Src/stm32h7xx_ll_usb.c ****     {
 867:Drivers/STM32H7xx_HAL_Driver/Src/stm32h7xx_ll_usb.c ****       if (ep->xfer_len == 0U)
 868:Drivers/STM32H7xx_HAL_Driver/Src/stm32h7xx_ll_usb.c ****       {
 869:Drivers/STM32H7xx_HAL_Driver/Src/stm32h7xx_ll_usb.c ****         USBx_OUTEP(epnum)->DOEPTSIZ |= (USB_OTG_DOEPTSIZ_XFRSIZ & ep->maxpacket);
 870:Drivers/STM32H7xx_HAL_Driver/Src/stm32h7xx_ll_usb.c ****         USBx_OUTEP(epnum)->DOEPTSIZ |= (USB_OTG_DOEPTSIZ_PKTCNT & (1U << 19));
 871:Drivers/STM32H7xx_HAL_Driver/Src/stm32h7xx_ll_usb.c ****       }
 872:Drivers/STM32H7xx_HAL_Driver/Src/stm32h7xx_ll_usb.c ****       else
 873:Drivers/STM32H7xx_HAL_Driver/Src/stm32h7xx_ll_usb.c ****       {
 874:Drivers/STM32H7xx_HAL_Driver/Src/stm32h7xx_ll_usb.c ****         pktcnt = (uint16_t)((ep->xfer_len + ep->maxpacket - 1U) / ep->maxpacket);
 875:Drivers/STM32H7xx_HAL_Driver/Src/stm32h7xx_ll_usb.c ****         ep->xfer_size = ep->maxpacket * pktcnt;
 876:Drivers/STM32H7xx_HAL_Driver/Src/stm32h7xx_ll_usb.c **** 
 877:Drivers/STM32H7xx_HAL_Driver/Src/stm32h7xx_ll_usb.c ****         USBx_OUTEP(epnum)->DOEPTSIZ |= USB_OTG_DOEPTSIZ_PKTCNT & ((uint32_t)pktcnt << 19);
 878:Drivers/STM32H7xx_HAL_Driver/Src/stm32h7xx_ll_usb.c ****         USBx_OUTEP(epnum)->DOEPTSIZ |= USB_OTG_DOEPTSIZ_XFRSIZ & ep->xfer_size;
 879:Drivers/STM32H7xx_HAL_Driver/Src/stm32h7xx_ll_usb.c ****       }
 880:Drivers/STM32H7xx_HAL_Driver/Src/stm32h7xx_ll_usb.c ****     }
 881:Drivers/STM32H7xx_HAL_Driver/Src/stm32h7xx_ll_usb.c **** 
 882:Drivers/STM32H7xx_HAL_Driver/Src/stm32h7xx_ll_usb.c ****     if (dma == 1U)
 883:Drivers/STM32H7xx_HAL_Driver/Src/stm32h7xx_ll_usb.c ****     {
 884:Drivers/STM32H7xx_HAL_Driver/Src/stm32h7xx_ll_usb.c ****       if ((uint32_t)ep->xfer_buff != 0U)
 885:Drivers/STM32H7xx_HAL_Driver/Src/stm32h7xx_ll_usb.c ****       {
 886:Drivers/STM32H7xx_HAL_Driver/Src/stm32h7xx_ll_usb.c ****         USBx_OUTEP(epnum)->DOEPDMA = (uint32_t)(ep->xfer_buff);
ARM GAS  C:\Users\PgRick\AppData\Local\Temp\ccFebq6t.s 			page 17


 887:Drivers/STM32H7xx_HAL_Driver/Src/stm32h7xx_ll_usb.c ****       }
 888:Drivers/STM32H7xx_HAL_Driver/Src/stm32h7xx_ll_usb.c ****     }
 889:Drivers/STM32H7xx_HAL_Driver/Src/stm32h7xx_ll_usb.c **** 
 890:Drivers/STM32H7xx_HAL_Driver/Src/stm32h7xx_ll_usb.c ****     if (ep->type == EP_TYPE_ISOC)
 891:Drivers/STM32H7xx_HAL_Driver/Src/stm32h7xx_ll_usb.c ****     {
 892:Drivers/STM32H7xx_HAL_Driver/Src/stm32h7xx_ll_usb.c ****       if ((USBx_DEVICE->DSTS & (1U << 8)) == 0U)
 893:Drivers/STM32H7xx_HAL_Driver/Src/stm32h7xx_ll_usb.c ****       {
 894:Drivers/STM32H7xx_HAL_Driver/Src/stm32h7xx_ll_usb.c ****         USBx_OUTEP(epnum)->DOEPCTL |= USB_OTG_DOEPCTL_SODDFRM;
 895:Drivers/STM32H7xx_HAL_Driver/Src/stm32h7xx_ll_usb.c ****       }
 896:Drivers/STM32H7xx_HAL_Driver/Src/stm32h7xx_ll_usb.c ****       else
 897:Drivers/STM32H7xx_HAL_Driver/Src/stm32h7xx_ll_usb.c ****       {
 898:Drivers/STM32H7xx_HAL_Driver/Src/stm32h7xx_ll_usb.c ****         USBx_OUTEP(epnum)->DOEPCTL |= USB_OTG_DOEPCTL_SD0PID_SEVNFRM;
 899:Drivers/STM32H7xx_HAL_Driver/Src/stm32h7xx_ll_usb.c ****       }
 900:Drivers/STM32H7xx_HAL_Driver/Src/stm32h7xx_ll_usb.c ****     }
 901:Drivers/STM32H7xx_HAL_Driver/Src/stm32h7xx_ll_usb.c ****     /* EP enable */
 902:Drivers/STM32H7xx_HAL_Driver/Src/stm32h7xx_ll_usb.c ****     USBx_OUTEP(epnum)->DOEPCTL |= (USB_OTG_DOEPCTL_CNAK | USB_OTG_DOEPCTL_EPENA);
 903:Drivers/STM32H7xx_HAL_Driver/Src/stm32h7xx_ll_usb.c ****   }
 904:Drivers/STM32H7xx_HAL_Driver/Src/stm32h7xx_ll_usb.c **** 
 905:Drivers/STM32H7xx_HAL_Driver/Src/stm32h7xx_ll_usb.c ****   return HAL_OK;
 906:Drivers/STM32H7xx_HAL_Driver/Src/stm32h7xx_ll_usb.c **** }
 907:Drivers/STM32H7xx_HAL_Driver/Src/stm32h7xx_ll_usb.c **** 
 908:Drivers/STM32H7xx_HAL_Driver/Src/stm32h7xx_ll_usb.c **** 
 909:Drivers/STM32H7xx_HAL_Driver/Src/stm32h7xx_ll_usb.c **** /**
 910:Drivers/STM32H7xx_HAL_Driver/Src/stm32h7xx_ll_usb.c ****    * @brief  USB_EPStoptXfer  Stop transfer on an EP
 911:Drivers/STM32H7xx_HAL_Driver/Src/stm32h7xx_ll_usb.c ****    * @param  USBx  usb device instance
 912:Drivers/STM32H7xx_HAL_Driver/Src/stm32h7xx_ll_usb.c ****    * @param  ep pointer to endpoint structure
 913:Drivers/STM32H7xx_HAL_Driver/Src/stm32h7xx_ll_usb.c ****    * @retval HAL status
 914:Drivers/STM32H7xx_HAL_Driver/Src/stm32h7xx_ll_usb.c ****    */
 915:Drivers/STM32H7xx_HAL_Driver/Src/stm32h7xx_ll_usb.c **** HAL_StatusTypeDef USB_EPStopXfer(const USB_OTG_GlobalTypeDef *USBx, USB_OTG_EPTypeDef *ep)
 916:Drivers/STM32H7xx_HAL_Driver/Src/stm32h7xx_ll_usb.c **** {
 917:Drivers/STM32H7xx_HAL_Driver/Src/stm32h7xx_ll_usb.c ****   __IO uint32_t count = 0U;
 918:Drivers/STM32H7xx_HAL_Driver/Src/stm32h7xx_ll_usb.c ****   HAL_StatusTypeDef ret = HAL_OK;
 919:Drivers/STM32H7xx_HAL_Driver/Src/stm32h7xx_ll_usb.c ****   uint32_t USBx_BASE = (uint32_t)USBx;
 920:Drivers/STM32H7xx_HAL_Driver/Src/stm32h7xx_ll_usb.c **** 
 921:Drivers/STM32H7xx_HAL_Driver/Src/stm32h7xx_ll_usb.c ****   /* IN endpoint */
 922:Drivers/STM32H7xx_HAL_Driver/Src/stm32h7xx_ll_usb.c ****   if (ep->is_in == 1U)
 923:Drivers/STM32H7xx_HAL_Driver/Src/stm32h7xx_ll_usb.c ****   {
 924:Drivers/STM32H7xx_HAL_Driver/Src/stm32h7xx_ll_usb.c ****     /* EP enable, IN data in FIFO */
 925:Drivers/STM32H7xx_HAL_Driver/Src/stm32h7xx_ll_usb.c ****     if (((USBx_INEP(ep->num)->DIEPCTL) & USB_OTG_DIEPCTL_EPENA) == USB_OTG_DIEPCTL_EPENA)
 926:Drivers/STM32H7xx_HAL_Driver/Src/stm32h7xx_ll_usb.c ****     {
 927:Drivers/STM32H7xx_HAL_Driver/Src/stm32h7xx_ll_usb.c ****       USBx_INEP(ep->num)->DIEPCTL |= (USB_OTG_DIEPCTL_SNAK);
 928:Drivers/STM32H7xx_HAL_Driver/Src/stm32h7xx_ll_usb.c ****       USBx_INEP(ep->num)->DIEPCTL |= (USB_OTG_DIEPCTL_EPDIS);
 929:Drivers/STM32H7xx_HAL_Driver/Src/stm32h7xx_ll_usb.c **** 
 930:Drivers/STM32H7xx_HAL_Driver/Src/stm32h7xx_ll_usb.c ****       do
 931:Drivers/STM32H7xx_HAL_Driver/Src/stm32h7xx_ll_usb.c ****       {
 932:Drivers/STM32H7xx_HAL_Driver/Src/stm32h7xx_ll_usb.c ****         count++;
 933:Drivers/STM32H7xx_HAL_Driver/Src/stm32h7xx_ll_usb.c **** 
 934:Drivers/STM32H7xx_HAL_Driver/Src/stm32h7xx_ll_usb.c ****         if (count > 10000U)
 935:Drivers/STM32H7xx_HAL_Driver/Src/stm32h7xx_ll_usb.c ****         {
 936:Drivers/STM32H7xx_HAL_Driver/Src/stm32h7xx_ll_usb.c ****           ret = HAL_ERROR;
 937:Drivers/STM32H7xx_HAL_Driver/Src/stm32h7xx_ll_usb.c ****           break;
 938:Drivers/STM32H7xx_HAL_Driver/Src/stm32h7xx_ll_usb.c ****         }
 939:Drivers/STM32H7xx_HAL_Driver/Src/stm32h7xx_ll_usb.c ****       } while (((USBx_INEP(ep->num)->DIEPCTL) & USB_OTG_DIEPCTL_EPENA) ==  USB_OTG_DIEPCTL_EPENA);
 940:Drivers/STM32H7xx_HAL_Driver/Src/stm32h7xx_ll_usb.c ****     }
 941:Drivers/STM32H7xx_HAL_Driver/Src/stm32h7xx_ll_usb.c ****   }
 942:Drivers/STM32H7xx_HAL_Driver/Src/stm32h7xx_ll_usb.c ****   else /* OUT endpoint */
 943:Drivers/STM32H7xx_HAL_Driver/Src/stm32h7xx_ll_usb.c ****   {
ARM GAS  C:\Users\PgRick\AppData\Local\Temp\ccFebq6t.s 			page 18


 944:Drivers/STM32H7xx_HAL_Driver/Src/stm32h7xx_ll_usb.c ****     if (((USBx_OUTEP(ep->num)->DOEPCTL) & USB_OTG_DOEPCTL_EPENA) == USB_OTG_DOEPCTL_EPENA)
 945:Drivers/STM32H7xx_HAL_Driver/Src/stm32h7xx_ll_usb.c ****     {
 946:Drivers/STM32H7xx_HAL_Driver/Src/stm32h7xx_ll_usb.c ****       USBx_OUTEP(ep->num)->DOEPCTL |= (USB_OTG_DOEPCTL_SNAK);
 947:Drivers/STM32H7xx_HAL_Driver/Src/stm32h7xx_ll_usb.c ****       USBx_OUTEP(ep->num)->DOEPCTL |= (USB_OTG_DOEPCTL_EPDIS);
 948:Drivers/STM32H7xx_HAL_Driver/Src/stm32h7xx_ll_usb.c **** 
 949:Drivers/STM32H7xx_HAL_Driver/Src/stm32h7xx_ll_usb.c ****       do
 950:Drivers/STM32H7xx_HAL_Driver/Src/stm32h7xx_ll_usb.c ****       {
 951:Drivers/STM32H7xx_HAL_Driver/Src/stm32h7xx_ll_usb.c ****         count++;
 952:Drivers/STM32H7xx_HAL_Driver/Src/stm32h7xx_ll_usb.c **** 
 953:Drivers/STM32H7xx_HAL_Driver/Src/stm32h7xx_ll_usb.c ****         if (count > 10000U)
 954:Drivers/STM32H7xx_HAL_Driver/Src/stm32h7xx_ll_usb.c ****         {
 955:Drivers/STM32H7xx_HAL_Driver/Src/stm32h7xx_ll_usb.c ****           ret = HAL_ERROR;
 956:Drivers/STM32H7xx_HAL_Driver/Src/stm32h7xx_ll_usb.c ****           break;
 957:Drivers/STM32H7xx_HAL_Driver/Src/stm32h7xx_ll_usb.c ****         }
 958:Drivers/STM32H7xx_HAL_Driver/Src/stm32h7xx_ll_usb.c ****       } while (((USBx_OUTEP(ep->num)->DOEPCTL) & USB_OTG_DOEPCTL_EPENA) ==  USB_OTG_DOEPCTL_EPENA);
 959:Drivers/STM32H7xx_HAL_Driver/Src/stm32h7xx_ll_usb.c ****     }
 960:Drivers/STM32H7xx_HAL_Driver/Src/stm32h7xx_ll_usb.c ****   }
 961:Drivers/STM32H7xx_HAL_Driver/Src/stm32h7xx_ll_usb.c **** 
 962:Drivers/STM32H7xx_HAL_Driver/Src/stm32h7xx_ll_usb.c ****   return ret;
 963:Drivers/STM32H7xx_HAL_Driver/Src/stm32h7xx_ll_usb.c **** }
 964:Drivers/STM32H7xx_HAL_Driver/Src/stm32h7xx_ll_usb.c **** 
 965:Drivers/STM32H7xx_HAL_Driver/Src/stm32h7xx_ll_usb.c **** 
 966:Drivers/STM32H7xx_HAL_Driver/Src/stm32h7xx_ll_usb.c **** /**
 967:Drivers/STM32H7xx_HAL_Driver/Src/stm32h7xx_ll_usb.c ****   * @brief  USB_WritePacket : Writes a packet into the Tx FIFO associated
 968:Drivers/STM32H7xx_HAL_Driver/Src/stm32h7xx_ll_usb.c ****   *         with the EP/channel
 969:Drivers/STM32H7xx_HAL_Driver/Src/stm32h7xx_ll_usb.c ****   * @param  USBx  Selected device
 970:Drivers/STM32H7xx_HAL_Driver/Src/stm32h7xx_ll_usb.c ****   * @param  src   pointer to source buffer
 971:Drivers/STM32H7xx_HAL_Driver/Src/stm32h7xx_ll_usb.c ****   * @param  ch_ep_num  endpoint or host channel number
 972:Drivers/STM32H7xx_HAL_Driver/Src/stm32h7xx_ll_usb.c ****   * @param  len  Number of bytes to write
 973:Drivers/STM32H7xx_HAL_Driver/Src/stm32h7xx_ll_usb.c ****   * @param  dma USB dma enabled or disabled
 974:Drivers/STM32H7xx_HAL_Driver/Src/stm32h7xx_ll_usb.c ****   *          This parameter can be one of these values:
 975:Drivers/STM32H7xx_HAL_Driver/Src/stm32h7xx_ll_usb.c ****   *           0 : DMA feature not used
 976:Drivers/STM32H7xx_HAL_Driver/Src/stm32h7xx_ll_usb.c ****   *           1 : DMA feature used
 977:Drivers/STM32H7xx_HAL_Driver/Src/stm32h7xx_ll_usb.c ****   * @retval HAL status
 978:Drivers/STM32H7xx_HAL_Driver/Src/stm32h7xx_ll_usb.c ****   */
 979:Drivers/STM32H7xx_HAL_Driver/Src/stm32h7xx_ll_usb.c **** HAL_StatusTypeDef USB_WritePacket(const USB_OTG_GlobalTypeDef *USBx, uint8_t *src,
 980:Drivers/STM32H7xx_HAL_Driver/Src/stm32h7xx_ll_usb.c ****                                   uint8_t ch_ep_num, uint16_t len, uint8_t dma)
 981:Drivers/STM32H7xx_HAL_Driver/Src/stm32h7xx_ll_usb.c **** {
 982:Drivers/STM32H7xx_HAL_Driver/Src/stm32h7xx_ll_usb.c ****   uint32_t USBx_BASE = (uint32_t)USBx;
 983:Drivers/STM32H7xx_HAL_Driver/Src/stm32h7xx_ll_usb.c ****   uint8_t *pSrc = src;
 984:Drivers/STM32H7xx_HAL_Driver/Src/stm32h7xx_ll_usb.c ****   uint32_t count32b;
 985:Drivers/STM32H7xx_HAL_Driver/Src/stm32h7xx_ll_usb.c ****   uint32_t i;
 986:Drivers/STM32H7xx_HAL_Driver/Src/stm32h7xx_ll_usb.c **** 
 987:Drivers/STM32H7xx_HAL_Driver/Src/stm32h7xx_ll_usb.c ****   if (dma == 0U)
 988:Drivers/STM32H7xx_HAL_Driver/Src/stm32h7xx_ll_usb.c ****   {
 989:Drivers/STM32H7xx_HAL_Driver/Src/stm32h7xx_ll_usb.c ****     count32b = ((uint32_t)len + 3U) / 4U;
 990:Drivers/STM32H7xx_HAL_Driver/Src/stm32h7xx_ll_usb.c ****     for (i = 0U; i < count32b; i++)
 991:Drivers/STM32H7xx_HAL_Driver/Src/stm32h7xx_ll_usb.c ****     {
 992:Drivers/STM32H7xx_HAL_Driver/Src/stm32h7xx_ll_usb.c ****       USBx_DFIFO((uint32_t)ch_ep_num) = __UNALIGNED_UINT32_READ(pSrc);
 993:Drivers/STM32H7xx_HAL_Driver/Src/stm32h7xx_ll_usb.c ****       pSrc++;
 994:Drivers/STM32H7xx_HAL_Driver/Src/stm32h7xx_ll_usb.c ****       pSrc++;
 995:Drivers/STM32H7xx_HAL_Driver/Src/stm32h7xx_ll_usb.c ****       pSrc++;
 996:Drivers/STM32H7xx_HAL_Driver/Src/stm32h7xx_ll_usb.c ****       pSrc++;
 997:Drivers/STM32H7xx_HAL_Driver/Src/stm32h7xx_ll_usb.c ****     }
 998:Drivers/STM32H7xx_HAL_Driver/Src/stm32h7xx_ll_usb.c ****   }
 999:Drivers/STM32H7xx_HAL_Driver/Src/stm32h7xx_ll_usb.c **** 
1000:Drivers/STM32H7xx_HAL_Driver/Src/stm32h7xx_ll_usb.c ****   return HAL_OK;
ARM GAS  C:\Users\PgRick\AppData\Local\Temp\ccFebq6t.s 			page 19


1001:Drivers/STM32H7xx_HAL_Driver/Src/stm32h7xx_ll_usb.c **** }
1002:Drivers/STM32H7xx_HAL_Driver/Src/stm32h7xx_ll_usb.c **** 
1003:Drivers/STM32H7xx_HAL_Driver/Src/stm32h7xx_ll_usb.c **** /**
1004:Drivers/STM32H7xx_HAL_Driver/Src/stm32h7xx_ll_usb.c ****   * @brief  USB_ReadPacket : read a packet from the RX FIFO
1005:Drivers/STM32H7xx_HAL_Driver/Src/stm32h7xx_ll_usb.c ****   * @param  USBx  Selected device
1006:Drivers/STM32H7xx_HAL_Driver/Src/stm32h7xx_ll_usb.c ****   * @param  dest  source pointer
1007:Drivers/STM32H7xx_HAL_Driver/Src/stm32h7xx_ll_usb.c ****   * @param  len  Number of bytes to read
1008:Drivers/STM32H7xx_HAL_Driver/Src/stm32h7xx_ll_usb.c ****   * @retval pointer to destination buffer
1009:Drivers/STM32H7xx_HAL_Driver/Src/stm32h7xx_ll_usb.c ****   */
1010:Drivers/STM32H7xx_HAL_Driver/Src/stm32h7xx_ll_usb.c **** void *USB_ReadPacket(const USB_OTG_GlobalTypeDef *USBx, uint8_t *dest, uint16_t len)
1011:Drivers/STM32H7xx_HAL_Driver/Src/stm32h7xx_ll_usb.c **** {
1012:Drivers/STM32H7xx_HAL_Driver/Src/stm32h7xx_ll_usb.c ****   uint32_t USBx_BASE = (uint32_t)USBx;
1013:Drivers/STM32H7xx_HAL_Driver/Src/stm32h7xx_ll_usb.c ****   uint8_t *pDest = dest;
1014:Drivers/STM32H7xx_HAL_Driver/Src/stm32h7xx_ll_usb.c ****   uint32_t pData;
1015:Drivers/STM32H7xx_HAL_Driver/Src/stm32h7xx_ll_usb.c ****   uint32_t i;
1016:Drivers/STM32H7xx_HAL_Driver/Src/stm32h7xx_ll_usb.c ****   uint32_t count32b = (uint32_t)len >> 2U;
1017:Drivers/STM32H7xx_HAL_Driver/Src/stm32h7xx_ll_usb.c ****   uint16_t remaining_bytes = len % 4U;
1018:Drivers/STM32H7xx_HAL_Driver/Src/stm32h7xx_ll_usb.c **** 
1019:Drivers/STM32H7xx_HAL_Driver/Src/stm32h7xx_ll_usb.c ****   for (i = 0U; i < count32b; i++)
1020:Drivers/STM32H7xx_HAL_Driver/Src/stm32h7xx_ll_usb.c ****   {
1021:Drivers/STM32H7xx_HAL_Driver/Src/stm32h7xx_ll_usb.c ****     __UNALIGNED_UINT32_WRITE(pDest, USBx_DFIFO(0U));
1022:Drivers/STM32H7xx_HAL_Driver/Src/stm32h7xx_ll_usb.c ****     pDest++;
1023:Drivers/STM32H7xx_HAL_Driver/Src/stm32h7xx_ll_usb.c ****     pDest++;
1024:Drivers/STM32H7xx_HAL_Driver/Src/stm32h7xx_ll_usb.c ****     pDest++;
1025:Drivers/STM32H7xx_HAL_Driver/Src/stm32h7xx_ll_usb.c ****     pDest++;
1026:Drivers/STM32H7xx_HAL_Driver/Src/stm32h7xx_ll_usb.c ****   }
1027:Drivers/STM32H7xx_HAL_Driver/Src/stm32h7xx_ll_usb.c **** 
1028:Drivers/STM32H7xx_HAL_Driver/Src/stm32h7xx_ll_usb.c ****   /* When Number of data is not word aligned, read the remaining byte */
1029:Drivers/STM32H7xx_HAL_Driver/Src/stm32h7xx_ll_usb.c ****   if (remaining_bytes != 0U)
1030:Drivers/STM32H7xx_HAL_Driver/Src/stm32h7xx_ll_usb.c ****   {
1031:Drivers/STM32H7xx_HAL_Driver/Src/stm32h7xx_ll_usb.c ****     i = 0U;
1032:Drivers/STM32H7xx_HAL_Driver/Src/stm32h7xx_ll_usb.c ****     __UNALIGNED_UINT32_WRITE(&pData, USBx_DFIFO(0U));
1033:Drivers/STM32H7xx_HAL_Driver/Src/stm32h7xx_ll_usb.c **** 
1034:Drivers/STM32H7xx_HAL_Driver/Src/stm32h7xx_ll_usb.c ****     do
1035:Drivers/STM32H7xx_HAL_Driver/Src/stm32h7xx_ll_usb.c ****     {
1036:Drivers/STM32H7xx_HAL_Driver/Src/stm32h7xx_ll_usb.c ****       *(uint8_t *)pDest = (uint8_t)(pData >> (8U * (uint8_t)(i)));
1037:Drivers/STM32H7xx_HAL_Driver/Src/stm32h7xx_ll_usb.c ****       i++;
1038:Drivers/STM32H7xx_HAL_Driver/Src/stm32h7xx_ll_usb.c ****       pDest++;
1039:Drivers/STM32H7xx_HAL_Driver/Src/stm32h7xx_ll_usb.c ****       remaining_bytes--;
1040:Drivers/STM32H7xx_HAL_Driver/Src/stm32h7xx_ll_usb.c ****     } while (remaining_bytes != 0U);
1041:Drivers/STM32H7xx_HAL_Driver/Src/stm32h7xx_ll_usb.c ****   }
1042:Drivers/STM32H7xx_HAL_Driver/Src/stm32h7xx_ll_usb.c **** 
1043:Drivers/STM32H7xx_HAL_Driver/Src/stm32h7xx_ll_usb.c ****   return ((void *)pDest);
1044:Drivers/STM32H7xx_HAL_Driver/Src/stm32h7xx_ll_usb.c **** }
1045:Drivers/STM32H7xx_HAL_Driver/Src/stm32h7xx_ll_usb.c **** 
1046:Drivers/STM32H7xx_HAL_Driver/Src/stm32h7xx_ll_usb.c **** /**
1047:Drivers/STM32H7xx_HAL_Driver/Src/stm32h7xx_ll_usb.c ****   * @brief  USB_EPSetStall : set a stall condition over an EP
1048:Drivers/STM32H7xx_HAL_Driver/Src/stm32h7xx_ll_usb.c ****   * @param  USBx  Selected device
1049:Drivers/STM32H7xx_HAL_Driver/Src/stm32h7xx_ll_usb.c ****   * @param  ep pointer to endpoint structure
1050:Drivers/STM32H7xx_HAL_Driver/Src/stm32h7xx_ll_usb.c ****   * @retval HAL status
1051:Drivers/STM32H7xx_HAL_Driver/Src/stm32h7xx_ll_usb.c ****   */
1052:Drivers/STM32H7xx_HAL_Driver/Src/stm32h7xx_ll_usb.c **** HAL_StatusTypeDef USB_EPSetStall(const USB_OTG_GlobalTypeDef *USBx, const USB_OTG_EPTypeDef *ep)
1053:Drivers/STM32H7xx_HAL_Driver/Src/stm32h7xx_ll_usb.c **** {
1054:Drivers/STM32H7xx_HAL_Driver/Src/stm32h7xx_ll_usb.c ****   uint32_t USBx_BASE = (uint32_t)USBx;
1055:Drivers/STM32H7xx_HAL_Driver/Src/stm32h7xx_ll_usb.c ****   uint32_t epnum = (uint32_t)ep->num;
1056:Drivers/STM32H7xx_HAL_Driver/Src/stm32h7xx_ll_usb.c **** 
1057:Drivers/STM32H7xx_HAL_Driver/Src/stm32h7xx_ll_usb.c ****   if (ep->is_in == 1U)
ARM GAS  C:\Users\PgRick\AppData\Local\Temp\ccFebq6t.s 			page 20


1058:Drivers/STM32H7xx_HAL_Driver/Src/stm32h7xx_ll_usb.c ****   {
1059:Drivers/STM32H7xx_HAL_Driver/Src/stm32h7xx_ll_usb.c ****     if (((USBx_INEP(epnum)->DIEPCTL & USB_OTG_DIEPCTL_EPENA) == 0U) && (epnum != 0U))
1060:Drivers/STM32H7xx_HAL_Driver/Src/stm32h7xx_ll_usb.c ****     {
1061:Drivers/STM32H7xx_HAL_Driver/Src/stm32h7xx_ll_usb.c ****       USBx_INEP(epnum)->DIEPCTL &= ~(USB_OTG_DIEPCTL_EPDIS);
1062:Drivers/STM32H7xx_HAL_Driver/Src/stm32h7xx_ll_usb.c ****     }
1063:Drivers/STM32H7xx_HAL_Driver/Src/stm32h7xx_ll_usb.c ****     USBx_INEP(epnum)->DIEPCTL |= USB_OTG_DIEPCTL_STALL;
1064:Drivers/STM32H7xx_HAL_Driver/Src/stm32h7xx_ll_usb.c ****   }
1065:Drivers/STM32H7xx_HAL_Driver/Src/stm32h7xx_ll_usb.c ****   else
1066:Drivers/STM32H7xx_HAL_Driver/Src/stm32h7xx_ll_usb.c ****   {
1067:Drivers/STM32H7xx_HAL_Driver/Src/stm32h7xx_ll_usb.c ****     if (((USBx_OUTEP(epnum)->DOEPCTL & USB_OTG_DOEPCTL_EPENA) == 0U) && (epnum != 0U))
1068:Drivers/STM32H7xx_HAL_Driver/Src/stm32h7xx_ll_usb.c ****     {
1069:Drivers/STM32H7xx_HAL_Driver/Src/stm32h7xx_ll_usb.c ****       USBx_OUTEP(epnum)->DOEPCTL &= ~(USB_OTG_DOEPCTL_EPDIS);
1070:Drivers/STM32H7xx_HAL_Driver/Src/stm32h7xx_ll_usb.c ****     }
1071:Drivers/STM32H7xx_HAL_Driver/Src/stm32h7xx_ll_usb.c ****     USBx_OUTEP(epnum)->DOEPCTL |= USB_OTG_DOEPCTL_STALL;
1072:Drivers/STM32H7xx_HAL_Driver/Src/stm32h7xx_ll_usb.c ****   }
1073:Drivers/STM32H7xx_HAL_Driver/Src/stm32h7xx_ll_usb.c **** 
1074:Drivers/STM32H7xx_HAL_Driver/Src/stm32h7xx_ll_usb.c ****   return HAL_OK;
1075:Drivers/STM32H7xx_HAL_Driver/Src/stm32h7xx_ll_usb.c **** }
1076:Drivers/STM32H7xx_HAL_Driver/Src/stm32h7xx_ll_usb.c **** 
1077:Drivers/STM32H7xx_HAL_Driver/Src/stm32h7xx_ll_usb.c **** /**
1078:Drivers/STM32H7xx_HAL_Driver/Src/stm32h7xx_ll_usb.c ****   * @brief  USB_EPClearStall : Clear a stall condition over an EP
1079:Drivers/STM32H7xx_HAL_Driver/Src/stm32h7xx_ll_usb.c ****   * @param  USBx  Selected device
1080:Drivers/STM32H7xx_HAL_Driver/Src/stm32h7xx_ll_usb.c ****   * @param  ep pointer to endpoint structure
1081:Drivers/STM32H7xx_HAL_Driver/Src/stm32h7xx_ll_usb.c ****   * @retval HAL status
1082:Drivers/STM32H7xx_HAL_Driver/Src/stm32h7xx_ll_usb.c ****   */
1083:Drivers/STM32H7xx_HAL_Driver/Src/stm32h7xx_ll_usb.c **** HAL_StatusTypeDef USB_EPClearStall(const USB_OTG_GlobalTypeDef *USBx, const USB_OTG_EPTypeDef *ep)
1084:Drivers/STM32H7xx_HAL_Driver/Src/stm32h7xx_ll_usb.c **** {
1085:Drivers/STM32H7xx_HAL_Driver/Src/stm32h7xx_ll_usb.c ****   uint32_t USBx_BASE = (uint32_t)USBx;
1086:Drivers/STM32H7xx_HAL_Driver/Src/stm32h7xx_ll_usb.c ****   uint32_t epnum = (uint32_t)ep->num;
1087:Drivers/STM32H7xx_HAL_Driver/Src/stm32h7xx_ll_usb.c **** 
1088:Drivers/STM32H7xx_HAL_Driver/Src/stm32h7xx_ll_usb.c ****   if (ep->is_in == 1U)
1089:Drivers/STM32H7xx_HAL_Driver/Src/stm32h7xx_ll_usb.c ****   {
1090:Drivers/STM32H7xx_HAL_Driver/Src/stm32h7xx_ll_usb.c ****     USBx_INEP(epnum)->DIEPCTL &= ~USB_OTG_DIEPCTL_STALL;
1091:Drivers/STM32H7xx_HAL_Driver/Src/stm32h7xx_ll_usb.c ****     if ((ep->type == EP_TYPE_INTR) || (ep->type == EP_TYPE_BULK))
1092:Drivers/STM32H7xx_HAL_Driver/Src/stm32h7xx_ll_usb.c ****     {
1093:Drivers/STM32H7xx_HAL_Driver/Src/stm32h7xx_ll_usb.c ****       USBx_INEP(epnum)->DIEPCTL |= USB_OTG_DIEPCTL_SD0PID_SEVNFRM; /* DATA0 */
1094:Drivers/STM32H7xx_HAL_Driver/Src/stm32h7xx_ll_usb.c ****     }
1095:Drivers/STM32H7xx_HAL_Driver/Src/stm32h7xx_ll_usb.c ****   }
1096:Drivers/STM32H7xx_HAL_Driver/Src/stm32h7xx_ll_usb.c ****   else
1097:Drivers/STM32H7xx_HAL_Driver/Src/stm32h7xx_ll_usb.c ****   {
1098:Drivers/STM32H7xx_HAL_Driver/Src/stm32h7xx_ll_usb.c ****     USBx_OUTEP(epnum)->DOEPCTL &= ~USB_OTG_DOEPCTL_STALL;
1099:Drivers/STM32H7xx_HAL_Driver/Src/stm32h7xx_ll_usb.c ****     if ((ep->type == EP_TYPE_INTR) || (ep->type == EP_TYPE_BULK))
1100:Drivers/STM32H7xx_HAL_Driver/Src/stm32h7xx_ll_usb.c ****     {
1101:Drivers/STM32H7xx_HAL_Driver/Src/stm32h7xx_ll_usb.c ****       USBx_OUTEP(epnum)->DOEPCTL |= USB_OTG_DOEPCTL_SD0PID_SEVNFRM; /* DATA0 */
1102:Drivers/STM32H7xx_HAL_Driver/Src/stm32h7xx_ll_usb.c ****     }
1103:Drivers/STM32H7xx_HAL_Driver/Src/stm32h7xx_ll_usb.c ****   }
1104:Drivers/STM32H7xx_HAL_Driver/Src/stm32h7xx_ll_usb.c ****   return HAL_OK;
1105:Drivers/STM32H7xx_HAL_Driver/Src/stm32h7xx_ll_usb.c **** }
1106:Drivers/STM32H7xx_HAL_Driver/Src/stm32h7xx_ll_usb.c **** 
1107:Drivers/STM32H7xx_HAL_Driver/Src/stm32h7xx_ll_usb.c **** /**
1108:Drivers/STM32H7xx_HAL_Driver/Src/stm32h7xx_ll_usb.c ****   * @brief  USB_StopDevice : Stop the usb device mode
1109:Drivers/STM32H7xx_HAL_Driver/Src/stm32h7xx_ll_usb.c ****   * @param  USBx  Selected device
1110:Drivers/STM32H7xx_HAL_Driver/Src/stm32h7xx_ll_usb.c ****   * @retval HAL status
1111:Drivers/STM32H7xx_HAL_Driver/Src/stm32h7xx_ll_usb.c ****   */
1112:Drivers/STM32H7xx_HAL_Driver/Src/stm32h7xx_ll_usb.c **** HAL_StatusTypeDef USB_StopDevice(USB_OTG_GlobalTypeDef *USBx)
1113:Drivers/STM32H7xx_HAL_Driver/Src/stm32h7xx_ll_usb.c **** {
1114:Drivers/STM32H7xx_HAL_Driver/Src/stm32h7xx_ll_usb.c ****   HAL_StatusTypeDef ret;
ARM GAS  C:\Users\PgRick\AppData\Local\Temp\ccFebq6t.s 			page 21


1115:Drivers/STM32H7xx_HAL_Driver/Src/stm32h7xx_ll_usb.c ****   uint32_t USBx_BASE = (uint32_t)USBx;
1116:Drivers/STM32H7xx_HAL_Driver/Src/stm32h7xx_ll_usb.c ****   uint32_t i;
1117:Drivers/STM32H7xx_HAL_Driver/Src/stm32h7xx_ll_usb.c **** 
1118:Drivers/STM32H7xx_HAL_Driver/Src/stm32h7xx_ll_usb.c ****   /* Clear Pending interrupt */
1119:Drivers/STM32H7xx_HAL_Driver/Src/stm32h7xx_ll_usb.c ****   for (i = 0U; i < 15U; i++)
1120:Drivers/STM32H7xx_HAL_Driver/Src/stm32h7xx_ll_usb.c ****   {
1121:Drivers/STM32H7xx_HAL_Driver/Src/stm32h7xx_ll_usb.c ****     USBx_INEP(i)->DIEPINT = 0xFB7FU;
1122:Drivers/STM32H7xx_HAL_Driver/Src/stm32h7xx_ll_usb.c ****     USBx_OUTEP(i)->DOEPINT = 0xFB7FU;
1123:Drivers/STM32H7xx_HAL_Driver/Src/stm32h7xx_ll_usb.c ****   }
1124:Drivers/STM32H7xx_HAL_Driver/Src/stm32h7xx_ll_usb.c **** 
1125:Drivers/STM32H7xx_HAL_Driver/Src/stm32h7xx_ll_usb.c ****   /* Clear interrupt masks */
1126:Drivers/STM32H7xx_HAL_Driver/Src/stm32h7xx_ll_usb.c ****   USBx_DEVICE->DIEPMSK  = 0U;
1127:Drivers/STM32H7xx_HAL_Driver/Src/stm32h7xx_ll_usb.c ****   USBx_DEVICE->DOEPMSK  = 0U;
1128:Drivers/STM32H7xx_HAL_Driver/Src/stm32h7xx_ll_usb.c ****   USBx_DEVICE->DAINTMSK = 0U;
1129:Drivers/STM32H7xx_HAL_Driver/Src/stm32h7xx_ll_usb.c **** 
1130:Drivers/STM32H7xx_HAL_Driver/Src/stm32h7xx_ll_usb.c ****   /* Flush the FIFO */
1131:Drivers/STM32H7xx_HAL_Driver/Src/stm32h7xx_ll_usb.c ****   ret = USB_FlushRxFifo(USBx);
1132:Drivers/STM32H7xx_HAL_Driver/Src/stm32h7xx_ll_usb.c ****   if (ret != HAL_OK)
1133:Drivers/STM32H7xx_HAL_Driver/Src/stm32h7xx_ll_usb.c ****   {
1134:Drivers/STM32H7xx_HAL_Driver/Src/stm32h7xx_ll_usb.c ****     return ret;
1135:Drivers/STM32H7xx_HAL_Driver/Src/stm32h7xx_ll_usb.c ****   }
1136:Drivers/STM32H7xx_HAL_Driver/Src/stm32h7xx_ll_usb.c **** 
1137:Drivers/STM32H7xx_HAL_Driver/Src/stm32h7xx_ll_usb.c ****   ret = USB_FlushTxFifo(USBx,  0x10U);
1138:Drivers/STM32H7xx_HAL_Driver/Src/stm32h7xx_ll_usb.c ****   if (ret != HAL_OK)
1139:Drivers/STM32H7xx_HAL_Driver/Src/stm32h7xx_ll_usb.c ****   {
1140:Drivers/STM32H7xx_HAL_Driver/Src/stm32h7xx_ll_usb.c ****     return ret;
1141:Drivers/STM32H7xx_HAL_Driver/Src/stm32h7xx_ll_usb.c ****   }
1142:Drivers/STM32H7xx_HAL_Driver/Src/stm32h7xx_ll_usb.c **** 
1143:Drivers/STM32H7xx_HAL_Driver/Src/stm32h7xx_ll_usb.c ****   return ret;
1144:Drivers/STM32H7xx_HAL_Driver/Src/stm32h7xx_ll_usb.c **** }
1145:Drivers/STM32H7xx_HAL_Driver/Src/stm32h7xx_ll_usb.c **** 
1146:Drivers/STM32H7xx_HAL_Driver/Src/stm32h7xx_ll_usb.c **** /**
1147:Drivers/STM32H7xx_HAL_Driver/Src/stm32h7xx_ll_usb.c ****   * @brief  USB_SetDevAddress : Stop the usb device mode
1148:Drivers/STM32H7xx_HAL_Driver/Src/stm32h7xx_ll_usb.c ****   * @param  USBx  Selected device
1149:Drivers/STM32H7xx_HAL_Driver/Src/stm32h7xx_ll_usb.c ****   * @param  address  new device address to be assigned
1150:Drivers/STM32H7xx_HAL_Driver/Src/stm32h7xx_ll_usb.c ****   *          This parameter can be a value from 0 to 255
1151:Drivers/STM32H7xx_HAL_Driver/Src/stm32h7xx_ll_usb.c ****   * @retval HAL status
1152:Drivers/STM32H7xx_HAL_Driver/Src/stm32h7xx_ll_usb.c ****   */
1153:Drivers/STM32H7xx_HAL_Driver/Src/stm32h7xx_ll_usb.c **** HAL_StatusTypeDef USB_SetDevAddress(const USB_OTG_GlobalTypeDef *USBx, uint8_t address)
1154:Drivers/STM32H7xx_HAL_Driver/Src/stm32h7xx_ll_usb.c **** {
1155:Drivers/STM32H7xx_HAL_Driver/Src/stm32h7xx_ll_usb.c ****   uint32_t USBx_BASE = (uint32_t)USBx;
1156:Drivers/STM32H7xx_HAL_Driver/Src/stm32h7xx_ll_usb.c **** 
1157:Drivers/STM32H7xx_HAL_Driver/Src/stm32h7xx_ll_usb.c ****   USBx_DEVICE->DCFG &= ~(USB_OTG_DCFG_DAD);
1158:Drivers/STM32H7xx_HAL_Driver/Src/stm32h7xx_ll_usb.c ****   USBx_DEVICE->DCFG |= ((uint32_t)address << 4) & USB_OTG_DCFG_DAD;
1159:Drivers/STM32H7xx_HAL_Driver/Src/stm32h7xx_ll_usb.c **** 
1160:Drivers/STM32H7xx_HAL_Driver/Src/stm32h7xx_ll_usb.c ****   return HAL_OK;
1161:Drivers/STM32H7xx_HAL_Driver/Src/stm32h7xx_ll_usb.c **** }
1162:Drivers/STM32H7xx_HAL_Driver/Src/stm32h7xx_ll_usb.c **** 
1163:Drivers/STM32H7xx_HAL_Driver/Src/stm32h7xx_ll_usb.c **** /**
1164:Drivers/STM32H7xx_HAL_Driver/Src/stm32h7xx_ll_usb.c ****   * @brief  USB_DevConnect : Connect the USB device by enabling Rpu
1165:Drivers/STM32H7xx_HAL_Driver/Src/stm32h7xx_ll_usb.c ****   * @param  USBx  Selected device
1166:Drivers/STM32H7xx_HAL_Driver/Src/stm32h7xx_ll_usb.c ****   * @retval HAL status
1167:Drivers/STM32H7xx_HAL_Driver/Src/stm32h7xx_ll_usb.c ****   */
1168:Drivers/STM32H7xx_HAL_Driver/Src/stm32h7xx_ll_usb.c **** HAL_StatusTypeDef USB_DevConnect(const USB_OTG_GlobalTypeDef *USBx)
1169:Drivers/STM32H7xx_HAL_Driver/Src/stm32h7xx_ll_usb.c **** {
1170:Drivers/STM32H7xx_HAL_Driver/Src/stm32h7xx_ll_usb.c ****   uint32_t USBx_BASE = (uint32_t)USBx;
1171:Drivers/STM32H7xx_HAL_Driver/Src/stm32h7xx_ll_usb.c **** 
ARM GAS  C:\Users\PgRick\AppData\Local\Temp\ccFebq6t.s 			page 22


1172:Drivers/STM32H7xx_HAL_Driver/Src/stm32h7xx_ll_usb.c ****   /* In case phy is stopped, ensure to ungate and restore the phy CLK */
1173:Drivers/STM32H7xx_HAL_Driver/Src/stm32h7xx_ll_usb.c ****   USBx_PCGCCTL &= ~(USB_OTG_PCGCCTL_STOPCLK | USB_OTG_PCGCCTL_GATECLK);
1174:Drivers/STM32H7xx_HAL_Driver/Src/stm32h7xx_ll_usb.c **** 
1175:Drivers/STM32H7xx_HAL_Driver/Src/stm32h7xx_ll_usb.c ****   USBx_DEVICE->DCTL &= ~USB_OTG_DCTL_SDIS;
1176:Drivers/STM32H7xx_HAL_Driver/Src/stm32h7xx_ll_usb.c **** 
1177:Drivers/STM32H7xx_HAL_Driver/Src/stm32h7xx_ll_usb.c ****   return HAL_OK;
1178:Drivers/STM32H7xx_HAL_Driver/Src/stm32h7xx_ll_usb.c **** }
1179:Drivers/STM32H7xx_HAL_Driver/Src/stm32h7xx_ll_usb.c **** 
1180:Drivers/STM32H7xx_HAL_Driver/Src/stm32h7xx_ll_usb.c **** /**
1181:Drivers/STM32H7xx_HAL_Driver/Src/stm32h7xx_ll_usb.c ****   * @brief  USB_DevDisconnect : Disconnect the USB device by disabling Rpu
1182:Drivers/STM32H7xx_HAL_Driver/Src/stm32h7xx_ll_usb.c ****   * @param  USBx  Selected device
1183:Drivers/STM32H7xx_HAL_Driver/Src/stm32h7xx_ll_usb.c ****   * @retval HAL status
1184:Drivers/STM32H7xx_HAL_Driver/Src/stm32h7xx_ll_usb.c ****   */
1185:Drivers/STM32H7xx_HAL_Driver/Src/stm32h7xx_ll_usb.c **** HAL_StatusTypeDef USB_DevDisconnect(const USB_OTG_GlobalTypeDef *USBx)
1186:Drivers/STM32H7xx_HAL_Driver/Src/stm32h7xx_ll_usb.c **** {
1187:Drivers/STM32H7xx_HAL_Driver/Src/stm32h7xx_ll_usb.c ****   uint32_t USBx_BASE = (uint32_t)USBx;
1188:Drivers/STM32H7xx_HAL_Driver/Src/stm32h7xx_ll_usb.c **** 
1189:Drivers/STM32H7xx_HAL_Driver/Src/stm32h7xx_ll_usb.c ****   /* In case phy is stopped, ensure to ungate and restore the phy CLK */
1190:Drivers/STM32H7xx_HAL_Driver/Src/stm32h7xx_ll_usb.c ****   USBx_PCGCCTL &= ~(USB_OTG_PCGCCTL_STOPCLK | USB_OTG_PCGCCTL_GATECLK);
1191:Drivers/STM32H7xx_HAL_Driver/Src/stm32h7xx_ll_usb.c **** 
1192:Drivers/STM32H7xx_HAL_Driver/Src/stm32h7xx_ll_usb.c ****   USBx_DEVICE->DCTL |= USB_OTG_DCTL_SDIS;
1193:Drivers/STM32H7xx_HAL_Driver/Src/stm32h7xx_ll_usb.c **** 
1194:Drivers/STM32H7xx_HAL_Driver/Src/stm32h7xx_ll_usb.c ****   return HAL_OK;
1195:Drivers/STM32H7xx_HAL_Driver/Src/stm32h7xx_ll_usb.c **** }
1196:Drivers/STM32H7xx_HAL_Driver/Src/stm32h7xx_ll_usb.c **** 
1197:Drivers/STM32H7xx_HAL_Driver/Src/stm32h7xx_ll_usb.c **** /**
1198:Drivers/STM32H7xx_HAL_Driver/Src/stm32h7xx_ll_usb.c ****   * @brief  USB_ReadInterrupts: return the global USB interrupt status
1199:Drivers/STM32H7xx_HAL_Driver/Src/stm32h7xx_ll_usb.c ****   * @param  USBx  Selected device
1200:Drivers/STM32H7xx_HAL_Driver/Src/stm32h7xx_ll_usb.c ****   * @retval USB Global Interrupt status
1201:Drivers/STM32H7xx_HAL_Driver/Src/stm32h7xx_ll_usb.c ****   */
1202:Drivers/STM32H7xx_HAL_Driver/Src/stm32h7xx_ll_usb.c **** uint32_t USB_ReadInterrupts(USB_OTG_GlobalTypeDef const *USBx)
1203:Drivers/STM32H7xx_HAL_Driver/Src/stm32h7xx_ll_usb.c **** {
1204:Drivers/STM32H7xx_HAL_Driver/Src/stm32h7xx_ll_usb.c ****   uint32_t tmpreg;
1205:Drivers/STM32H7xx_HAL_Driver/Src/stm32h7xx_ll_usb.c **** 
1206:Drivers/STM32H7xx_HAL_Driver/Src/stm32h7xx_ll_usb.c ****   tmpreg = USBx->GINTSTS;
1207:Drivers/STM32H7xx_HAL_Driver/Src/stm32h7xx_ll_usb.c ****   tmpreg &= USBx->GINTMSK;
1208:Drivers/STM32H7xx_HAL_Driver/Src/stm32h7xx_ll_usb.c **** 
1209:Drivers/STM32H7xx_HAL_Driver/Src/stm32h7xx_ll_usb.c ****   return tmpreg;
1210:Drivers/STM32H7xx_HAL_Driver/Src/stm32h7xx_ll_usb.c **** }
1211:Drivers/STM32H7xx_HAL_Driver/Src/stm32h7xx_ll_usb.c **** 
1212:Drivers/STM32H7xx_HAL_Driver/Src/stm32h7xx_ll_usb.c **** /**
1213:Drivers/STM32H7xx_HAL_Driver/Src/stm32h7xx_ll_usb.c ****   * @brief  USB_ReadChInterrupts: return USB channel interrupt status
1214:Drivers/STM32H7xx_HAL_Driver/Src/stm32h7xx_ll_usb.c ****   * @param  USBx  Selected device
1215:Drivers/STM32H7xx_HAL_Driver/Src/stm32h7xx_ll_usb.c ****   * @param  chnum Channel number
1216:Drivers/STM32H7xx_HAL_Driver/Src/stm32h7xx_ll_usb.c ****   * @retval USB Channel Interrupt status
1217:Drivers/STM32H7xx_HAL_Driver/Src/stm32h7xx_ll_usb.c ****   */
1218:Drivers/STM32H7xx_HAL_Driver/Src/stm32h7xx_ll_usb.c **** uint32_t USB_ReadChInterrupts(const USB_OTG_GlobalTypeDef *USBx, uint8_t chnum)
1219:Drivers/STM32H7xx_HAL_Driver/Src/stm32h7xx_ll_usb.c **** {
1220:Drivers/STM32H7xx_HAL_Driver/Src/stm32h7xx_ll_usb.c ****   uint32_t USBx_BASE = (uint32_t)USBx;
1221:Drivers/STM32H7xx_HAL_Driver/Src/stm32h7xx_ll_usb.c ****   uint32_t tmpreg;
1222:Drivers/STM32H7xx_HAL_Driver/Src/stm32h7xx_ll_usb.c **** 
1223:Drivers/STM32H7xx_HAL_Driver/Src/stm32h7xx_ll_usb.c ****   tmpreg = USBx_HC(chnum)->HCINT;
1224:Drivers/STM32H7xx_HAL_Driver/Src/stm32h7xx_ll_usb.c ****   tmpreg &= USBx_HC(chnum)->HCINTMSK;
1225:Drivers/STM32H7xx_HAL_Driver/Src/stm32h7xx_ll_usb.c **** 
1226:Drivers/STM32H7xx_HAL_Driver/Src/stm32h7xx_ll_usb.c ****   return tmpreg;
1227:Drivers/STM32H7xx_HAL_Driver/Src/stm32h7xx_ll_usb.c **** }
1228:Drivers/STM32H7xx_HAL_Driver/Src/stm32h7xx_ll_usb.c **** 
ARM GAS  C:\Users\PgRick\AppData\Local\Temp\ccFebq6t.s 			page 23


1229:Drivers/STM32H7xx_HAL_Driver/Src/stm32h7xx_ll_usb.c **** /**
1230:Drivers/STM32H7xx_HAL_Driver/Src/stm32h7xx_ll_usb.c ****   * @brief  USB_ReadDevAllOutEpInterrupt: return the USB device OUT endpoints interrupt status
1231:Drivers/STM32H7xx_HAL_Driver/Src/stm32h7xx_ll_usb.c ****   * @param  USBx  Selected device
1232:Drivers/STM32H7xx_HAL_Driver/Src/stm32h7xx_ll_usb.c ****   * @retval USB Device OUT EP interrupt status
1233:Drivers/STM32H7xx_HAL_Driver/Src/stm32h7xx_ll_usb.c ****   */
1234:Drivers/STM32H7xx_HAL_Driver/Src/stm32h7xx_ll_usb.c **** uint32_t USB_ReadDevAllOutEpInterrupt(const USB_OTG_GlobalTypeDef *USBx)
1235:Drivers/STM32H7xx_HAL_Driver/Src/stm32h7xx_ll_usb.c **** {
1236:Drivers/STM32H7xx_HAL_Driver/Src/stm32h7xx_ll_usb.c ****   uint32_t USBx_BASE = (uint32_t)USBx;
1237:Drivers/STM32H7xx_HAL_Driver/Src/stm32h7xx_ll_usb.c ****   uint32_t tmpreg;
1238:Drivers/STM32H7xx_HAL_Driver/Src/stm32h7xx_ll_usb.c **** 
1239:Drivers/STM32H7xx_HAL_Driver/Src/stm32h7xx_ll_usb.c ****   tmpreg  = USBx_DEVICE->DAINT;
1240:Drivers/STM32H7xx_HAL_Driver/Src/stm32h7xx_ll_usb.c ****   tmpreg &= USBx_DEVICE->DAINTMSK;
1241:Drivers/STM32H7xx_HAL_Driver/Src/stm32h7xx_ll_usb.c **** 
1242:Drivers/STM32H7xx_HAL_Driver/Src/stm32h7xx_ll_usb.c ****   return ((tmpreg & 0xffff0000U) >> 16);
1243:Drivers/STM32H7xx_HAL_Driver/Src/stm32h7xx_ll_usb.c **** }
1244:Drivers/STM32H7xx_HAL_Driver/Src/stm32h7xx_ll_usb.c **** 
1245:Drivers/STM32H7xx_HAL_Driver/Src/stm32h7xx_ll_usb.c **** /**
1246:Drivers/STM32H7xx_HAL_Driver/Src/stm32h7xx_ll_usb.c ****   * @brief  USB_ReadDevAllInEpInterrupt: return the USB device IN endpoints interrupt status
1247:Drivers/STM32H7xx_HAL_Driver/Src/stm32h7xx_ll_usb.c ****   * @param  USBx  Selected device
1248:Drivers/STM32H7xx_HAL_Driver/Src/stm32h7xx_ll_usb.c ****   * @retval USB Device IN EP interrupt status
1249:Drivers/STM32H7xx_HAL_Driver/Src/stm32h7xx_ll_usb.c ****   */
1250:Drivers/STM32H7xx_HAL_Driver/Src/stm32h7xx_ll_usb.c **** uint32_t USB_ReadDevAllInEpInterrupt(const USB_OTG_GlobalTypeDef *USBx)
1251:Drivers/STM32H7xx_HAL_Driver/Src/stm32h7xx_ll_usb.c **** {
1252:Drivers/STM32H7xx_HAL_Driver/Src/stm32h7xx_ll_usb.c ****   uint32_t USBx_BASE = (uint32_t)USBx;
1253:Drivers/STM32H7xx_HAL_Driver/Src/stm32h7xx_ll_usb.c ****   uint32_t tmpreg;
1254:Drivers/STM32H7xx_HAL_Driver/Src/stm32h7xx_ll_usb.c **** 
1255:Drivers/STM32H7xx_HAL_Driver/Src/stm32h7xx_ll_usb.c ****   tmpreg  = USBx_DEVICE->DAINT;
1256:Drivers/STM32H7xx_HAL_Driver/Src/stm32h7xx_ll_usb.c ****   tmpreg &= USBx_DEVICE->DAINTMSK;
1257:Drivers/STM32H7xx_HAL_Driver/Src/stm32h7xx_ll_usb.c **** 
1258:Drivers/STM32H7xx_HAL_Driver/Src/stm32h7xx_ll_usb.c ****   return ((tmpreg & 0xFFFFU));
1259:Drivers/STM32H7xx_HAL_Driver/Src/stm32h7xx_ll_usb.c **** }
1260:Drivers/STM32H7xx_HAL_Driver/Src/stm32h7xx_ll_usb.c **** 
1261:Drivers/STM32H7xx_HAL_Driver/Src/stm32h7xx_ll_usb.c **** /**
1262:Drivers/STM32H7xx_HAL_Driver/Src/stm32h7xx_ll_usb.c ****   * @brief  Returns Device OUT EP Interrupt register
1263:Drivers/STM32H7xx_HAL_Driver/Src/stm32h7xx_ll_usb.c ****   * @param  USBx  Selected device
1264:Drivers/STM32H7xx_HAL_Driver/Src/stm32h7xx_ll_usb.c ****   * @param  epnum  endpoint number
1265:Drivers/STM32H7xx_HAL_Driver/Src/stm32h7xx_ll_usb.c ****   *          This parameter can be a value from 0 to 15
1266:Drivers/STM32H7xx_HAL_Driver/Src/stm32h7xx_ll_usb.c ****   * @retval Device OUT EP Interrupt register
1267:Drivers/STM32H7xx_HAL_Driver/Src/stm32h7xx_ll_usb.c ****   */
1268:Drivers/STM32H7xx_HAL_Driver/Src/stm32h7xx_ll_usb.c **** uint32_t USB_ReadDevOutEPInterrupt(const USB_OTG_GlobalTypeDef *USBx, uint8_t epnum)
1269:Drivers/STM32H7xx_HAL_Driver/Src/stm32h7xx_ll_usb.c **** {
1270:Drivers/STM32H7xx_HAL_Driver/Src/stm32h7xx_ll_usb.c ****   uint32_t USBx_BASE = (uint32_t)USBx;
1271:Drivers/STM32H7xx_HAL_Driver/Src/stm32h7xx_ll_usb.c ****   uint32_t tmpreg;
1272:Drivers/STM32H7xx_HAL_Driver/Src/stm32h7xx_ll_usb.c **** 
1273:Drivers/STM32H7xx_HAL_Driver/Src/stm32h7xx_ll_usb.c ****   tmpreg  = USBx_OUTEP((uint32_t)epnum)->DOEPINT;
1274:Drivers/STM32H7xx_HAL_Driver/Src/stm32h7xx_ll_usb.c ****   tmpreg &= USBx_DEVICE->DOEPMSK;
1275:Drivers/STM32H7xx_HAL_Driver/Src/stm32h7xx_ll_usb.c **** 
1276:Drivers/STM32H7xx_HAL_Driver/Src/stm32h7xx_ll_usb.c ****   return tmpreg;
1277:Drivers/STM32H7xx_HAL_Driver/Src/stm32h7xx_ll_usb.c **** }
1278:Drivers/STM32H7xx_HAL_Driver/Src/stm32h7xx_ll_usb.c **** 
1279:Drivers/STM32H7xx_HAL_Driver/Src/stm32h7xx_ll_usb.c **** /**
1280:Drivers/STM32H7xx_HAL_Driver/Src/stm32h7xx_ll_usb.c ****   * @brief  Returns Device IN EP Interrupt register
1281:Drivers/STM32H7xx_HAL_Driver/Src/stm32h7xx_ll_usb.c ****   * @param  USBx  Selected device
1282:Drivers/STM32H7xx_HAL_Driver/Src/stm32h7xx_ll_usb.c ****   * @param  epnum  endpoint number
1283:Drivers/STM32H7xx_HAL_Driver/Src/stm32h7xx_ll_usb.c ****   *          This parameter can be a value from 0 to 15
1284:Drivers/STM32H7xx_HAL_Driver/Src/stm32h7xx_ll_usb.c ****   * @retval Device IN EP Interrupt register
1285:Drivers/STM32H7xx_HAL_Driver/Src/stm32h7xx_ll_usb.c ****   */
ARM GAS  C:\Users\PgRick\AppData\Local\Temp\ccFebq6t.s 			page 24


1286:Drivers/STM32H7xx_HAL_Driver/Src/stm32h7xx_ll_usb.c **** uint32_t USB_ReadDevInEPInterrupt(const USB_OTG_GlobalTypeDef *USBx, uint8_t epnum)
1287:Drivers/STM32H7xx_HAL_Driver/Src/stm32h7xx_ll_usb.c **** {
1288:Drivers/STM32H7xx_HAL_Driver/Src/stm32h7xx_ll_usb.c ****   uint32_t USBx_BASE = (uint32_t)USBx;
1289:Drivers/STM32H7xx_HAL_Driver/Src/stm32h7xx_ll_usb.c ****   uint32_t tmpreg;
1290:Drivers/STM32H7xx_HAL_Driver/Src/stm32h7xx_ll_usb.c ****   uint32_t msk;
1291:Drivers/STM32H7xx_HAL_Driver/Src/stm32h7xx_ll_usb.c ****   uint32_t emp;
1292:Drivers/STM32H7xx_HAL_Driver/Src/stm32h7xx_ll_usb.c **** 
1293:Drivers/STM32H7xx_HAL_Driver/Src/stm32h7xx_ll_usb.c ****   msk = USBx_DEVICE->DIEPMSK;
1294:Drivers/STM32H7xx_HAL_Driver/Src/stm32h7xx_ll_usb.c ****   emp = USBx_DEVICE->DIEPEMPMSK;
1295:Drivers/STM32H7xx_HAL_Driver/Src/stm32h7xx_ll_usb.c ****   msk |= ((emp >> (epnum & EP_ADDR_MSK)) & 0x1U) << 7;
1296:Drivers/STM32H7xx_HAL_Driver/Src/stm32h7xx_ll_usb.c ****   tmpreg = USBx_INEP((uint32_t)epnum)->DIEPINT & msk;
1297:Drivers/STM32H7xx_HAL_Driver/Src/stm32h7xx_ll_usb.c **** 
1298:Drivers/STM32H7xx_HAL_Driver/Src/stm32h7xx_ll_usb.c ****   return tmpreg;
1299:Drivers/STM32H7xx_HAL_Driver/Src/stm32h7xx_ll_usb.c **** }
1300:Drivers/STM32H7xx_HAL_Driver/Src/stm32h7xx_ll_usb.c **** 
1301:Drivers/STM32H7xx_HAL_Driver/Src/stm32h7xx_ll_usb.c **** /**
1302:Drivers/STM32H7xx_HAL_Driver/Src/stm32h7xx_ll_usb.c ****   * @brief  USB_ClearInterrupts: clear a USB interrupt
1303:Drivers/STM32H7xx_HAL_Driver/Src/stm32h7xx_ll_usb.c ****   * @param  USBx  Selected device
1304:Drivers/STM32H7xx_HAL_Driver/Src/stm32h7xx_ll_usb.c ****   * @param  interrupt  flag
1305:Drivers/STM32H7xx_HAL_Driver/Src/stm32h7xx_ll_usb.c ****   * @retval None
1306:Drivers/STM32H7xx_HAL_Driver/Src/stm32h7xx_ll_usb.c ****   */
1307:Drivers/STM32H7xx_HAL_Driver/Src/stm32h7xx_ll_usb.c **** void  USB_ClearInterrupts(USB_OTG_GlobalTypeDef *USBx, uint32_t interrupt)
1308:Drivers/STM32H7xx_HAL_Driver/Src/stm32h7xx_ll_usb.c **** {
1309:Drivers/STM32H7xx_HAL_Driver/Src/stm32h7xx_ll_usb.c ****   USBx->GINTSTS &= interrupt;
1310:Drivers/STM32H7xx_HAL_Driver/Src/stm32h7xx_ll_usb.c **** }
1311:Drivers/STM32H7xx_HAL_Driver/Src/stm32h7xx_ll_usb.c **** 
1312:Drivers/STM32H7xx_HAL_Driver/Src/stm32h7xx_ll_usb.c **** /**
1313:Drivers/STM32H7xx_HAL_Driver/Src/stm32h7xx_ll_usb.c ****   * @brief  Returns USB core mode
1314:Drivers/STM32H7xx_HAL_Driver/Src/stm32h7xx_ll_usb.c ****   * @param  USBx  Selected device
1315:Drivers/STM32H7xx_HAL_Driver/Src/stm32h7xx_ll_usb.c ****   * @retval return core mode : Host or Device
1316:Drivers/STM32H7xx_HAL_Driver/Src/stm32h7xx_ll_usb.c ****   *          This parameter can be one of these values:
1317:Drivers/STM32H7xx_HAL_Driver/Src/stm32h7xx_ll_usb.c ****   *           0 : Host
1318:Drivers/STM32H7xx_HAL_Driver/Src/stm32h7xx_ll_usb.c ****   *           1 : Device
1319:Drivers/STM32H7xx_HAL_Driver/Src/stm32h7xx_ll_usb.c ****   */
1320:Drivers/STM32H7xx_HAL_Driver/Src/stm32h7xx_ll_usb.c **** uint32_t USB_GetMode(const USB_OTG_GlobalTypeDef *USBx)
1321:Drivers/STM32H7xx_HAL_Driver/Src/stm32h7xx_ll_usb.c **** {
1322:Drivers/STM32H7xx_HAL_Driver/Src/stm32h7xx_ll_usb.c ****   return ((USBx->GINTSTS) & 0x1U);
1323:Drivers/STM32H7xx_HAL_Driver/Src/stm32h7xx_ll_usb.c **** }
1324:Drivers/STM32H7xx_HAL_Driver/Src/stm32h7xx_ll_usb.c **** 
1325:Drivers/STM32H7xx_HAL_Driver/Src/stm32h7xx_ll_usb.c **** /**
1326:Drivers/STM32H7xx_HAL_Driver/Src/stm32h7xx_ll_usb.c ****   * @brief  Activate EP0 for Setup transactions
1327:Drivers/STM32H7xx_HAL_Driver/Src/stm32h7xx_ll_usb.c ****   * @param  USBx  Selected device
1328:Drivers/STM32H7xx_HAL_Driver/Src/stm32h7xx_ll_usb.c ****   * @retval HAL status
1329:Drivers/STM32H7xx_HAL_Driver/Src/stm32h7xx_ll_usb.c ****   */
1330:Drivers/STM32H7xx_HAL_Driver/Src/stm32h7xx_ll_usb.c **** HAL_StatusTypeDef USB_ActivateSetup(const USB_OTG_GlobalTypeDef *USBx)
1331:Drivers/STM32H7xx_HAL_Driver/Src/stm32h7xx_ll_usb.c **** {
1332:Drivers/STM32H7xx_HAL_Driver/Src/stm32h7xx_ll_usb.c ****   uint32_t USBx_BASE = (uint32_t)USBx;
1333:Drivers/STM32H7xx_HAL_Driver/Src/stm32h7xx_ll_usb.c **** 
1334:Drivers/STM32H7xx_HAL_Driver/Src/stm32h7xx_ll_usb.c ****   /* Set the MPS of the IN EP0 to 64 bytes */
1335:Drivers/STM32H7xx_HAL_Driver/Src/stm32h7xx_ll_usb.c ****   USBx_INEP(0U)->DIEPCTL &= ~USB_OTG_DIEPCTL_MPSIZ;
1336:Drivers/STM32H7xx_HAL_Driver/Src/stm32h7xx_ll_usb.c **** 
1337:Drivers/STM32H7xx_HAL_Driver/Src/stm32h7xx_ll_usb.c ****   USBx_DEVICE->DCTL |= USB_OTG_DCTL_CGINAK;
1338:Drivers/STM32H7xx_HAL_Driver/Src/stm32h7xx_ll_usb.c **** 
1339:Drivers/STM32H7xx_HAL_Driver/Src/stm32h7xx_ll_usb.c ****   return HAL_OK;
1340:Drivers/STM32H7xx_HAL_Driver/Src/stm32h7xx_ll_usb.c **** }
1341:Drivers/STM32H7xx_HAL_Driver/Src/stm32h7xx_ll_usb.c **** 
1342:Drivers/STM32H7xx_HAL_Driver/Src/stm32h7xx_ll_usb.c **** /**
ARM GAS  C:\Users\PgRick\AppData\Local\Temp\ccFebq6t.s 			page 25


1343:Drivers/STM32H7xx_HAL_Driver/Src/stm32h7xx_ll_usb.c ****   * @brief  Prepare the EP0 to start the first control setup
1344:Drivers/STM32H7xx_HAL_Driver/Src/stm32h7xx_ll_usb.c ****   * @param  USBx  Selected device
1345:Drivers/STM32H7xx_HAL_Driver/Src/stm32h7xx_ll_usb.c ****   * @param  dma USB dma enabled or disabled
1346:Drivers/STM32H7xx_HAL_Driver/Src/stm32h7xx_ll_usb.c ****   *          This parameter can be one of these values:
1347:Drivers/STM32H7xx_HAL_Driver/Src/stm32h7xx_ll_usb.c ****   *           0 : DMA feature not used
1348:Drivers/STM32H7xx_HAL_Driver/Src/stm32h7xx_ll_usb.c ****   *           1 : DMA feature used
1349:Drivers/STM32H7xx_HAL_Driver/Src/stm32h7xx_ll_usb.c ****   * @param  psetup  pointer to setup packet
1350:Drivers/STM32H7xx_HAL_Driver/Src/stm32h7xx_ll_usb.c ****   * @retval HAL status
1351:Drivers/STM32H7xx_HAL_Driver/Src/stm32h7xx_ll_usb.c ****   */
1352:Drivers/STM32H7xx_HAL_Driver/Src/stm32h7xx_ll_usb.c **** HAL_StatusTypeDef USB_EP0_OutStart(const USB_OTG_GlobalTypeDef *USBx, uint8_t dma, const uint8_t *p
1353:Drivers/STM32H7xx_HAL_Driver/Src/stm32h7xx_ll_usb.c **** {
1354:Drivers/STM32H7xx_HAL_Driver/Src/stm32h7xx_ll_usb.c ****   uint32_t USBx_BASE = (uint32_t)USBx;
1355:Drivers/STM32H7xx_HAL_Driver/Src/stm32h7xx_ll_usb.c ****   uint32_t gSNPSiD = *(__IO const uint32_t *)(&USBx->CID + 0x1U);
1356:Drivers/STM32H7xx_HAL_Driver/Src/stm32h7xx_ll_usb.c **** 
1357:Drivers/STM32H7xx_HAL_Driver/Src/stm32h7xx_ll_usb.c ****   if (gSNPSiD > USB_OTG_CORE_ID_300A)
1358:Drivers/STM32H7xx_HAL_Driver/Src/stm32h7xx_ll_usb.c ****   {
1359:Drivers/STM32H7xx_HAL_Driver/Src/stm32h7xx_ll_usb.c ****     if ((USBx_OUTEP(0U)->DOEPCTL & USB_OTG_DOEPCTL_EPENA) == USB_OTG_DOEPCTL_EPENA)
1360:Drivers/STM32H7xx_HAL_Driver/Src/stm32h7xx_ll_usb.c ****     {
1361:Drivers/STM32H7xx_HAL_Driver/Src/stm32h7xx_ll_usb.c ****       return HAL_OK;
1362:Drivers/STM32H7xx_HAL_Driver/Src/stm32h7xx_ll_usb.c ****     }
1363:Drivers/STM32H7xx_HAL_Driver/Src/stm32h7xx_ll_usb.c ****   }
1364:Drivers/STM32H7xx_HAL_Driver/Src/stm32h7xx_ll_usb.c **** 
1365:Drivers/STM32H7xx_HAL_Driver/Src/stm32h7xx_ll_usb.c ****   USBx_OUTEP(0U)->DOEPTSIZ = 0U;
1366:Drivers/STM32H7xx_HAL_Driver/Src/stm32h7xx_ll_usb.c ****   USBx_OUTEP(0U)->DOEPTSIZ |= (USB_OTG_DOEPTSIZ_PKTCNT & (1U << 19));
1367:Drivers/STM32H7xx_HAL_Driver/Src/stm32h7xx_ll_usb.c ****   USBx_OUTEP(0U)->DOEPTSIZ |= (3U * 8U);
1368:Drivers/STM32H7xx_HAL_Driver/Src/stm32h7xx_ll_usb.c ****   USBx_OUTEP(0U)->DOEPTSIZ |=  USB_OTG_DOEPTSIZ_STUPCNT;
1369:Drivers/STM32H7xx_HAL_Driver/Src/stm32h7xx_ll_usb.c **** 
1370:Drivers/STM32H7xx_HAL_Driver/Src/stm32h7xx_ll_usb.c ****   if (dma == 1U)
1371:Drivers/STM32H7xx_HAL_Driver/Src/stm32h7xx_ll_usb.c ****   {
1372:Drivers/STM32H7xx_HAL_Driver/Src/stm32h7xx_ll_usb.c ****     USBx_OUTEP(0U)->DOEPDMA = (uint32_t)psetup;
1373:Drivers/STM32H7xx_HAL_Driver/Src/stm32h7xx_ll_usb.c ****     /* EP enable */
1374:Drivers/STM32H7xx_HAL_Driver/Src/stm32h7xx_ll_usb.c ****     USBx_OUTEP(0U)->DOEPCTL |= USB_OTG_DOEPCTL_EPENA | USB_OTG_DOEPCTL_USBAEP;
1375:Drivers/STM32H7xx_HAL_Driver/Src/stm32h7xx_ll_usb.c ****   }
1376:Drivers/STM32H7xx_HAL_Driver/Src/stm32h7xx_ll_usb.c **** 
1377:Drivers/STM32H7xx_HAL_Driver/Src/stm32h7xx_ll_usb.c ****   return HAL_OK;
1378:Drivers/STM32H7xx_HAL_Driver/Src/stm32h7xx_ll_usb.c **** }
1379:Drivers/STM32H7xx_HAL_Driver/Src/stm32h7xx_ll_usb.c **** 
1380:Drivers/STM32H7xx_HAL_Driver/Src/stm32h7xx_ll_usb.c **** /**
1381:Drivers/STM32H7xx_HAL_Driver/Src/stm32h7xx_ll_usb.c ****   * @brief  Reset the USB Core (needed after USB clock settings change)
1382:Drivers/STM32H7xx_HAL_Driver/Src/stm32h7xx_ll_usb.c ****   * @param  USBx  Selected device
1383:Drivers/STM32H7xx_HAL_Driver/Src/stm32h7xx_ll_usb.c ****   * @retval HAL status
1384:Drivers/STM32H7xx_HAL_Driver/Src/stm32h7xx_ll_usb.c ****   */
1385:Drivers/STM32H7xx_HAL_Driver/Src/stm32h7xx_ll_usb.c **** static HAL_StatusTypeDef USB_CoreReset(USB_OTG_GlobalTypeDef *USBx)
1386:Drivers/STM32H7xx_HAL_Driver/Src/stm32h7xx_ll_usb.c **** {
  28              		.loc 1 1386 1 view -0
  29              		.cfi_startproc
  30              		@ args = 0, pretend = 0, frame = 8
  31              		@ frame_needed = 0, uses_anonymous_args = 0
  32              		@ link register save eliminated.
  33              		.loc 1 1386 1 is_stmt 0 view .LVU1
  34 0000 82B0     		sub	sp, sp, #8
  35              	.LCFI0:
  36              		.cfi_def_cfa_offset 8
1387:Drivers/STM32H7xx_HAL_Driver/Src/stm32h7xx_ll_usb.c ****   __IO uint32_t count = 0U;
  37              		.loc 1 1387 3 is_stmt 1 view .LVU2
  38              		.loc 1 1387 17 is_stmt 0 view .LVU3
  39 0002 0023     		movs	r3, #0
ARM GAS  C:\Users\PgRick\AppData\Local\Temp\ccFebq6t.s 			page 26


  40 0004 0193     		str	r3, [sp, #4]
  41              	.L3:
1388:Drivers/STM32H7xx_HAL_Driver/Src/stm32h7xx_ll_usb.c **** 
1389:Drivers/STM32H7xx_HAL_Driver/Src/stm32h7xx_ll_usb.c ****   /* Wait for AHB master IDLE state. */
1390:Drivers/STM32H7xx_HAL_Driver/Src/stm32h7xx_ll_usb.c ****   do
  42              		.loc 1 1390 3 is_stmt 1 view .LVU4
1391:Drivers/STM32H7xx_HAL_Driver/Src/stm32h7xx_ll_usb.c ****   {
1392:Drivers/STM32H7xx_HAL_Driver/Src/stm32h7xx_ll_usb.c ****     count++;
  43              		.loc 1 1392 5 view .LVU5
  44              		.loc 1 1392 10 is_stmt 0 view .LVU6
  45 0006 019B     		ldr	r3, [sp, #4]
  46 0008 0133     		adds	r3, r3, #1
  47 000a 0193     		str	r3, [sp, #4]
1393:Drivers/STM32H7xx_HAL_Driver/Src/stm32h7xx_ll_usb.c **** 
1394:Drivers/STM32H7xx_HAL_Driver/Src/stm32h7xx_ll_usb.c ****     if (count > HAL_USB_TIMEOUT)
  48              		.loc 1 1394 5 is_stmt 1 view .LVU7
  49              		.loc 1 1394 15 is_stmt 0 view .LVU8
  50 000c 019B     		ldr	r3, [sp, #4]
  51              		.loc 1 1394 8 view .LVU9
  52 000e B3F1706F 		cmp	r3, #251658240
  53 0012 15D8     		bhi	.L5
1395:Drivers/STM32H7xx_HAL_Driver/Src/stm32h7xx_ll_usb.c ****     {
1396:Drivers/STM32H7xx_HAL_Driver/Src/stm32h7xx_ll_usb.c ****       return HAL_TIMEOUT;
1397:Drivers/STM32H7xx_HAL_Driver/Src/stm32h7xx_ll_usb.c ****     }
1398:Drivers/STM32H7xx_HAL_Driver/Src/stm32h7xx_ll_usb.c ****   } while ((USBx->GRSTCTL & USB_OTG_GRSTCTL_AHBIDL) == 0U);
  54              		.loc 1 1398 11 is_stmt 1 view .LVU10
  55              		.loc 1 1398 17 is_stmt 0 view .LVU11
  56 0014 0369     		ldr	r3, [r0, #16]
  57              		.loc 1 1398 3 view .LVU12
  58 0016 002B     		cmp	r3, #0
  59 0018 F5DA     		bge	.L3
1399:Drivers/STM32H7xx_HAL_Driver/Src/stm32h7xx_ll_usb.c **** 
1400:Drivers/STM32H7xx_HAL_Driver/Src/stm32h7xx_ll_usb.c ****   /* Core Soft Reset */
1401:Drivers/STM32H7xx_HAL_Driver/Src/stm32h7xx_ll_usb.c ****   count = 0U;
  60              		.loc 1 1401 3 is_stmt 1 view .LVU13
  61              		.loc 1 1401 9 is_stmt 0 view .LVU14
  62 001a 0023     		movs	r3, #0
  63 001c 0193     		str	r3, [sp, #4]
1402:Drivers/STM32H7xx_HAL_Driver/Src/stm32h7xx_ll_usb.c ****   USBx->GRSTCTL |= USB_OTG_GRSTCTL_CSRST;
  64              		.loc 1 1402 3 is_stmt 1 view .LVU15
  65              		.loc 1 1402 17 is_stmt 0 view .LVU16
  66 001e 0369     		ldr	r3, [r0, #16]
  67 0020 43F00103 		orr	r3, r3, #1
  68 0024 0361     		str	r3, [r0, #16]
  69              	.L4:
1403:Drivers/STM32H7xx_HAL_Driver/Src/stm32h7xx_ll_usb.c **** 
1404:Drivers/STM32H7xx_HAL_Driver/Src/stm32h7xx_ll_usb.c ****   do
  70              		.loc 1 1404 3 is_stmt 1 view .LVU17
1405:Drivers/STM32H7xx_HAL_Driver/Src/stm32h7xx_ll_usb.c ****   {
1406:Drivers/STM32H7xx_HAL_Driver/Src/stm32h7xx_ll_usb.c ****     count++;
  71              		.loc 1 1406 5 view .LVU18
  72              		.loc 1 1406 10 is_stmt 0 view .LVU19
  73 0026 019B     		ldr	r3, [sp, #4]
  74 0028 0133     		adds	r3, r3, #1
  75 002a 0193     		str	r3, [sp, #4]
1407:Drivers/STM32H7xx_HAL_Driver/Src/stm32h7xx_ll_usb.c **** 
1408:Drivers/STM32H7xx_HAL_Driver/Src/stm32h7xx_ll_usb.c ****     if (count > HAL_USB_TIMEOUT)
ARM GAS  C:\Users\PgRick\AppData\Local\Temp\ccFebq6t.s 			page 27


  76              		.loc 1 1408 5 is_stmt 1 view .LVU20
  77              		.loc 1 1408 15 is_stmt 0 view .LVU21
  78 002c 019B     		ldr	r3, [sp, #4]
  79              		.loc 1 1408 8 view .LVU22
  80 002e B3F1706F 		cmp	r3, #251658240
  81 0032 08D8     		bhi	.L6
1409:Drivers/STM32H7xx_HAL_Driver/Src/stm32h7xx_ll_usb.c ****     {
1410:Drivers/STM32H7xx_HAL_Driver/Src/stm32h7xx_ll_usb.c ****       return HAL_TIMEOUT;
1411:Drivers/STM32H7xx_HAL_Driver/Src/stm32h7xx_ll_usb.c ****     }
1412:Drivers/STM32H7xx_HAL_Driver/Src/stm32h7xx_ll_usb.c ****   } while ((USBx->GRSTCTL & USB_OTG_GRSTCTL_CSRST) == USB_OTG_GRSTCTL_CSRST);
  82              		.loc 1 1412 11 is_stmt 1 view .LVU23
  83              		.loc 1 1412 17 is_stmt 0 view .LVU24
  84 0034 0369     		ldr	r3, [r0, #16]
  85              		.loc 1 1412 3 view .LVU25
  86 0036 13F0010F 		tst	r3, #1
  87 003a F4D1     		bne	.L4
1413:Drivers/STM32H7xx_HAL_Driver/Src/stm32h7xx_ll_usb.c **** 
1414:Drivers/STM32H7xx_HAL_Driver/Src/stm32h7xx_ll_usb.c ****   return HAL_OK;
  88              		.loc 1 1414 10 view .LVU26
  89 003c 0020     		movs	r0, #0
  90              	.LVL1:
  91              		.loc 1 1414 10 view .LVU27
  92 003e 00E0     		b	.L2
  93              	.LVL2:
  94              	.L5:
1396:Drivers/STM32H7xx_HAL_Driver/Src/stm32h7xx_ll_usb.c ****     }
  95              		.loc 1 1396 14 view .LVU28
  96 0040 0320     		movs	r0, #3
  97              	.LVL3:
  98              	.L2:
1415:Drivers/STM32H7xx_HAL_Driver/Src/stm32h7xx_ll_usb.c **** }
  99              		.loc 1 1415 1 view .LVU29
 100 0042 02B0     		add	sp, sp, #8
 101              	.LCFI1:
 102              		.cfi_remember_state
 103              		.cfi_def_cfa_offset 0
 104              		@ sp needed
 105 0044 7047     		bx	lr
 106              	.LVL4:
 107              	.L6:
 108              	.LCFI2:
 109              		.cfi_restore_state
1410:Drivers/STM32H7xx_HAL_Driver/Src/stm32h7xx_ll_usb.c ****     }
 110              		.loc 1 1410 14 view .LVU30
 111 0046 0320     		movs	r0, #3
 112              	.LVL5:
1410:Drivers/STM32H7xx_HAL_Driver/Src/stm32h7xx_ll_usb.c ****     }
 113              		.loc 1 1410 14 view .LVU31
 114 0048 FBE7     		b	.L2
 115              		.cfi_endproc
 116              	.LFE178:
 118              		.section	.text.USB_CoreInit,"ax",%progbits
 119              		.align	1
 120              		.global	USB_CoreInit
 121              		.syntax unified
 122              		.thumb
 123              		.thumb_func
ARM GAS  C:\Users\PgRick\AppData\Local\Temp\ccFebq6t.s 			page 28


 125              	USB_CoreInit:
 126              	.LVL6:
 127              	.LFB144:
  84:Drivers/STM32H7xx_HAL_Driver/Src/stm32h7xx_ll_usb.c ****   HAL_StatusTypeDef ret;
 128              		.loc 1 84 1 is_stmt 1 view -0
 129              		.cfi_startproc
 130              		@ args = 20, pretend = 16, frame = 0
 131              		@ frame_needed = 0, uses_anonymous_args = 0
  84:Drivers/STM32H7xx_HAL_Driver/Src/stm32h7xx_ll_usb.c ****   HAL_StatusTypeDef ret;
 132              		.loc 1 84 1 is_stmt 0 view .LVU33
 133 0000 84B0     		sub	sp, sp, #16
 134              	.LCFI3:
 135              		.cfi_def_cfa_offset 16
 136 0002 10B5     		push	{r4, lr}
 137              	.LCFI4:
 138              		.cfi_def_cfa_offset 24
 139              		.cfi_offset 4, -24
 140              		.cfi_offset 14, -20
 141 0004 0446     		mov	r4, r0
 142 0006 03A8     		add	r0, sp, #12
 143 0008 80E80E00 		stm	r0, {r1, r2, r3}
  85:Drivers/STM32H7xx_HAL_Driver/Src/stm32h7xx_ll_usb.c ****   if (cfg.phy_itface == USB_OTG_ULPI_PHY)
 144              		.loc 1 85 3 is_stmt 1 view .LVU34
  86:Drivers/STM32H7xx_HAL_Driver/Src/stm32h7xx_ll_usb.c ****   {
 145              		.loc 1 86 3 view .LVU35
  86:Drivers/STM32H7xx_HAL_Driver/Src/stm32h7xx_ll_usb.c ****   {
 146              		.loc 1 86 10 is_stmt 0 view .LVU36
 147 000c 9DF81130 		ldrb	r3, [sp, #17]	@ zero_extendqisi2
  86:Drivers/STM32H7xx_HAL_Driver/Src/stm32h7xx_ll_usb.c ****   {
 148              		.loc 1 86 6 view .LVU37
 149 0010 012B     		cmp	r3, #1
 150 0012 1FD1     		bne	.L9
  88:Drivers/STM32H7xx_HAL_Driver/Src/stm32h7xx_ll_usb.c **** 
 151              		.loc 1 88 5 is_stmt 1 view .LVU38
  88:Drivers/STM32H7xx_HAL_Driver/Src/stm32h7xx_ll_usb.c **** 
 152              		.loc 1 88 17 is_stmt 0 view .LVU39
 153 0014 A36B     		ldr	r3, [r4, #56]
 154 0016 23F48033 		bic	r3, r3, #65536
 155 001a A363     		str	r3, [r4, #56]
  91:Drivers/STM32H7xx_HAL_Driver/Src/stm32h7xx_ll_usb.c **** 
 156              		.loc 1 91 5 is_stmt 1 view .LVU40
  91:Drivers/STM32H7xx_HAL_Driver/Src/stm32h7xx_ll_usb.c **** 
 157              		.loc 1 91 19 is_stmt 0 view .LVU41
 158 001c E268     		ldr	r2, [r4, #12]
 159 001e 1F4B     		ldr	r3, .L17
 160 0020 1340     		ands	r3, r3, r2
 161 0022 E360     		str	r3, [r4, #12]
  94:Drivers/STM32H7xx_HAL_Driver/Src/stm32h7xx_ll_usb.c ****     if (cfg.use_external_vbus == 1U)
 162              		.loc 1 94 5 is_stmt 1 view .LVU42
  94:Drivers/STM32H7xx_HAL_Driver/Src/stm32h7xx_ll_usb.c ****     if (cfg.use_external_vbus == 1U)
 163              		.loc 1 94 19 is_stmt 0 view .LVU43
 164 0024 E368     		ldr	r3, [r4, #12]
 165 0026 23F44013 		bic	r3, r3, #3145728
 166 002a E360     		str	r3, [r4, #12]
  95:Drivers/STM32H7xx_HAL_Driver/Src/stm32h7xx_ll_usb.c ****     {
 167              		.loc 1 95 5 is_stmt 1 view .LVU44
  95:Drivers/STM32H7xx_HAL_Driver/Src/stm32h7xx_ll_usb.c ****     {
ARM GAS  C:\Users\PgRick\AppData\Local\Temp\ccFebq6t.s 			page 29


 168              		.loc 1 95 12 is_stmt 0 view .LVU45
 169 002c 9DF81830 		ldrb	r3, [sp, #24]	@ zero_extendqisi2
  95:Drivers/STM32H7xx_HAL_Driver/Src/stm32h7xx_ll_usb.c ****     {
 170              		.loc 1 95 8 view .LVU46
 171 0030 012B     		cmp	r3, #1
 172 0032 0AD0     		beq	.L15
 173              	.L10:
 101:Drivers/STM32H7xx_HAL_Driver/Src/stm32h7xx_ll_usb.c ****   }
 174              		.loc 1 101 5 is_stmt 1 view .LVU47
 101:Drivers/STM32H7xx_HAL_Driver/Src/stm32h7xx_ll_usb.c ****   }
 175              		.loc 1 101 11 is_stmt 0 view .LVU48
 176 0034 2046     		mov	r0, r4
 177              	.LVL7:
 101:Drivers/STM32H7xx_HAL_Driver/Src/stm32h7xx_ll_usb.c ****   }
 178              		.loc 1 101 11 view .LVU49
 179 0036 FFF7FEFF 		bl	USB_CoreReset
 180              	.LVL8:
 181              	.L11:
 123:Drivers/STM32H7xx_HAL_Driver/Src/stm32h7xx_ll_usb.c ****   {
 182              		.loc 1 123 3 is_stmt 1 view .LVU50
 123:Drivers/STM32H7xx_HAL_Driver/Src/stm32h7xx_ll_usb.c ****   {
 183              		.loc 1 123 10 is_stmt 0 view .LVU51
 184 003a 9DF80E30 		ldrb	r3, [sp, #14]	@ zero_extendqisi2
 123:Drivers/STM32H7xx_HAL_Driver/Src/stm32h7xx_ll_usb.c ****   {
 185              		.loc 1 123 6 view .LVU52
 186 003e 012B     		cmp	r3, #1
 187 0040 1CD0     		beq	.L16
 188              	.L13:
 133:Drivers/STM32H7xx_HAL_Driver/Src/stm32h7xx_ll_usb.c **** }
 189              		.loc 1 133 3 is_stmt 1 view .LVU53
 134:Drivers/STM32H7xx_HAL_Driver/Src/stm32h7xx_ll_usb.c **** 
 190              		.loc 1 134 1 is_stmt 0 view .LVU54
 191 0042 BDE81040 		pop	{r4, lr}
 192              	.LCFI5:
 193              		.cfi_remember_state
 194              		.cfi_restore 14
 195              		.cfi_restore 4
 196              		.cfi_def_cfa_offset 16
 197              	.LVL9:
 134:Drivers/STM32H7xx_HAL_Driver/Src/stm32h7xx_ll_usb.c **** 
 198              		.loc 1 134 1 view .LVU55
 199 0046 04B0     		add	sp, sp, #16
 200              	.LCFI6:
 201              		.cfi_def_cfa_offset 0
 202 0048 7047     		bx	lr
 203              	.LVL10:
 204              	.L15:
 205              	.LCFI7:
 206              		.cfi_restore_state
  97:Drivers/STM32H7xx_HAL_Driver/Src/stm32h7xx_ll_usb.c ****     }
 207              		.loc 1 97 7 is_stmt 1 view .LVU56
  97:Drivers/STM32H7xx_HAL_Driver/Src/stm32h7xx_ll_usb.c ****     }
 208              		.loc 1 97 21 is_stmt 0 view .LVU57
 209 004a E368     		ldr	r3, [r4, #12]
 210 004c 43F48013 		orr	r3, r3, #1048576
 211 0050 E360     		str	r3, [r4, #12]
 212 0052 EFE7     		b	.L10
ARM GAS  C:\Users\PgRick\AppData\Local\Temp\ccFebq6t.s 			page 30


 213              	.L9:
 106:Drivers/STM32H7xx_HAL_Driver/Src/stm32h7xx_ll_usb.c **** 
 214              		.loc 1 106 5 is_stmt 1 view .LVU58
 106:Drivers/STM32H7xx_HAL_Driver/Src/stm32h7xx_ll_usb.c **** 
 215              		.loc 1 106 19 is_stmt 0 view .LVU59
 216 0054 E368     		ldr	r3, [r4, #12]
 217 0056 43F04003 		orr	r3, r3, #64
 218 005a E360     		str	r3, [r4, #12]
 109:Drivers/STM32H7xx_HAL_Driver/Src/stm32h7xx_ll_usb.c **** 
 219              		.loc 1 109 5 is_stmt 1 view .LVU60
 109:Drivers/STM32H7xx_HAL_Driver/Src/stm32h7xx_ll_usb.c **** 
 220              		.loc 1 109 11 is_stmt 0 view .LVU61
 221 005c 2046     		mov	r0, r4
 222              	.LVL11:
 109:Drivers/STM32H7xx_HAL_Driver/Src/stm32h7xx_ll_usb.c **** 
 223              		.loc 1 109 11 view .LVU62
 224 005e FFF7FEFF 		bl	USB_CoreReset
 225              	.LVL12:
 111:Drivers/STM32H7xx_HAL_Driver/Src/stm32h7xx_ll_usb.c ****     {
 226              		.loc 1 111 5 is_stmt 1 view .LVU63
 111:Drivers/STM32H7xx_HAL_Driver/Src/stm32h7xx_ll_usb.c ****     {
 227              		.loc 1 111 12 is_stmt 0 view .LVU64
 228 0062 9DF81530 		ldrb	r3, [sp, #21]	@ zero_extendqisi2
 111:Drivers/STM32H7xx_HAL_Driver/Src/stm32h7xx_ll_usb.c ****     {
 229              		.loc 1 111 8 view .LVU65
 230 0066 23B9     		cbnz	r3, .L12
 114:Drivers/STM32H7xx_HAL_Driver/Src/stm32h7xx_ll_usb.c ****     }
 231              		.loc 1 114 7 is_stmt 1 view .LVU66
 114:Drivers/STM32H7xx_HAL_Driver/Src/stm32h7xx_ll_usb.c ****     }
 232              		.loc 1 114 19 is_stmt 0 view .LVU67
 233 0068 A36B     		ldr	r3, [r4, #56]
 234 006a 43F48033 		orr	r3, r3, #65536
 235 006e A363     		str	r3, [r4, #56]
 236 0070 E3E7     		b	.L11
 237              	.L12:
 119:Drivers/STM32H7xx_HAL_Driver/Src/stm32h7xx_ll_usb.c ****     }
 238              		.loc 1 119 7 is_stmt 1 view .LVU68
 119:Drivers/STM32H7xx_HAL_Driver/Src/stm32h7xx_ll_usb.c ****     }
 239              		.loc 1 119 19 is_stmt 0 view .LVU69
 240 0072 A36B     		ldr	r3, [r4, #56]
 241 0074 23F48033 		bic	r3, r3, #65536
 242 0078 A363     		str	r3, [r4, #56]
 243 007a DEE7     		b	.L11
 244              	.L16:
 126:Drivers/STM32H7xx_HAL_Driver/Src/stm32h7xx_ll_usb.c ****     USBx->GDFIFOCFG |= 0x3EEU << 16;
 245              		.loc 1 126 5 is_stmt 1 view .LVU70
 126:Drivers/STM32H7xx_HAL_Driver/Src/stm32h7xx_ll_usb.c ****     USBx->GDFIFOCFG |= 0x3EEU << 16;
 246              		.loc 1 126 21 is_stmt 0 view .LVU71
 247 007c E36D     		ldr	r3, [r4, #92]
 248 007e 9BB2     		uxth	r3, r3
 249 0080 E365     		str	r3, [r4, #92]
 127:Drivers/STM32H7xx_HAL_Driver/Src/stm32h7xx_ll_usb.c **** 
 250              		.loc 1 127 5 is_stmt 1 view .LVU72
 127:Drivers/STM32H7xx_HAL_Driver/Src/stm32h7xx_ll_usb.c **** 
 251              		.loc 1 127 21 is_stmt 0 view .LVU73
 252 0082 E26D     		ldr	r2, [r4, #92]
 253 0084 064B     		ldr	r3, .L17+4
ARM GAS  C:\Users\PgRick\AppData\Local\Temp\ccFebq6t.s 			page 31


 254 0086 1343     		orrs	r3, r3, r2
 255 0088 E365     		str	r3, [r4, #92]
 129:Drivers/STM32H7xx_HAL_Driver/Src/stm32h7xx_ll_usb.c ****     USBx->GAHBCFG |= USB_OTG_GAHBCFG_DMAEN;
 256              		.loc 1 129 5 is_stmt 1 view .LVU74
 129:Drivers/STM32H7xx_HAL_Driver/Src/stm32h7xx_ll_usb.c ****     USBx->GAHBCFG |= USB_OTG_GAHBCFG_DMAEN;
 257              		.loc 1 129 19 is_stmt 0 view .LVU75
 258 008a A368     		ldr	r3, [r4, #8]
 259 008c 43F00603 		orr	r3, r3, #6
 260 0090 A360     		str	r3, [r4, #8]
 130:Drivers/STM32H7xx_HAL_Driver/Src/stm32h7xx_ll_usb.c ****   }
 261              		.loc 1 130 5 is_stmt 1 view .LVU76
 130:Drivers/STM32H7xx_HAL_Driver/Src/stm32h7xx_ll_usb.c ****   }
 262              		.loc 1 130 19 is_stmt 0 view .LVU77
 263 0092 A368     		ldr	r3, [r4, #8]
 264 0094 43F02003 		orr	r3, r3, #32
 265 0098 A360     		str	r3, [r4, #8]
 266 009a D2E7     		b	.L13
 267              	.L18:
 268              		.align	2
 269              	.L17:
 270 009c BFFFBDFF 		.word	-4325441
 271 00a0 0000EE03 		.word	65929216
 272              		.cfi_endproc
 273              	.LFE144:
 275              		.section	.text.USB_SetTurnaroundTime,"ax",%progbits
 276              		.align	1
 277              		.global	USB_SetTurnaroundTime
 278              		.syntax unified
 279              		.thumb
 280              		.thumb_func
 282              	USB_SetTurnaroundTime:
 283              	.LVL13:
 284              	.LFB145:
 145:Drivers/STM32H7xx_HAL_Driver/Src/stm32h7xx_ll_usb.c ****   uint32_t UsbTrd;
 285              		.loc 1 145 1 is_stmt 1 view -0
 286              		.cfi_startproc
 287              		@ args = 0, pretend = 0, frame = 0
 288              		@ frame_needed = 0, uses_anonymous_args = 0
 289              		@ link register save eliminated.
 146:Drivers/STM32H7xx_HAL_Driver/Src/stm32h7xx_ll_usb.c **** 
 290              		.loc 1 146 3 view .LVU79
 152:Drivers/STM32H7xx_HAL_Driver/Src/stm32h7xx_ll_usb.c ****   {
 291              		.loc 1 152 3 view .LVU80
 152:Drivers/STM32H7xx_HAL_Driver/Src/stm32h7xx_ll_usb.c ****   {
 292              		.loc 1 152 6 is_stmt 0 view .LVU81
 293 0000 022A     		cmp	r2, #2
 294 0002 0AD0     		beq	.L31
 207:Drivers/STM32H7xx_HAL_Driver/Src/stm32h7xx_ll_usb.c ****   }
 295              		.loc 1 207 12 view .LVU82
 296 0004 0921     		movs	r1, #9
 297              	.LVL14:
 298              	.L20:
 214:Drivers/STM32H7xx_HAL_Driver/Src/stm32h7xx_ll_usb.c ****   USBx->GUSBCFG |= (uint32_t)((UsbTrd << 10) & USB_OTG_GUSBCFG_TRDT);
 299              		.loc 1 214 3 is_stmt 1 view .LVU83
 214:Drivers/STM32H7xx_HAL_Driver/Src/stm32h7xx_ll_usb.c ****   USBx->GUSBCFG |= (uint32_t)((UsbTrd << 10) & USB_OTG_GUSBCFG_TRDT);
 300              		.loc 1 214 17 is_stmt 0 view .LVU84
 301 0006 C268     		ldr	r2, [r0, #12]
ARM GAS  C:\Users\PgRick\AppData\Local\Temp\ccFebq6t.s 			page 32


 302 0008 22F47052 		bic	r2, r2, #15360
 303 000c C260     		str	r2, [r0, #12]
 215:Drivers/STM32H7xx_HAL_Driver/Src/stm32h7xx_ll_usb.c **** 
 304              		.loc 1 215 3 is_stmt 1 view .LVU85
 215:Drivers/STM32H7xx_HAL_Driver/Src/stm32h7xx_ll_usb.c **** 
 305              		.loc 1 215 17 is_stmt 0 view .LVU86
 306 000e C368     		ldr	r3, [r0, #12]
 307 0010 43EA8123 		orr	r3, r3, r1, lsl #10
 308 0014 C360     		str	r3, [r0, #12]
 217:Drivers/STM32H7xx_HAL_Driver/Src/stm32h7xx_ll_usb.c **** }
 309              		.loc 1 217 3 is_stmt 1 view .LVU87
 218:Drivers/STM32H7xx_HAL_Driver/Src/stm32h7xx_ll_usb.c **** 
 310              		.loc 1 218 1 is_stmt 0 view .LVU88
 311 0016 0020     		movs	r0, #0
 312              	.LVL15:
 218:Drivers/STM32H7xx_HAL_Driver/Src/stm32h7xx_ll_usb.c **** 
 313              		.loc 1 218 1 view .LVU89
 314 0018 7047     		bx	lr
 315              	.LVL16:
 316              	.L31:
 154:Drivers/STM32H7xx_HAL_Driver/Src/stm32h7xx_ll_usb.c ****     {
 317              		.loc 1 154 5 is_stmt 1 view .LVU90
 154:Drivers/STM32H7xx_HAL_Driver/Src/stm32h7xx_ll_usb.c ****     {
 318              		.loc 1 154 29 is_stmt 0 view .LVU91
 319 001a 204B     		ldr	r3, .L32
 320 001c 0B44     		add	r3, r3, r1
 154:Drivers/STM32H7xx_HAL_Driver/Src/stm32h7xx_ll_usb.c ****     {
 321              		.loc 1 154 8 view .LVU92
 322 001e 204A     		ldr	r2, .L32+4
 323              	.LVL17:
 154:Drivers/STM32H7xx_HAL_Driver/Src/stm32h7xx_ll_usb.c ****     {
 324              		.loc 1 154 8 view .LVU93
 325 0020 9342     		cmp	r3, r2
 326 0022 29D9     		bls	.L22
 159:Drivers/STM32H7xx_HAL_Driver/Src/stm32h7xx_ll_usb.c ****     {
 327              		.loc 1 159 10 is_stmt 1 view .LVU94
 159:Drivers/STM32H7xx_HAL_Driver/Src/stm32h7xx_ll_usb.c ****     {
 328              		.loc 1 159 34 is_stmt 0 view .LVU95
 329 0024 1F4B     		ldr	r3, .L32+8
 330 0026 0B44     		add	r3, r3, r1
 159:Drivers/STM32H7xx_HAL_Driver/Src/stm32h7xx_ll_usb.c ****     {
 331              		.loc 1 159 13 view .LVU96
 332 0028 1F4A     		ldr	r2, .L32+12
 333 002a 9342     		cmp	r3, r2
 334 002c 26D9     		bls	.L23
 164:Drivers/STM32H7xx_HAL_Driver/Src/stm32h7xx_ll_usb.c ****     {
 335              		.loc 1 164 10 is_stmt 1 view .LVU97
 164:Drivers/STM32H7xx_HAL_Driver/Src/stm32h7xx_ll_usb.c ****     {
 336              		.loc 1 164 34 is_stmt 0 view .LVU98
 337 002e 1F4B     		ldr	r3, .L32+16
 338 0030 0B44     		add	r3, r3, r1
 164:Drivers/STM32H7xx_HAL_Driver/Src/stm32h7xx_ll_usb.c ****     {
 339              		.loc 1 164 13 view .LVU99
 340 0032 1F4A     		ldr	r2, .L32+20
 341 0034 9342     		cmp	r3, r2
 342 0036 23D9     		bls	.L24
 169:Drivers/STM32H7xx_HAL_Driver/Src/stm32h7xx_ll_usb.c ****     {
ARM GAS  C:\Users\PgRick\AppData\Local\Temp\ccFebq6t.s 			page 33


 343              		.loc 1 169 10 is_stmt 1 view .LVU100
 169:Drivers/STM32H7xx_HAL_Driver/Src/stm32h7xx_ll_usb.c ****     {
 344              		.loc 1 169 34 is_stmt 0 view .LVU101
 345 0038 1E4B     		ldr	r3, .L32+24
 346 003a 0B44     		add	r3, r3, r1
 169:Drivers/STM32H7xx_HAL_Driver/Src/stm32h7xx_ll_usb.c ****     {
 347              		.loc 1 169 13 view .LVU102
 348 003c 1E4A     		ldr	r2, .L32+28
 349 003e 9342     		cmp	r3, r2
 350 0040 20D3     		bcc	.L25
 174:Drivers/STM32H7xx_HAL_Driver/Src/stm32h7xx_ll_usb.c ****     {
 351              		.loc 1 174 10 is_stmt 1 view .LVU103
 174:Drivers/STM32H7xx_HAL_Driver/Src/stm32h7xx_ll_usb.c ****     {
 352              		.loc 1 174 34 is_stmt 0 view .LVU104
 353 0042 1E4B     		ldr	r3, .L32+32
 354 0044 0B44     		add	r3, r3, r1
 174:Drivers/STM32H7xx_HAL_Driver/Src/stm32h7xx_ll_usb.c ****     {
 355              		.loc 1 174 13 view .LVU105
 356 0046 1E4A     		ldr	r2, .L32+36
 357 0048 9342     		cmp	r3, r2
 358 004a 1DD9     		bls	.L26
 179:Drivers/STM32H7xx_HAL_Driver/Src/stm32h7xx_ll_usb.c ****     {
 359              		.loc 1 179 10 is_stmt 1 view .LVU106
 179:Drivers/STM32H7xx_HAL_Driver/Src/stm32h7xx_ll_usb.c ****     {
 360              		.loc 1 179 34 is_stmt 0 view .LVU107
 361 004c 1D4B     		ldr	r3, .L32+40
 362 004e 0B44     		add	r3, r3, r1
 179:Drivers/STM32H7xx_HAL_Driver/Src/stm32h7xx_ll_usb.c ****     {
 363              		.loc 1 179 13 view .LVU108
 364 0050 1D4A     		ldr	r2, .L32+44
 365 0052 9342     		cmp	r3, r2
 366 0054 1AD3     		bcc	.L27
 184:Drivers/STM32H7xx_HAL_Driver/Src/stm32h7xx_ll_usb.c ****     {
 367              		.loc 1 184 10 is_stmt 1 view .LVU109
 184:Drivers/STM32H7xx_HAL_Driver/Src/stm32h7xx_ll_usb.c ****     {
 368              		.loc 1 184 34 is_stmt 0 view .LVU110
 369 0056 1D4B     		ldr	r3, .L32+48
 370 0058 0B44     		add	r3, r3, r1
 184:Drivers/STM32H7xx_HAL_Driver/Src/stm32h7xx_ll_usb.c ****     {
 371              		.loc 1 184 13 view .LVU111
 372 005a 1D4A     		ldr	r2, .L32+52
 373 005c 9342     		cmp	r3, r2
 374 005e 17D3     		bcc	.L28
 189:Drivers/STM32H7xx_HAL_Driver/Src/stm32h7xx_ll_usb.c ****     {
 375              		.loc 1 189 10 is_stmt 1 view .LVU112
 189:Drivers/STM32H7xx_HAL_Driver/Src/stm32h7xx_ll_usb.c ****     {
 376              		.loc 1 189 34 is_stmt 0 view .LVU113
 377 0060 1C4B     		ldr	r3, .L32+56
 378 0062 0B44     		add	r3, r3, r1
 189:Drivers/STM32H7xx_HAL_Driver/Src/stm32h7xx_ll_usb.c ****     {
 379              		.loc 1 189 13 view .LVU114
 380 0064 1C4A     		ldr	r2, .L32+60
 381 0066 9342     		cmp	r3, r2
 382 0068 14D3     		bcc	.L29
 194:Drivers/STM32H7xx_HAL_Driver/Src/stm32h7xx_ll_usb.c ****     {
 383              		.loc 1 194 10 is_stmt 1 view .LVU115
 194:Drivers/STM32H7xx_HAL_Driver/Src/stm32h7xx_ll_usb.c ****     {
ARM GAS  C:\Users\PgRick\AppData\Local\Temp\ccFebq6t.s 			page 34


 384              		.loc 1 194 34 is_stmt 0 view .LVU116
 385 006a 1C4B     		ldr	r3, .L32+64
 386 006c 0B44     		add	r3, r3, r1
 194:Drivers/STM32H7xx_HAL_Driver/Src/stm32h7xx_ll_usb.c ****     {
 387              		.loc 1 194 13 view .LVU117
 388 006e 1C4A     		ldr	r2, .L32+68
 389 0070 9342     		cmp	r3, r2
 390 0072 11D2     		bcs	.L30
 197:Drivers/STM32H7xx_HAL_Driver/Src/stm32h7xx_ll_usb.c ****     }
 391              		.loc 1 197 14 view .LVU118
 392 0074 0721     		movs	r1, #7
 393              	.LVL18:
 197:Drivers/STM32H7xx_HAL_Driver/Src/stm32h7xx_ll_usb.c ****     }
 394              		.loc 1 197 14 view .LVU119
 395 0076 C6E7     		b	.L20
 396              	.LVL19:
 397              	.L22:
 157:Drivers/STM32H7xx_HAL_Driver/Src/stm32h7xx_ll_usb.c ****     }
 398              		.loc 1 157 14 view .LVU120
 399 0078 0F21     		movs	r1, #15
 400              	.LVL20:
 157:Drivers/STM32H7xx_HAL_Driver/Src/stm32h7xx_ll_usb.c ****     }
 401              		.loc 1 157 14 view .LVU121
 402 007a C4E7     		b	.L20
 403              	.LVL21:
 404              	.L23:
 162:Drivers/STM32H7xx_HAL_Driver/Src/stm32h7xx_ll_usb.c ****     }
 405              		.loc 1 162 14 view .LVU122
 406 007c 0E21     		movs	r1, #14
 407              	.LVL22:
 162:Drivers/STM32H7xx_HAL_Driver/Src/stm32h7xx_ll_usb.c ****     }
 408              		.loc 1 162 14 view .LVU123
 409 007e C2E7     		b	.L20
 410              	.LVL23:
 411              	.L24:
 167:Drivers/STM32H7xx_HAL_Driver/Src/stm32h7xx_ll_usb.c ****     }
 412              		.loc 1 167 14 view .LVU124
 413 0080 0D21     		movs	r1, #13
 414              	.LVL24:
 167:Drivers/STM32H7xx_HAL_Driver/Src/stm32h7xx_ll_usb.c ****     }
 415              		.loc 1 167 14 view .LVU125
 416 0082 C0E7     		b	.L20
 417              	.LVL25:
 418              	.L25:
 172:Drivers/STM32H7xx_HAL_Driver/Src/stm32h7xx_ll_usb.c ****     }
 419              		.loc 1 172 14 view .LVU126
 420 0084 0C21     		movs	r1, #12
 421              	.LVL26:
 172:Drivers/STM32H7xx_HAL_Driver/Src/stm32h7xx_ll_usb.c ****     }
 422              		.loc 1 172 14 view .LVU127
 423 0086 BEE7     		b	.L20
 424              	.LVL27:
 425              	.L26:
 177:Drivers/STM32H7xx_HAL_Driver/Src/stm32h7xx_ll_usb.c ****     }
 426              		.loc 1 177 14 view .LVU128
 427 0088 0B21     		movs	r1, #11
 428              	.LVL28:
ARM GAS  C:\Users\PgRick\AppData\Local\Temp\ccFebq6t.s 			page 35


 177:Drivers/STM32H7xx_HAL_Driver/Src/stm32h7xx_ll_usb.c ****     }
 429              		.loc 1 177 14 view .LVU129
 430 008a BCE7     		b	.L20
 431              	.LVL29:
 432              	.L27:
 182:Drivers/STM32H7xx_HAL_Driver/Src/stm32h7xx_ll_usb.c ****     }
 433              		.loc 1 182 14 view .LVU130
 434 008c 0A21     		movs	r1, #10
 435              	.LVL30:
 182:Drivers/STM32H7xx_HAL_Driver/Src/stm32h7xx_ll_usb.c ****     }
 436              		.loc 1 182 14 view .LVU131
 437 008e BAE7     		b	.L20
 438              	.LVL31:
 439              	.L28:
 187:Drivers/STM32H7xx_HAL_Driver/Src/stm32h7xx_ll_usb.c ****     }
 440              		.loc 1 187 14 view .LVU132
 441 0090 0921     		movs	r1, #9
 442              	.LVL32:
 187:Drivers/STM32H7xx_HAL_Driver/Src/stm32h7xx_ll_usb.c ****     }
 443              		.loc 1 187 14 view .LVU133
 444 0092 B8E7     		b	.L20
 445              	.LVL33:
 446              	.L29:
 192:Drivers/STM32H7xx_HAL_Driver/Src/stm32h7xx_ll_usb.c ****     }
 447              		.loc 1 192 14 view .LVU134
 448 0094 0821     		movs	r1, #8
 449              	.LVL34:
 192:Drivers/STM32H7xx_HAL_Driver/Src/stm32h7xx_ll_usb.c ****     }
 450              		.loc 1 192 14 view .LVU135
 451 0096 B6E7     		b	.L20
 452              	.LVL35:
 453              	.L30:
 202:Drivers/STM32H7xx_HAL_Driver/Src/stm32h7xx_ll_usb.c ****     }
 454              		.loc 1 202 14 view .LVU136
 455 0098 0621     		movs	r1, #6
 456              	.LVL36:
 202:Drivers/STM32H7xx_HAL_Driver/Src/stm32h7xx_ll_usb.c ****     }
 457              		.loc 1 202 14 view .LVU137
 458 009a B4E7     		b	.L20
 459              	.L33:
 460              		.align	2
 461              	.L32:
 462 009c 405327FF 		.word	-14200000
 463 00a0 FF340C00 		.word	799999
 464 00a4 401E1BFF 		.word	-15000000
 465 00a8 3F420F00 		.word	999999
 466 00ac 00DC0BFF 		.word	-16000000
 467 00b0 7F4F1200 		.word	1199999
 468 00b4 808CF9FE 		.word	-17200000
 469 00b8 20D61300 		.word	1300000
 470 00bc 60B6E5FE 		.word	-18500000
 471 00c0 5FE31600 		.word	1499999
 472 00c4 00D3CEFE 		.word	-20000000
 473 00c8 40771B00 		.word	1800000
 474 00cc C05BB3FE 		.word	-21800000
 475 00d0 C0912100 		.word	2200000
 476 00d4 00CA91FE 		.word	-24000000
ARM GAS  C:\Users\PgRick\AppData\Local\Temp\ccFebq6t.s 			page 36


 477 00d8 20753800 		.word	3700000
 478 00dc E05459FE 		.word	-27700000
 479 00e0 E09C4100 		.word	4300000
 480              		.cfi_endproc
 481              	.LFE145:
 483              		.section	.text.USB_EnableGlobalInt,"ax",%progbits
 484              		.align	1
 485              		.global	USB_EnableGlobalInt
 486              		.syntax unified
 487              		.thumb
 488              		.thumb_func
 490              	USB_EnableGlobalInt:
 491              	.LVL37:
 492              	.LFB146:
 227:Drivers/STM32H7xx_HAL_Driver/Src/stm32h7xx_ll_usb.c ****   USBx->GAHBCFG |= USB_OTG_GAHBCFG_GINT;
 493              		.loc 1 227 1 is_stmt 1 view -0
 494              		.cfi_startproc
 495              		@ args = 0, pretend = 0, frame = 0
 496              		@ frame_needed = 0, uses_anonymous_args = 0
 497              		@ link register save eliminated.
 228:Drivers/STM32H7xx_HAL_Driver/Src/stm32h7xx_ll_usb.c ****   return HAL_OK;
 498              		.loc 1 228 3 view .LVU139
 228:Drivers/STM32H7xx_HAL_Driver/Src/stm32h7xx_ll_usb.c ****   return HAL_OK;
 499              		.loc 1 228 17 is_stmt 0 view .LVU140
 500 0000 8368     		ldr	r3, [r0, #8]
 501 0002 43F00103 		orr	r3, r3, #1
 502 0006 8360     		str	r3, [r0, #8]
 229:Drivers/STM32H7xx_HAL_Driver/Src/stm32h7xx_ll_usb.c **** }
 503              		.loc 1 229 3 is_stmt 1 view .LVU141
 230:Drivers/STM32H7xx_HAL_Driver/Src/stm32h7xx_ll_usb.c **** 
 504              		.loc 1 230 1 is_stmt 0 view .LVU142
 505 0008 0020     		movs	r0, #0
 506              	.LVL38:
 230:Drivers/STM32H7xx_HAL_Driver/Src/stm32h7xx_ll_usb.c **** 
 507              		.loc 1 230 1 view .LVU143
 508 000a 7047     		bx	lr
 509              		.cfi_endproc
 510              	.LFE146:
 512              		.section	.text.USB_DisableGlobalInt,"ax",%progbits
 513              		.align	1
 514              		.global	USB_DisableGlobalInt
 515              		.syntax unified
 516              		.thumb
 517              		.thumb_func
 519              	USB_DisableGlobalInt:
 520              	.LVL39:
 521              	.LFB147:
 239:Drivers/STM32H7xx_HAL_Driver/Src/stm32h7xx_ll_usb.c ****   USBx->GAHBCFG &= ~USB_OTG_GAHBCFG_GINT;
 522              		.loc 1 239 1 is_stmt 1 view -0
 523              		.cfi_startproc
 524              		@ args = 0, pretend = 0, frame = 0
 525              		@ frame_needed = 0, uses_anonymous_args = 0
 526              		@ link register save eliminated.
 240:Drivers/STM32H7xx_HAL_Driver/Src/stm32h7xx_ll_usb.c ****   return HAL_OK;
 527              		.loc 1 240 3 view .LVU145
 240:Drivers/STM32H7xx_HAL_Driver/Src/stm32h7xx_ll_usb.c ****   return HAL_OK;
 528              		.loc 1 240 17 is_stmt 0 view .LVU146
ARM GAS  C:\Users\PgRick\AppData\Local\Temp\ccFebq6t.s 			page 37


 529 0000 8368     		ldr	r3, [r0, #8]
 530 0002 23F00103 		bic	r3, r3, #1
 531 0006 8360     		str	r3, [r0, #8]
 241:Drivers/STM32H7xx_HAL_Driver/Src/stm32h7xx_ll_usb.c **** }
 532              		.loc 1 241 3 is_stmt 1 view .LVU147
 242:Drivers/STM32H7xx_HAL_Driver/Src/stm32h7xx_ll_usb.c **** 
 533              		.loc 1 242 1 is_stmt 0 view .LVU148
 534 0008 0020     		movs	r0, #0
 535              	.LVL40:
 242:Drivers/STM32H7xx_HAL_Driver/Src/stm32h7xx_ll_usb.c **** 
 536              		.loc 1 242 1 view .LVU149
 537 000a 7047     		bx	lr
 538              		.cfi_endproc
 539              	.LFE147:
 541              		.section	.text.USB_FlushTxFifo,"ax",%progbits
 542              		.align	1
 543              		.global	USB_FlushTxFifo
 544              		.syntax unified
 545              		.thumb
 546              		.thumb_func
 548              	USB_FlushTxFifo:
 549              	.LVL41:
 550              	.LFB150:
 453:Drivers/STM32H7xx_HAL_Driver/Src/stm32h7xx_ll_usb.c ****   __IO uint32_t count = 0U;
 551              		.loc 1 453 1 is_stmt 1 view -0
 552              		.cfi_startproc
 553              		@ args = 0, pretend = 0, frame = 8
 554              		@ frame_needed = 0, uses_anonymous_args = 0
 555              		@ link register save eliminated.
 453:Drivers/STM32H7xx_HAL_Driver/Src/stm32h7xx_ll_usb.c ****   __IO uint32_t count = 0U;
 556              		.loc 1 453 1 is_stmt 0 view .LVU151
 557 0000 82B0     		sub	sp, sp, #8
 558              	.LCFI8:
 559              		.cfi_def_cfa_offset 8
 454:Drivers/STM32H7xx_HAL_Driver/Src/stm32h7xx_ll_usb.c **** 
 560              		.loc 1 454 3 is_stmt 1 view .LVU152
 454:Drivers/STM32H7xx_HAL_Driver/Src/stm32h7xx_ll_usb.c **** 
 561              		.loc 1 454 17 is_stmt 0 view .LVU153
 562 0002 0023     		movs	r3, #0
 563 0004 0193     		str	r3, [sp, #4]
 564              	.L38:
 457:Drivers/STM32H7xx_HAL_Driver/Src/stm32h7xx_ll_usb.c ****   {
 565              		.loc 1 457 3 is_stmt 1 view .LVU154
 459:Drivers/STM32H7xx_HAL_Driver/Src/stm32h7xx_ll_usb.c **** 
 566              		.loc 1 459 5 view .LVU155
 459:Drivers/STM32H7xx_HAL_Driver/Src/stm32h7xx_ll_usb.c **** 
 567              		.loc 1 459 10 is_stmt 0 view .LVU156
 568 0006 019B     		ldr	r3, [sp, #4]
 569 0008 0133     		adds	r3, r3, #1
 570 000a 0193     		str	r3, [sp, #4]
 461:Drivers/STM32H7xx_HAL_Driver/Src/stm32h7xx_ll_usb.c ****     {
 571              		.loc 1 461 5 is_stmt 1 view .LVU157
 461:Drivers/STM32H7xx_HAL_Driver/Src/stm32h7xx_ll_usb.c ****     {
 572              		.loc 1 461 15 is_stmt 0 view .LVU158
 573 000c 019B     		ldr	r3, [sp, #4]
 461:Drivers/STM32H7xx_HAL_Driver/Src/stm32h7xx_ll_usb.c ****     {
 574              		.loc 1 461 8 view .LVU159
ARM GAS  C:\Users\PgRick\AppData\Local\Temp\ccFebq6t.s 			page 38


 575 000e B3F1706F 		cmp	r3, #251658240
 576 0012 15D8     		bhi	.L40
 465:Drivers/STM32H7xx_HAL_Driver/Src/stm32h7xx_ll_usb.c **** 
 577              		.loc 1 465 11 is_stmt 1 view .LVU160
 465:Drivers/STM32H7xx_HAL_Driver/Src/stm32h7xx_ll_usb.c **** 
 578              		.loc 1 465 17 is_stmt 0 view .LVU161
 579 0014 0369     		ldr	r3, [r0, #16]
 465:Drivers/STM32H7xx_HAL_Driver/Src/stm32h7xx_ll_usb.c **** 
 580              		.loc 1 465 3 view .LVU162
 581 0016 002B     		cmp	r3, #0
 582 0018 F5DA     		bge	.L38
 468:Drivers/STM32H7xx_HAL_Driver/Src/stm32h7xx_ll_usb.c ****   USBx->GRSTCTL = (USB_OTG_GRSTCTL_TXFFLSH | (num << 6));
 583              		.loc 1 468 3 is_stmt 1 view .LVU163
 468:Drivers/STM32H7xx_HAL_Driver/Src/stm32h7xx_ll_usb.c ****   USBx->GRSTCTL = (USB_OTG_GRSTCTL_TXFFLSH | (num << 6));
 584              		.loc 1 468 9 is_stmt 0 view .LVU164
 585 001a 0023     		movs	r3, #0
 586 001c 0193     		str	r3, [sp, #4]
 469:Drivers/STM32H7xx_HAL_Driver/Src/stm32h7xx_ll_usb.c **** 
 587              		.loc 1 469 3 is_stmt 1 view .LVU165
 469:Drivers/STM32H7xx_HAL_Driver/Src/stm32h7xx_ll_usb.c **** 
 588              		.loc 1 469 51 is_stmt 0 view .LVU166
 589 001e 8901     		lsls	r1, r1, #6
 590              	.LVL42:
 469:Drivers/STM32H7xx_HAL_Driver/Src/stm32h7xx_ll_usb.c **** 
 591              		.loc 1 469 44 view .LVU167
 592 0020 41F02001 		orr	r1, r1, #32
 469:Drivers/STM32H7xx_HAL_Driver/Src/stm32h7xx_ll_usb.c **** 
 593              		.loc 1 469 17 view .LVU168
 594 0024 0161     		str	r1, [r0, #16]
 595              	.L39:
 471:Drivers/STM32H7xx_HAL_Driver/Src/stm32h7xx_ll_usb.c ****   {
 596              		.loc 1 471 3 is_stmt 1 view .LVU169
 473:Drivers/STM32H7xx_HAL_Driver/Src/stm32h7xx_ll_usb.c **** 
 597              		.loc 1 473 5 view .LVU170
 473:Drivers/STM32H7xx_HAL_Driver/Src/stm32h7xx_ll_usb.c **** 
 598              		.loc 1 473 10 is_stmt 0 view .LVU171
 599 0026 019B     		ldr	r3, [sp, #4]
 600 0028 0133     		adds	r3, r3, #1
 601 002a 0193     		str	r3, [sp, #4]
 475:Drivers/STM32H7xx_HAL_Driver/Src/stm32h7xx_ll_usb.c ****     {
 602              		.loc 1 475 5 is_stmt 1 view .LVU172
 475:Drivers/STM32H7xx_HAL_Driver/Src/stm32h7xx_ll_usb.c ****     {
 603              		.loc 1 475 15 is_stmt 0 view .LVU173
 604 002c 019B     		ldr	r3, [sp, #4]
 475:Drivers/STM32H7xx_HAL_Driver/Src/stm32h7xx_ll_usb.c ****     {
 605              		.loc 1 475 8 view .LVU174
 606 002e B3F1706F 		cmp	r3, #251658240
 607 0032 08D8     		bhi	.L41
 479:Drivers/STM32H7xx_HAL_Driver/Src/stm32h7xx_ll_usb.c **** 
 608              		.loc 1 479 11 is_stmt 1 view .LVU175
 479:Drivers/STM32H7xx_HAL_Driver/Src/stm32h7xx_ll_usb.c **** 
 609              		.loc 1 479 17 is_stmt 0 view .LVU176
 610 0034 0369     		ldr	r3, [r0, #16]
 479:Drivers/STM32H7xx_HAL_Driver/Src/stm32h7xx_ll_usb.c **** 
 611              		.loc 1 479 3 view .LVU177
 612 0036 13F0200F 		tst	r3, #32
 613 003a F4D1     		bne	.L39
ARM GAS  C:\Users\PgRick\AppData\Local\Temp\ccFebq6t.s 			page 39


 481:Drivers/STM32H7xx_HAL_Driver/Src/stm32h7xx_ll_usb.c **** }
 614              		.loc 1 481 10 view .LVU178
 615 003c 0020     		movs	r0, #0
 616              	.LVL43:
 481:Drivers/STM32H7xx_HAL_Driver/Src/stm32h7xx_ll_usb.c **** }
 617              		.loc 1 481 10 view .LVU179
 618 003e 00E0     		b	.L37
 619              	.LVL44:
 620              	.L40:
 463:Drivers/STM32H7xx_HAL_Driver/Src/stm32h7xx_ll_usb.c ****     }
 621              		.loc 1 463 14 view .LVU180
 622 0040 0320     		movs	r0, #3
 623              	.LVL45:
 624              	.L37:
 482:Drivers/STM32H7xx_HAL_Driver/Src/stm32h7xx_ll_usb.c **** 
 625              		.loc 1 482 1 view .LVU181
 626 0042 02B0     		add	sp, sp, #8
 627              	.LCFI9:
 628              		.cfi_remember_state
 629              		.cfi_def_cfa_offset 0
 630              		@ sp needed
 631 0044 7047     		bx	lr
 632              	.LVL46:
 633              	.L41:
 634              	.LCFI10:
 635              		.cfi_restore_state
 477:Drivers/STM32H7xx_HAL_Driver/Src/stm32h7xx_ll_usb.c ****     }
 636              		.loc 1 477 14 view .LVU182
 637 0046 0320     		movs	r0, #3
 638              	.LVL47:
 477:Drivers/STM32H7xx_HAL_Driver/Src/stm32h7xx_ll_usb.c ****     }
 639              		.loc 1 477 14 view .LVU183
 640 0048 FBE7     		b	.L37
 641              		.cfi_endproc
 642              	.LFE150:
 644              		.section	.text.USB_FlushRxFifo,"ax",%progbits
 645              		.align	1
 646              		.global	USB_FlushRxFifo
 647              		.syntax unified
 648              		.thumb
 649              		.thumb_func
 651              	USB_FlushRxFifo:
 652              	.LVL48:
 653              	.LFB151:
 490:Drivers/STM32H7xx_HAL_Driver/Src/stm32h7xx_ll_usb.c ****   __IO uint32_t count = 0U;
 654              		.loc 1 490 1 is_stmt 1 view -0
 655              		.cfi_startproc
 656              		@ args = 0, pretend = 0, frame = 8
 657              		@ frame_needed = 0, uses_anonymous_args = 0
 658              		@ link register save eliminated.
 490:Drivers/STM32H7xx_HAL_Driver/Src/stm32h7xx_ll_usb.c ****   __IO uint32_t count = 0U;
 659              		.loc 1 490 1 is_stmt 0 view .LVU185
 660 0000 82B0     		sub	sp, sp, #8
 661              	.LCFI11:
 662              		.cfi_def_cfa_offset 8
 491:Drivers/STM32H7xx_HAL_Driver/Src/stm32h7xx_ll_usb.c **** 
 663              		.loc 1 491 3 is_stmt 1 view .LVU186
ARM GAS  C:\Users\PgRick\AppData\Local\Temp\ccFebq6t.s 			page 40


 491:Drivers/STM32H7xx_HAL_Driver/Src/stm32h7xx_ll_usb.c **** 
 664              		.loc 1 491 17 is_stmt 0 view .LVU187
 665 0002 0023     		movs	r3, #0
 666 0004 0193     		str	r3, [sp, #4]
 667              	.L45:
 494:Drivers/STM32H7xx_HAL_Driver/Src/stm32h7xx_ll_usb.c ****   {
 668              		.loc 1 494 3 is_stmt 1 view .LVU188
 496:Drivers/STM32H7xx_HAL_Driver/Src/stm32h7xx_ll_usb.c **** 
 669              		.loc 1 496 5 view .LVU189
 496:Drivers/STM32H7xx_HAL_Driver/Src/stm32h7xx_ll_usb.c **** 
 670              		.loc 1 496 10 is_stmt 0 view .LVU190
 671 0006 019B     		ldr	r3, [sp, #4]
 672 0008 0133     		adds	r3, r3, #1
 673 000a 0193     		str	r3, [sp, #4]
 498:Drivers/STM32H7xx_HAL_Driver/Src/stm32h7xx_ll_usb.c ****     {
 674              		.loc 1 498 5 is_stmt 1 view .LVU191
 498:Drivers/STM32H7xx_HAL_Driver/Src/stm32h7xx_ll_usb.c ****     {
 675              		.loc 1 498 15 is_stmt 0 view .LVU192
 676 000c 019B     		ldr	r3, [sp, #4]
 498:Drivers/STM32H7xx_HAL_Driver/Src/stm32h7xx_ll_usb.c ****     {
 677              		.loc 1 498 8 view .LVU193
 678 000e B3F1706F 		cmp	r3, #251658240
 679 0012 13D8     		bhi	.L47
 502:Drivers/STM32H7xx_HAL_Driver/Src/stm32h7xx_ll_usb.c **** 
 680              		.loc 1 502 11 is_stmt 1 view .LVU194
 502:Drivers/STM32H7xx_HAL_Driver/Src/stm32h7xx_ll_usb.c **** 
 681              		.loc 1 502 17 is_stmt 0 view .LVU195
 682 0014 0369     		ldr	r3, [r0, #16]
 502:Drivers/STM32H7xx_HAL_Driver/Src/stm32h7xx_ll_usb.c **** 
 683              		.loc 1 502 3 view .LVU196
 684 0016 002B     		cmp	r3, #0
 685 0018 F5DA     		bge	.L45
 505:Drivers/STM32H7xx_HAL_Driver/Src/stm32h7xx_ll_usb.c ****   USBx->GRSTCTL = USB_OTG_GRSTCTL_RXFFLSH;
 686              		.loc 1 505 3 is_stmt 1 view .LVU197
 505:Drivers/STM32H7xx_HAL_Driver/Src/stm32h7xx_ll_usb.c ****   USBx->GRSTCTL = USB_OTG_GRSTCTL_RXFFLSH;
 687              		.loc 1 505 9 is_stmt 0 view .LVU198
 688 001a 0023     		movs	r3, #0
 689 001c 0193     		str	r3, [sp, #4]
 506:Drivers/STM32H7xx_HAL_Driver/Src/stm32h7xx_ll_usb.c **** 
 690              		.loc 1 506 3 is_stmt 1 view .LVU199
 506:Drivers/STM32H7xx_HAL_Driver/Src/stm32h7xx_ll_usb.c **** 
 691              		.loc 1 506 17 is_stmt 0 view .LVU200
 692 001e 1023     		movs	r3, #16
 693 0020 0361     		str	r3, [r0, #16]
 694              	.L46:
 508:Drivers/STM32H7xx_HAL_Driver/Src/stm32h7xx_ll_usb.c ****   {
 695              		.loc 1 508 3 is_stmt 1 view .LVU201
 510:Drivers/STM32H7xx_HAL_Driver/Src/stm32h7xx_ll_usb.c **** 
 696              		.loc 1 510 5 view .LVU202
 510:Drivers/STM32H7xx_HAL_Driver/Src/stm32h7xx_ll_usb.c **** 
 697              		.loc 1 510 10 is_stmt 0 view .LVU203
 698 0022 019B     		ldr	r3, [sp, #4]
 699 0024 0133     		adds	r3, r3, #1
 700 0026 0193     		str	r3, [sp, #4]
 512:Drivers/STM32H7xx_HAL_Driver/Src/stm32h7xx_ll_usb.c ****     {
 701              		.loc 1 512 5 is_stmt 1 view .LVU204
 512:Drivers/STM32H7xx_HAL_Driver/Src/stm32h7xx_ll_usb.c ****     {
ARM GAS  C:\Users\PgRick\AppData\Local\Temp\ccFebq6t.s 			page 41


 702              		.loc 1 512 15 is_stmt 0 view .LVU205
 703 0028 019B     		ldr	r3, [sp, #4]
 512:Drivers/STM32H7xx_HAL_Driver/Src/stm32h7xx_ll_usb.c ****     {
 704              		.loc 1 512 8 view .LVU206
 705 002a B3F1706F 		cmp	r3, #251658240
 706 002e 08D8     		bhi	.L48
 516:Drivers/STM32H7xx_HAL_Driver/Src/stm32h7xx_ll_usb.c **** 
 707              		.loc 1 516 11 is_stmt 1 view .LVU207
 516:Drivers/STM32H7xx_HAL_Driver/Src/stm32h7xx_ll_usb.c **** 
 708              		.loc 1 516 17 is_stmt 0 view .LVU208
 709 0030 0369     		ldr	r3, [r0, #16]
 516:Drivers/STM32H7xx_HAL_Driver/Src/stm32h7xx_ll_usb.c **** 
 710              		.loc 1 516 3 view .LVU209
 711 0032 13F0100F 		tst	r3, #16
 712 0036 F4D1     		bne	.L46
 518:Drivers/STM32H7xx_HAL_Driver/Src/stm32h7xx_ll_usb.c **** }
 713              		.loc 1 518 10 view .LVU210
 714 0038 0020     		movs	r0, #0
 715              	.LVL49:
 518:Drivers/STM32H7xx_HAL_Driver/Src/stm32h7xx_ll_usb.c **** }
 716              		.loc 1 518 10 view .LVU211
 717 003a 00E0     		b	.L44
 718              	.LVL50:
 719              	.L47:
 500:Drivers/STM32H7xx_HAL_Driver/Src/stm32h7xx_ll_usb.c ****     }
 720              		.loc 1 500 14 view .LVU212
 721 003c 0320     		movs	r0, #3
 722              	.LVL51:
 723              	.L44:
 519:Drivers/STM32H7xx_HAL_Driver/Src/stm32h7xx_ll_usb.c **** 
 724              		.loc 1 519 1 view .LVU213
 725 003e 02B0     		add	sp, sp, #8
 726              	.LCFI12:
 727              		.cfi_remember_state
 728              		.cfi_def_cfa_offset 0
 729              		@ sp needed
 730 0040 7047     		bx	lr
 731              	.LVL52:
 732              	.L48:
 733              	.LCFI13:
 734              		.cfi_restore_state
 514:Drivers/STM32H7xx_HAL_Driver/Src/stm32h7xx_ll_usb.c ****     }
 735              		.loc 1 514 14 view .LVU214
 736 0042 0320     		movs	r0, #3
 737              	.LVL53:
 514:Drivers/STM32H7xx_HAL_Driver/Src/stm32h7xx_ll_usb.c ****     }
 738              		.loc 1 514 14 view .LVU215
 739 0044 FBE7     		b	.L44
 740              		.cfi_endproc
 741              	.LFE151:
 743              		.section	.text.USB_SetDevSpeed,"ax",%progbits
 744              		.align	1
 745              		.global	USB_SetDevSpeed
 746              		.syntax unified
 747              		.thumb
 748              		.thumb_func
 750              	USB_SetDevSpeed:
ARM GAS  C:\Users\PgRick\AppData\Local\Temp\ccFebq6t.s 			page 42


 751              	.LVL54:
 752              	.LFB152:
 533:Drivers/STM32H7xx_HAL_Driver/Src/stm32h7xx_ll_usb.c ****   uint32_t USBx_BASE = (uint32_t)USBx;
 753              		.loc 1 533 1 is_stmt 1 view -0
 754              		.cfi_startproc
 755              		@ args = 0, pretend = 0, frame = 0
 756              		@ frame_needed = 0, uses_anonymous_args = 0
 757              		@ link register save eliminated.
 534:Drivers/STM32H7xx_HAL_Driver/Src/stm32h7xx_ll_usb.c **** 
 758              		.loc 1 534 3 view .LVU217
 536:Drivers/STM32H7xx_HAL_Driver/Src/stm32h7xx_ll_usb.c ****   return HAL_OK;
 759              		.loc 1 536 3 view .LVU218
 536:Drivers/STM32H7xx_HAL_Driver/Src/stm32h7xx_ll_usb.c ****   return HAL_OK;
 760              		.loc 1 536 21 is_stmt 0 view .LVU219
 761 0000 D0F80038 		ldr	r3, [r0, #2048]
 762 0004 1943     		orrs	r1, r1, r3
 763              	.LVL55:
 536:Drivers/STM32H7xx_HAL_Driver/Src/stm32h7xx_ll_usb.c ****   return HAL_OK;
 764              		.loc 1 536 21 view .LVU220
 765 0006 C0F80018 		str	r1, [r0, #2048]
 537:Drivers/STM32H7xx_HAL_Driver/Src/stm32h7xx_ll_usb.c **** }
 766              		.loc 1 537 3 is_stmt 1 view .LVU221
 538:Drivers/STM32H7xx_HAL_Driver/Src/stm32h7xx_ll_usb.c **** 
 767              		.loc 1 538 1 is_stmt 0 view .LVU222
 768 000a 0020     		movs	r0, #0
 769              	.LVL56:
 538:Drivers/STM32H7xx_HAL_Driver/Src/stm32h7xx_ll_usb.c **** 
 770              		.loc 1 538 1 view .LVU223
 771 000c 7047     		bx	lr
 772              		.cfi_endproc
 773              	.LFE152:
 775              		.section	.text.USB_DevInit,"ax",%progbits
 776              		.align	1
 777              		.global	USB_DevInit
 778              		.syntax unified
 779              		.thumb
 780              		.thumb_func
 782              	USB_DevInit:
 783              	.LVL57:
 784              	.LFB149:
 301:Drivers/STM32H7xx_HAL_Driver/Src/stm32h7xx_ll_usb.c ****   HAL_StatusTypeDef ret = HAL_OK;
 785              		.loc 1 301 1 is_stmt 1 view -0
 786              		.cfi_startproc
 787              		@ args = 20, pretend = 16, frame = 0
 788              		@ frame_needed = 0, uses_anonymous_args = 0
 301:Drivers/STM32H7xx_HAL_Driver/Src/stm32h7xx_ll_usb.c ****   HAL_StatusTypeDef ret = HAL_OK;
 789              		.loc 1 301 1 is_stmt 0 view .LVU225
 790 0000 84B0     		sub	sp, sp, #16
 791              	.LCFI14:
 792              		.cfi_def_cfa_offset 16
 793 0002 F8B5     		push	{r3, r4, r5, r6, r7, lr}
 794              	.LCFI15:
 795              		.cfi_def_cfa_offset 40
 796              		.cfi_offset 3, -40
 797              		.cfi_offset 4, -36
 798              		.cfi_offset 5, -32
 799              		.cfi_offset 6, -28
ARM GAS  C:\Users\PgRick\AppData\Local\Temp\ccFebq6t.s 			page 43


 800              		.cfi_offset 7, -24
 801              		.cfi_offset 14, -20
 802 0004 0446     		mov	r4, r0
 803 0006 07A8     		add	r0, sp, #28
 804 0008 80E80E00 		stm	r0, {r1, r2, r3}
 302:Drivers/STM32H7xx_HAL_Driver/Src/stm32h7xx_ll_usb.c ****   uint32_t USBx_BASE = (uint32_t)USBx;
 805              		.loc 1 302 3 is_stmt 1 view .LVU226
 806              	.LVL58:
 303:Drivers/STM32H7xx_HAL_Driver/Src/stm32h7xx_ll_usb.c ****   uint32_t i;
 807              		.loc 1 303 3 view .LVU227
 304:Drivers/STM32H7xx_HAL_Driver/Src/stm32h7xx_ll_usb.c **** 
 808              		.loc 1 304 3 view .LVU228
 306:Drivers/STM32H7xx_HAL_Driver/Src/stm32h7xx_ll_usb.c ****   {
 809              		.loc 1 306 3 view .LVU229
 306:Drivers/STM32H7xx_HAL_Driver/Src/stm32h7xx_ll_usb.c ****   {
 810              		.loc 1 306 10 is_stmt 0 view .LVU230
 811 000c 0023     		movs	r3, #0
 306:Drivers/STM32H7xx_HAL_Driver/Src/stm32h7xx_ll_usb.c ****   {
 812              		.loc 1 306 3 view .LVU231
 813 000e 06E0     		b	.L52
 814              	.LVL59:
 815              	.L53:
 308:Drivers/STM32H7xx_HAL_Driver/Src/stm32h7xx_ll_usb.c ****   }
 816              		.loc 1 308 5 is_stmt 1 discriminator 3 view .LVU232
 308:Drivers/STM32H7xx_HAL_Driver/Src/stm32h7xx_ll_usb.c ****   }
 817              		.loc 1 308 22 is_stmt 0 discriminator 3 view .LVU233
 818 0010 03F14002 		add	r2, r3, #64
 819 0014 04EB8202 		add	r2, r4, r2, lsl #2
 820 0018 0021     		movs	r1, #0
 821 001a 5160     		str	r1, [r2, #4]
 306:Drivers/STM32H7xx_HAL_Driver/Src/stm32h7xx_ll_usb.c ****   {
 822              		.loc 1 306 25 is_stmt 1 discriminator 3 view .LVU234
 306:Drivers/STM32H7xx_HAL_Driver/Src/stm32h7xx_ll_usb.c ****   {
 823              		.loc 1 306 26 is_stmt 0 discriminator 3 view .LVU235
 824 001c 0133     		adds	r3, r3, #1
 825              	.LVL60:
 826              	.L52:
 306:Drivers/STM32H7xx_HAL_Driver/Src/stm32h7xx_ll_usb.c ****   {
 827              		.loc 1 306 16 is_stmt 1 discriminator 1 view .LVU236
 306:Drivers/STM32H7xx_HAL_Driver/Src/stm32h7xx_ll_usb.c ****   {
 828              		.loc 1 306 3 is_stmt 0 discriminator 1 view .LVU237
 829 001e 0E2B     		cmp	r3, #14
 830 0020 F6D9     		bls	.L53
 312:Drivers/STM32H7xx_HAL_Driver/Src/stm32h7xx_ll_usb.c ****   {
 831              		.loc 1 312 3 is_stmt 1 view .LVU238
 312:Drivers/STM32H7xx_HAL_Driver/Src/stm32h7xx_ll_usb.c ****   {
 832              		.loc 1 312 10 is_stmt 0 view .LVU239
 833 0022 9DF82660 		ldrb	r6, [sp, #38]	@ zero_extendqisi2
 312:Drivers/STM32H7xx_HAL_Driver/Src/stm32h7xx_ll_usb.c ****   {
 834              		.loc 1 312 6 view .LVU240
 835 0026 06BB     		cbnz	r6, .L54
 314:Drivers/STM32H7xx_HAL_Driver/Src/stm32h7xx_ll_usb.c **** 
 836              		.loc 1 314 5 is_stmt 1 view .LVU241
 314:Drivers/STM32H7xx_HAL_Driver/Src/stm32h7xx_ll_usb.c **** 
 837              		.loc 1 314 23 is_stmt 0 view .LVU242
 838 0028 D4F80438 		ldr	r3, [r4, #2052]
 839              	.LVL61:
ARM GAS  C:\Users\PgRick\AppData\Local\Temp\ccFebq6t.s 			page 44


 314:Drivers/STM32H7xx_HAL_Driver/Src/stm32h7xx_ll_usb.c **** 
 840              		.loc 1 314 23 view .LVU243
 841 002c 43F00203 		orr	r3, r3, #2
 842 0030 C4F80438 		str	r3, [r4, #2052]
 317:Drivers/STM32H7xx_HAL_Driver/Src/stm32h7xx_ll_usb.c **** 
 843              		.loc 1 317 5 is_stmt 1 view .LVU244
 317:Drivers/STM32H7xx_HAL_Driver/Src/stm32h7xx_ll_usb.c **** 
 844              		.loc 1 317 17 is_stmt 0 view .LVU245
 845 0034 A36B     		ldr	r3, [r4, #56]
 846 0036 23F40013 		bic	r3, r3, #2097152
 847 003a A363     		str	r3, [r4, #56]
 320:Drivers/STM32H7xx_HAL_Driver/Src/stm32h7xx_ll_usb.c ****     USBx->GOTGCTL |= USB_OTG_GOTGCTL_BVALOVAL;
 848              		.loc 1 320 5 is_stmt 1 view .LVU246
 320:Drivers/STM32H7xx_HAL_Driver/Src/stm32h7xx_ll_usb.c ****     USBx->GOTGCTL |= USB_OTG_GOTGCTL_BVALOVAL;
 849              		.loc 1 320 19 is_stmt 0 view .LVU247
 850 003c 2368     		ldr	r3, [r4]
 851 003e 43F04003 		orr	r3, r3, #64
 852 0042 2360     		str	r3, [r4]
 321:Drivers/STM32H7xx_HAL_Driver/Src/stm32h7xx_ll_usb.c ****   }
 853              		.loc 1 321 5 is_stmt 1 view .LVU248
 321:Drivers/STM32H7xx_HAL_Driver/Src/stm32h7xx_ll_usb.c ****   }
 854              		.loc 1 321 19 is_stmt 0 view .LVU249
 855 0044 2368     		ldr	r3, [r4]
 856 0046 43F08003 		orr	r3, r3, #128
 857 004a 2360     		str	r3, [r4]
 858              	.L55:
 330:Drivers/STM32H7xx_HAL_Driver/Src/stm32h7xx_ll_usb.c **** 
 859              		.loc 1 330 3 is_stmt 1 view .LVU250
 330:Drivers/STM32H7xx_HAL_Driver/Src/stm32h7xx_ll_usb.c **** 
 860              		.loc 1 330 16 is_stmt 0 view .LVU251
 861 004c 0023     		movs	r3, #0
 862 004e C4F8003E 		str	r3, [r4, #3584]
 332:Drivers/STM32H7xx_HAL_Driver/Src/stm32h7xx_ll_usb.c ****   {
 863              		.loc 1 332 3 is_stmt 1 view .LVU252
 332:Drivers/STM32H7xx_HAL_Driver/Src/stm32h7xx_ll_usb.c ****   {
 864              		.loc 1 332 10 is_stmt 0 view .LVU253
 865 0052 9DF82130 		ldrb	r3, [sp, #33]	@ zero_extendqisi2
 332:Drivers/STM32H7xx_HAL_Driver/Src/stm32h7xx_ll_usb.c ****   {
 866              		.loc 1 332 6 view .LVU254
 867 0056 012B     		cmp	r3, #1
 868 0058 11D1     		bne	.L56
 334:Drivers/STM32H7xx_HAL_Driver/Src/stm32h7xx_ll_usb.c ****     {
 869              		.loc 1 334 5 is_stmt 1 view .LVU255
 334:Drivers/STM32H7xx_HAL_Driver/Src/stm32h7xx_ll_usb.c ****     {
 870              		.loc 1 334 12 is_stmt 0 view .LVU256
 871 005a 9DF81F30 		ldrb	r3, [sp, #31]	@ zero_extendqisi2
 334:Drivers/STM32H7xx_HAL_Driver/Src/stm32h7xx_ll_usb.c ****     {
 872              		.loc 1 334 8 view .LVU257
 873 005e 4BB9     		cbnz	r3, .L57
 337:Drivers/STM32H7xx_HAL_Driver/Src/stm32h7xx_ll_usb.c ****     }
 874              		.loc 1 337 7 is_stmt 1 view .LVU258
 337:Drivers/STM32H7xx_HAL_Driver/Src/stm32h7xx_ll_usb.c ****     }
 875              		.loc 1 337 13 is_stmt 0 view .LVU259
 876 0060 0021     		movs	r1, #0
 877 0062 2046     		mov	r0, r4
 878              	.LVL62:
 337:Drivers/STM32H7xx_HAL_Driver/Src/stm32h7xx_ll_usb.c ****     }
ARM GAS  C:\Users\PgRick\AppData\Local\Temp\ccFebq6t.s 			page 45


 879              		.loc 1 337 13 view .LVU260
 880 0064 FFF7FEFF 		bl	USB_SetDevSpeed
 881              	.LVL63:
 882 0068 0DE0     		b	.L58
 883              	.LVL64:
 884              	.L54:
 326:Drivers/STM32H7xx_HAL_Driver/Src/stm32h7xx_ll_usb.c ****   }
 885              		.loc 1 326 5 is_stmt 1 view .LVU261
 326:Drivers/STM32H7xx_HAL_Driver/Src/stm32h7xx_ll_usb.c ****   }
 886              		.loc 1 326 17 is_stmt 0 view .LVU262
 887 006a A36B     		ldr	r3, [r4, #56]
 888              	.LVL65:
 326:Drivers/STM32H7xx_HAL_Driver/Src/stm32h7xx_ll_usb.c ****   }
 889              		.loc 1 326 17 view .LVU263
 890 006c 43F40013 		orr	r3, r3, #2097152
 891 0070 A363     		str	r3, [r4, #56]
 892 0072 EBE7     		b	.L55
 893              	.L57:
 342:Drivers/STM32H7xx_HAL_Driver/Src/stm32h7xx_ll_usb.c ****     }
 894              		.loc 1 342 7 is_stmt 1 view .LVU264
 342:Drivers/STM32H7xx_HAL_Driver/Src/stm32h7xx_ll_usb.c ****     }
 895              		.loc 1 342 13 is_stmt 0 view .LVU265
 896 0074 0121     		movs	r1, #1
 897 0076 2046     		mov	r0, r4
 898              	.LVL66:
 342:Drivers/STM32H7xx_HAL_Driver/Src/stm32h7xx_ll_usb.c ****     }
 899              		.loc 1 342 13 view .LVU266
 900 0078 FFF7FEFF 		bl	USB_SetDevSpeed
 901              	.LVL67:
 902 007c 03E0     		b	.L58
 903              	.LVL68:
 904              	.L56:
 348:Drivers/STM32H7xx_HAL_Driver/Src/stm32h7xx_ll_usb.c ****   }
 905              		.loc 1 348 5 is_stmt 1 view .LVU267
 348:Drivers/STM32H7xx_HAL_Driver/Src/stm32h7xx_ll_usb.c ****   }
 906              		.loc 1 348 11 is_stmt 0 view .LVU268
 907 007e 0321     		movs	r1, #3
 908 0080 2046     		mov	r0, r4
 909              	.LVL69:
 348:Drivers/STM32H7xx_HAL_Driver/Src/stm32h7xx_ll_usb.c ****   }
 910              		.loc 1 348 11 view .LVU269
 911 0082 FFF7FEFF 		bl	USB_SetDevSpeed
 912              	.LVL70:
 913              	.L58:
 352:Drivers/STM32H7xx_HAL_Driver/Src/stm32h7xx_ll_usb.c ****   {
 914              		.loc 1 352 3 is_stmt 1 view .LVU270
 352:Drivers/STM32H7xx_HAL_Driver/Src/stm32h7xx_ll_usb.c ****   {
 915              		.loc 1 352 7 is_stmt 0 view .LVU271
 916 0086 1021     		movs	r1, #16
 917 0088 2046     		mov	r0, r4
 918 008a FFF7FEFF 		bl	USB_FlushTxFifo
 919              	.LVL71:
 352:Drivers/STM32H7xx_HAL_Driver/Src/stm32h7xx_ll_usb.c ****   {
 920              		.loc 1 352 6 view .LVU272
 921 008e 0546     		mov	r5, r0
 922 0090 00B1     		cbz	r0, .L59
 354:Drivers/STM32H7xx_HAL_Driver/Src/stm32h7xx_ll_usb.c ****   }
ARM GAS  C:\Users\PgRick\AppData\Local\Temp\ccFebq6t.s 			page 46


 923              		.loc 1 354 9 view .LVU273
 924 0092 0125     		movs	r5, #1
 925              	.L59:
 926              	.LVL72:
 357:Drivers/STM32H7xx_HAL_Driver/Src/stm32h7xx_ll_usb.c ****   {
 927              		.loc 1 357 3 is_stmt 1 view .LVU274
 357:Drivers/STM32H7xx_HAL_Driver/Src/stm32h7xx_ll_usb.c ****   {
 928              		.loc 1 357 7 is_stmt 0 view .LVU275
 929 0094 2046     		mov	r0, r4
 930 0096 FFF7FEFF 		bl	USB_FlushRxFifo
 931              	.LVL73:
 357:Drivers/STM32H7xx_HAL_Driver/Src/stm32h7xx_ll_usb.c ****   {
 932              		.loc 1 357 6 view .LVU276
 933 009a 00B1     		cbz	r0, .L60
 359:Drivers/STM32H7xx_HAL_Driver/Src/stm32h7xx_ll_usb.c ****   }
 934              		.loc 1 359 9 view .LVU277
 935 009c 0125     		movs	r5, #1
 936              	.LVL74:
 937              	.L60:
 363:Drivers/STM32H7xx_HAL_Driver/Src/stm32h7xx_ll_usb.c ****   USBx_DEVICE->DOEPMSK = 0U;
 938              		.loc 1 363 3 is_stmt 1 view .LVU278
 939 009e 04F5006C 		add	ip, r4, #2048
 363:Drivers/STM32H7xx_HAL_Driver/Src/stm32h7xx_ll_usb.c ****   USBx_DEVICE->DOEPMSK = 0U;
 940              		.loc 1 363 24 is_stmt 0 view .LVU279
 941 00a2 0023     		movs	r3, #0
 942 00a4 CCF81030 		str	r3, [ip, #16]
 364:Drivers/STM32H7xx_HAL_Driver/Src/stm32h7xx_ll_usb.c ****   USBx_DEVICE->DAINTMSK = 0U;
 943              		.loc 1 364 3 is_stmt 1 view .LVU280
 364:Drivers/STM32H7xx_HAL_Driver/Src/stm32h7xx_ll_usb.c ****   USBx_DEVICE->DAINTMSK = 0U;
 944              		.loc 1 364 24 is_stmt 0 view .LVU281
 945 00a8 CCF81430 		str	r3, [ip, #20]
 365:Drivers/STM32H7xx_HAL_Driver/Src/stm32h7xx_ll_usb.c **** 
 946              		.loc 1 365 3 is_stmt 1 view .LVU282
 365:Drivers/STM32H7xx_HAL_Driver/Src/stm32h7xx_ll_usb.c **** 
 947              		.loc 1 365 25 is_stmt 0 view .LVU283
 948 00ac CCF81C30 		str	r3, [ip, #28]
 367:Drivers/STM32H7xx_HAL_Driver/Src/stm32h7xx_ll_usb.c ****   {
 949              		.loc 1 367 3 is_stmt 1 view .LVU284
 950              	.LVL75:
 367:Drivers/STM32H7xx_HAL_Driver/Src/stm32h7xx_ll_usb.c ****   {
 951              		.loc 1 367 3 is_stmt 0 view .LVU285
 952 00b0 0AE0     		b	.L61
 953              	.LVL76:
 954              	.L78:
 371:Drivers/STM32H7xx_HAL_Driver/Src/stm32h7xx_ll_usb.c ****       {
 955              		.loc 1 371 7 is_stmt 1 view .LVU286
 371:Drivers/STM32H7xx_HAL_Driver/Src/stm32h7xx_ll_usb.c ****       {
 956              		.loc 1 371 10 is_stmt 0 view .LVU287
 957 00b2 CBB9     		cbnz	r3, .L63
 373:Drivers/STM32H7xx_HAL_Driver/Src/stm32h7xx_ll_usb.c ****       }
 958              		.loc 1 373 9 is_stmt 1 view .LVU288
 373:Drivers/STM32H7xx_HAL_Driver/Src/stm32h7xx_ll_usb.c ****       }
 959              		.loc 1 373 31 is_stmt 0 view .LVU289
 960 00b4 4FF00060 		mov	r0, #134217728
 961 00b8 C2F80009 		str	r0, [r2, #2304]
 962              	.L64:
 385:Drivers/STM32H7xx_HAL_Driver/Src/stm32h7xx_ll_usb.c ****     USBx_INEP(i)->DIEPINT  = 0xFB7FU;
ARM GAS  C:\Users\PgRick\AppData\Local\Temp\ccFebq6t.s 			page 47


 963              		.loc 1 385 5 is_stmt 1 discriminator 2 view .LVU290
 385:Drivers/STM32H7xx_HAL_Driver/Src/stm32h7xx_ll_usb.c ****     USBx_INEP(i)->DIEPINT  = 0xFB7FU;
 964              		.loc 1 385 28 is_stmt 0 discriminator 2 view .LVU291
 965 00bc 0022     		movs	r2, #0
 966 00be 0A61     		str	r2, [r1, #16]
 386:Drivers/STM32H7xx_HAL_Driver/Src/stm32h7xx_ll_usb.c ****   }
 967              		.loc 1 386 5 is_stmt 1 discriminator 2 view .LVU292
 386:Drivers/STM32H7xx_HAL_Driver/Src/stm32h7xx_ll_usb.c ****   }
 968              		.loc 1 386 28 is_stmt 0 discriminator 2 view .LVU293
 969 00c0 4FF67F32 		movw	r2, #64383
 970 00c4 8A60     		str	r2, [r1, #8]
 367:Drivers/STM32H7xx_HAL_Driver/Src/stm32h7xx_ll_usb.c ****   {
 971              		.loc 1 367 39 is_stmt 1 discriminator 2 view .LVU294
 367:Drivers/STM32H7xx_HAL_Driver/Src/stm32h7xx_ll_usb.c ****   {
 972              		.loc 1 367 40 is_stmt 0 discriminator 2 view .LVU295
 973 00c6 0133     		adds	r3, r3, #1
 974              	.LVL77:
 975              	.L61:
 367:Drivers/STM32H7xx_HAL_Driver/Src/stm32h7xx_ll_usb.c ****   {
 976              		.loc 1 367 16 is_stmt 1 discriminator 1 view .LVU296
 367:Drivers/STM32H7xx_HAL_Driver/Src/stm32h7xx_ll_usb.c ****   {
 977              		.loc 1 367 23 is_stmt 0 discriminator 1 view .LVU297
 978 00c8 9DF81C10 		ldrb	r1, [sp, #28]	@ zero_extendqisi2
 367:Drivers/STM32H7xx_HAL_Driver/Src/stm32h7xx_ll_usb.c ****   {
 979              		.loc 1 367 3 discriminator 1 view .LVU298
 980 00cc 9942     		cmp	r1, r3
 981 00ce 10D9     		bls	.L77
 369:Drivers/STM32H7xx_HAL_Driver/Src/stm32h7xx_ll_usb.c ****     {
 982              		.loc 1 369 5 is_stmt 1 view .LVU299
 369:Drivers/STM32H7xx_HAL_Driver/Src/stm32h7xx_ll_usb.c ****     {
 983              		.loc 1 369 10 is_stmt 0 view .LVU300
 984 00d0 04EB4312 		add	r2, r4, r3, lsl #5
 985 00d4 02F51061 		add	r1, r2, #2304
 369:Drivers/STM32H7xx_HAL_Driver/Src/stm32h7xx_ll_usb.c ****     {
 986              		.loc 1 369 22 view .LVU301
 987 00d8 D2F80009 		ldr	r0, [r2, #2304]
 369:Drivers/STM32H7xx_HAL_Driver/Src/stm32h7xx_ll_usb.c ****     {
 988              		.loc 1 369 8 view .LVU302
 989 00dc 0028     		cmp	r0, #0
 990 00de E8DB     		blt	.L78
 382:Drivers/STM32H7xx_HAL_Driver/Src/stm32h7xx_ll_usb.c ****     }
 991              		.loc 1 382 7 is_stmt 1 view .LVU303
 382:Drivers/STM32H7xx_HAL_Driver/Src/stm32h7xx_ll_usb.c ****     }
 992              		.loc 1 382 29 is_stmt 0 view .LVU304
 993 00e0 0020     		movs	r0, #0
 994 00e2 C2F80009 		str	r0, [r2, #2304]
 995 00e6 E9E7     		b	.L64
 996              	.L63:
 377:Drivers/STM32H7xx_HAL_Driver/Src/stm32h7xx_ll_usb.c ****       }
 997              		.loc 1 377 9 is_stmt 1 view .LVU305
 377:Drivers/STM32H7xx_HAL_Driver/Src/stm32h7xx_ll_usb.c ****       }
 998              		.loc 1 377 31 is_stmt 0 view .LVU306
 999 00e8 4FF09040 		mov	r0, #1207959552
 1000 00ec C2F80009 		str	r0, [r2, #2304]
 1001 00f0 E4E7     		b	.L64
 1002              	.L77:
 389:Drivers/STM32H7xx_HAL_Driver/Src/stm32h7xx_ll_usb.c ****   {
ARM GAS  C:\Users\PgRick\AppData\Local\Temp\ccFebq6t.s 			page 48


 1003              		.loc 1 389 10 view .LVU307
 1004 00f2 0023     		movs	r3, #0
 1005              	.LVL78:
 389:Drivers/STM32H7xx_HAL_Driver/Src/stm32h7xx_ll_usb.c ****   {
 1006              		.loc 1 389 10 view .LVU308
 1007 00f4 0AE0     		b	.L66
 1008              	.LVL79:
 1009              	.L81:
 393:Drivers/STM32H7xx_HAL_Driver/Src/stm32h7xx_ll_usb.c ****       {
 1010              		.loc 1 393 7 is_stmt 1 view .LVU309
 393:Drivers/STM32H7xx_HAL_Driver/Src/stm32h7xx_ll_usb.c ****       {
 1011              		.loc 1 393 10 is_stmt 0 view .LVU310
 1012 00f6 BBB1     		cbz	r3, .L79
 399:Drivers/STM32H7xx_HAL_Driver/Src/stm32h7xx_ll_usb.c ****       }
 1013              		.loc 1 399 9 is_stmt 1 view .LVU311
 399:Drivers/STM32H7xx_HAL_Driver/Src/stm32h7xx_ll_usb.c ****       }
 1014              		.loc 1 399 32 is_stmt 0 view .LVU312
 1015 00f8 4FF09047 		mov	r7, #1207959552
 1016 00fc C2F8007B 		str	r7, [r2, #2816]
 1017              	.L69:
 407:Drivers/STM32H7xx_HAL_Driver/Src/stm32h7xx_ll_usb.c ****     USBx_OUTEP(i)->DOEPINT  = 0xFB7FU;
 1018              		.loc 1 407 5 is_stmt 1 discriminator 2 view .LVU313
 407:Drivers/STM32H7xx_HAL_Driver/Src/stm32h7xx_ll_usb.c ****     USBx_OUTEP(i)->DOEPINT  = 0xFB7FU;
 1019              		.loc 1 407 29 is_stmt 0 discriminator 2 view .LVU314
 1020 0100 0022     		movs	r2, #0
 1021 0102 0261     		str	r2, [r0, #16]
 408:Drivers/STM32H7xx_HAL_Driver/Src/stm32h7xx_ll_usb.c ****   }
 1022              		.loc 1 408 5 is_stmt 1 discriminator 2 view .LVU315
 408:Drivers/STM32H7xx_HAL_Driver/Src/stm32h7xx_ll_usb.c ****   }
 1023              		.loc 1 408 29 is_stmt 0 discriminator 2 view .LVU316
 1024 0104 4FF67F32 		movw	r2, #64383
 1025 0108 8260     		str	r2, [r0, #8]
 389:Drivers/STM32H7xx_HAL_Driver/Src/stm32h7xx_ll_usb.c ****   {
 1026              		.loc 1 389 39 is_stmt 1 discriminator 2 view .LVU317
 389:Drivers/STM32H7xx_HAL_Driver/Src/stm32h7xx_ll_usb.c ****   {
 1027              		.loc 1 389 40 is_stmt 0 discriminator 2 view .LVU318
 1028 010a 0133     		adds	r3, r3, #1
 1029              	.LVL80:
 1030              	.L66:
 389:Drivers/STM32H7xx_HAL_Driver/Src/stm32h7xx_ll_usb.c ****   {
 1031              		.loc 1 389 16 is_stmt 1 discriminator 1 view .LVU319
 389:Drivers/STM32H7xx_HAL_Driver/Src/stm32h7xx_ll_usb.c ****   {
 1032              		.loc 1 389 3 is_stmt 0 discriminator 1 view .LVU320
 1033 010c 9942     		cmp	r1, r3
 1034 010e 10D9     		bls	.L80
 391:Drivers/STM32H7xx_HAL_Driver/Src/stm32h7xx_ll_usb.c ****     {
 1035              		.loc 1 391 5 is_stmt 1 view .LVU321
 391:Drivers/STM32H7xx_HAL_Driver/Src/stm32h7xx_ll_usb.c ****     {
 1036              		.loc 1 391 10 is_stmt 0 view .LVU322
 1037 0110 04EB4312 		add	r2, r4, r3, lsl #5
 1038 0114 02F53060 		add	r0, r2, #2816
 391:Drivers/STM32H7xx_HAL_Driver/Src/stm32h7xx_ll_usb.c ****     {
 1039              		.loc 1 391 23 view .LVU323
 1040 0118 D2F8007B 		ldr	r7, [r2, #2816]
 391:Drivers/STM32H7xx_HAL_Driver/Src/stm32h7xx_ll_usb.c ****     {
 1041              		.loc 1 391 8 view .LVU324
 1042 011c 002F     		cmp	r7, #0
ARM GAS  C:\Users\PgRick\AppData\Local\Temp\ccFebq6t.s 			page 49


 1043 011e EADB     		blt	.L81
 404:Drivers/STM32H7xx_HAL_Driver/Src/stm32h7xx_ll_usb.c ****     }
 1044              		.loc 1 404 7 is_stmt 1 view .LVU325
 404:Drivers/STM32H7xx_HAL_Driver/Src/stm32h7xx_ll_usb.c ****     }
 1045              		.loc 1 404 30 is_stmt 0 view .LVU326
 1046 0120 0027     		movs	r7, #0
 1047 0122 C2F8007B 		str	r7, [r2, #2816]
 1048 0126 EBE7     		b	.L69
 1049              	.L79:
 395:Drivers/STM32H7xx_HAL_Driver/Src/stm32h7xx_ll_usb.c ****       }
 1050              		.loc 1 395 9 is_stmt 1 view .LVU327
 395:Drivers/STM32H7xx_HAL_Driver/Src/stm32h7xx_ll_usb.c ****       }
 1051              		.loc 1 395 32 is_stmt 0 view .LVU328
 1052 0128 4FF00067 		mov	r7, #134217728
 1053 012c C2F8007B 		str	r7, [r2, #2816]
 1054 0130 E6E7     		b	.L69
 1055              	.L80:
 411:Drivers/STM32H7xx_HAL_Driver/Src/stm32h7xx_ll_usb.c **** 
 1056              		.loc 1 411 3 is_stmt 1 view .LVU329
 411:Drivers/STM32H7xx_HAL_Driver/Src/stm32h7xx_ll_usb.c **** 
 1057              		.loc 1 411 24 is_stmt 0 view .LVU330
 1058 0132 DCF81030 		ldr	r3, [ip, #16]
 1059              	.LVL81:
 411:Drivers/STM32H7xx_HAL_Driver/Src/stm32h7xx_ll_usb.c **** 
 1060              		.loc 1 411 24 view .LVU331
 1061 0136 23F48073 		bic	r3, r3, #256
 1062 013a CCF81030 		str	r3, [ip, #16]
 414:Drivers/STM32H7xx_HAL_Driver/Src/stm32h7xx_ll_usb.c **** 
 1063              		.loc 1 414 3 is_stmt 1 view .LVU332
 414:Drivers/STM32H7xx_HAL_Driver/Src/stm32h7xx_ll_usb.c **** 
 1064              		.loc 1 414 17 is_stmt 0 view .LVU333
 1065 013e 0023     		movs	r3, #0
 1066 0140 A361     		str	r3, [r4, #24]
 417:Drivers/STM32H7xx_HAL_Driver/Src/stm32h7xx_ll_usb.c **** 
 1067              		.loc 1 417 3 is_stmt 1 view .LVU334
 417:Drivers/STM32H7xx_HAL_Driver/Src/stm32h7xx_ll_usb.c **** 
 1068              		.loc 1 417 17 is_stmt 0 view .LVU335
 1069 0142 6FF08043 		mvn	r3, #1073741824
 1070 0146 6361     		str	r3, [r4, #20]
 420:Drivers/STM32H7xx_HAL_Driver/Src/stm32h7xx_ll_usb.c ****   {
 1071              		.loc 1 420 3 is_stmt 1 view .LVU336
 420:Drivers/STM32H7xx_HAL_Driver/Src/stm32h7xx_ll_usb.c ****   {
 1072              		.loc 1 420 10 is_stmt 0 view .LVU337
 1073 0148 9DF81E30 		ldrb	r3, [sp, #30]	@ zero_extendqisi2
 420:Drivers/STM32H7xx_HAL_Driver/Src/stm32h7xx_ll_usb.c ****   {
 1074              		.loc 1 420 6 view .LVU338
 1075 014c 1BB9     		cbnz	r3, .L71
 422:Drivers/STM32H7xx_HAL_Driver/Src/stm32h7xx_ll_usb.c ****   }
 1076              		.loc 1 422 5 is_stmt 1 view .LVU339
 422:Drivers/STM32H7xx_HAL_Driver/Src/stm32h7xx_ll_usb.c ****   }
 1077              		.loc 1 422 19 is_stmt 0 view .LVU340
 1078 014e A369     		ldr	r3, [r4, #24]
 1079 0150 43F01003 		orr	r3, r3, #16
 1080 0154 A361     		str	r3, [r4, #24]
 1081              	.L71:
 426:Drivers/STM32H7xx_HAL_Driver/Src/stm32h7xx_ll_usb.c ****                    USB_OTG_GINTMSK_ENUMDNEM | USB_OTG_GINTMSK_IEPINT |
 1082              		.loc 1 426 3 is_stmt 1 view .LVU341
ARM GAS  C:\Users\PgRick\AppData\Local\Temp\ccFebq6t.s 			page 50


 426:Drivers/STM32H7xx_HAL_Driver/Src/stm32h7xx_ll_usb.c ****                    USB_OTG_GINTMSK_ENUMDNEM | USB_OTG_GINTMSK_IEPINT |
 1083              		.loc 1 426 17 is_stmt 0 view .LVU342
 1084 0156 A269     		ldr	r2, [r4, #24]
 1085 0158 0A4B     		ldr	r3, .L83
 1086 015a 1343     		orrs	r3, r3, r2
 1087 015c A361     		str	r3, [r4, #24]
 431:Drivers/STM32H7xx_HAL_Driver/Src/stm32h7xx_ll_usb.c ****   {
 1088              		.loc 1 431 3 is_stmt 1 view .LVU343
 431:Drivers/STM32H7xx_HAL_Driver/Src/stm32h7xx_ll_usb.c ****   {
 1089              		.loc 1 431 10 is_stmt 0 view .LVU344
 1090 015e 9DF82230 		ldrb	r3, [sp, #34]	@ zero_extendqisi2
 431:Drivers/STM32H7xx_HAL_Driver/Src/stm32h7xx_ll_usb.c ****   {
 1091              		.loc 1 431 6 view .LVU345
 1092 0162 1BB1     		cbz	r3, .L72
 433:Drivers/STM32H7xx_HAL_Driver/Src/stm32h7xx_ll_usb.c ****   }
 1093              		.loc 1 433 5 is_stmt 1 view .LVU346
 433:Drivers/STM32H7xx_HAL_Driver/Src/stm32h7xx_ll_usb.c ****   }
 1094              		.loc 1 433 19 is_stmt 0 view .LVU347
 1095 0164 A369     		ldr	r3, [r4, #24]
 1096 0166 43F00803 		orr	r3, r3, #8
 1097 016a A361     		str	r3, [r4, #24]
 1098              	.L72:
 436:Drivers/STM32H7xx_HAL_Driver/Src/stm32h7xx_ll_usb.c ****   {
 1099              		.loc 1 436 3 is_stmt 1 view .LVU348
 436:Drivers/STM32H7xx_HAL_Driver/Src/stm32h7xx_ll_usb.c ****   {
 1100              		.loc 1 436 6 is_stmt 0 view .LVU349
 1101 016c 012E     		cmp	r6, #1
 1102 016e 04D0     		beq	.L82
 1103              	.L73:
 441:Drivers/STM32H7xx_HAL_Driver/Src/stm32h7xx_ll_usb.c **** }
 1104              		.loc 1 441 3 is_stmt 1 view .LVU350
 442:Drivers/STM32H7xx_HAL_Driver/Src/stm32h7xx_ll_usb.c **** 
 1105              		.loc 1 442 1 is_stmt 0 view .LVU351
 1106 0170 2846     		mov	r0, r5
 1107 0172 BDE8F840 		pop	{r3, r4, r5, r6, r7, lr}
 1108              	.LCFI16:
 1109              		.cfi_remember_state
 1110              		.cfi_restore 14
 1111              		.cfi_restore 7
 1112              		.cfi_restore 6
 1113              		.cfi_restore 5
 1114              		.cfi_restore 4
 1115              		.cfi_restore 3
 1116              		.cfi_def_cfa_offset 16
 1117              	.LVL82:
 442:Drivers/STM32H7xx_HAL_Driver/Src/stm32h7xx_ll_usb.c **** 
 1118              		.loc 1 442 1 view .LVU352
 1119 0176 04B0     		add	sp, sp, #16
 1120              	.LCFI17:
 1121              		.cfi_def_cfa_offset 0
 1122 0178 7047     		bx	lr
 1123              	.LVL83:
 1124              	.L82:
 1125              	.LCFI18:
 1126              		.cfi_restore_state
 438:Drivers/STM32H7xx_HAL_Driver/Src/stm32h7xx_ll_usb.c ****   }
 1127              		.loc 1 438 5 is_stmt 1 view .LVU353
ARM GAS  C:\Users\PgRick\AppData\Local\Temp\ccFebq6t.s 			page 51


 438:Drivers/STM32H7xx_HAL_Driver/Src/stm32h7xx_ll_usb.c ****   }
 1128              		.loc 1 438 19 is_stmt 0 view .LVU354
 1129 017a A269     		ldr	r2, [r4, #24]
 1130 017c 024B     		ldr	r3, .L83+4
 1131 017e 1343     		orrs	r3, r3, r2
 1132 0180 A361     		str	r3, [r4, #24]
 1133 0182 F5E7     		b	.L73
 1134              	.L84:
 1135              		.align	2
 1136              	.L83:
 1137 0184 00383C80 		.word	-2143537152
 1138 0188 04000040 		.word	1073741828
 1139              		.cfi_endproc
 1140              	.LFE149:
 1142              		.section	.text.USB_GetDevSpeed,"ax",%progbits
 1143              		.align	1
 1144              		.global	USB_GetDevSpeed
 1145              		.syntax unified
 1146              		.thumb
 1147              		.thumb_func
 1149              	USB_GetDevSpeed:
 1150              	.LVL84:
 1151              	.LFB153:
 549:Drivers/STM32H7xx_HAL_Driver/Src/stm32h7xx_ll_usb.c ****   uint32_t USBx_BASE = (uint32_t)USBx;
 1152              		.loc 1 549 1 is_stmt 1 view -0
 1153              		.cfi_startproc
 1154              		@ args = 0, pretend = 0, frame = 0
 1155              		@ frame_needed = 0, uses_anonymous_args = 0
 1156              		@ link register save eliminated.
 550:Drivers/STM32H7xx_HAL_Driver/Src/stm32h7xx_ll_usb.c ****   uint8_t speed;
 1157              		.loc 1 550 3 view .LVU356
 551:Drivers/STM32H7xx_HAL_Driver/Src/stm32h7xx_ll_usb.c ****   uint32_t DevEnumSpeed = USBx_DEVICE->DSTS & USB_OTG_DSTS_ENUMSPD;
 1158              		.loc 1 551 3 view .LVU357
 552:Drivers/STM32H7xx_HAL_Driver/Src/stm32h7xx_ll_usb.c **** 
 1159              		.loc 1 552 3 view .LVU358
 552:Drivers/STM32H7xx_HAL_Driver/Src/stm32h7xx_ll_usb.c **** 
 1160              		.loc 1 552 38 is_stmt 0 view .LVU359
 1161 0000 D0F80838 		ldr	r3, [r0, #2056]
 1162              	.LVL85:
 554:Drivers/STM32H7xx_HAL_Driver/Src/stm32h7xx_ll_usb.c ****   {
 1163              		.loc 1 554 3 is_stmt 1 view .LVU360
 554:Drivers/STM32H7xx_HAL_Driver/Src/stm32h7xx_ll_usb.c ****   {
 1164              		.loc 1 554 6 is_stmt 0 view .LVU361
 1165 0004 13F00603 		ands	r3, r3, #6
 1166              	.LVL86:
 554:Drivers/STM32H7xx_HAL_Driver/Src/stm32h7xx_ll_usb.c ****   {
 1167              		.loc 1 554 6 view .LVU362
 1168 0008 05D0     		beq	.L87
 558:Drivers/STM32H7xx_HAL_Driver/Src/stm32h7xx_ll_usb.c ****            (DevEnumSpeed == DSTS_ENUMSPD_FS_PHY_48MHZ))
 1169              		.loc 1 558 8 is_stmt 1 view .LVU363
 558:Drivers/STM32H7xx_HAL_Driver/Src/stm32h7xx_ll_usb.c ****            (DevEnumSpeed == DSTS_ENUMSPD_FS_PHY_48MHZ))
 1170              		.loc 1 558 11 is_stmt 0 view .LVU364
 1171 000a 062B     		cmp	r3, #6
 1172 000c 18BF     		it	ne
 1173 000e 022B     		cmpne	r3, #2
 1174 0010 03D1     		bne	.L88
 561:Drivers/STM32H7xx_HAL_Driver/Src/stm32h7xx_ll_usb.c ****   }
ARM GAS  C:\Users\PgRick\AppData\Local\Temp\ccFebq6t.s 			page 52


 1175              		.loc 1 561 11 view .LVU365
 1176 0012 0220     		movs	r0, #2
 1177              	.LVL87:
 561:Drivers/STM32H7xx_HAL_Driver/Src/stm32h7xx_ll_usb.c ****   }
 1178              		.loc 1 561 11 view .LVU366
 1179 0014 7047     		bx	lr
 1180              	.LVL88:
 1181              	.L87:
 556:Drivers/STM32H7xx_HAL_Driver/Src/stm32h7xx_ll_usb.c ****   }
 1182              		.loc 1 556 11 view .LVU367
 1183 0016 0020     		movs	r0, #0
 1184              	.LVL89:
 556:Drivers/STM32H7xx_HAL_Driver/Src/stm32h7xx_ll_usb.c ****   }
 1185              		.loc 1 556 11 view .LVU368
 1186 0018 7047     		bx	lr
 1187              	.LVL90:
 1188              	.L88:
 565:Drivers/STM32H7xx_HAL_Driver/Src/stm32h7xx_ll_usb.c ****   }
 1189              		.loc 1 565 11 view .LVU369
 1190 001a 0F20     		movs	r0, #15
 1191              	.LVL91:
 568:Drivers/STM32H7xx_HAL_Driver/Src/stm32h7xx_ll_usb.c **** }
 1192              		.loc 1 568 3 is_stmt 1 view .LVU370
 569:Drivers/STM32H7xx_HAL_Driver/Src/stm32h7xx_ll_usb.c **** 
 1193              		.loc 1 569 1 is_stmt 0 view .LVU371
 1194 001c 7047     		bx	lr
 1195              		.cfi_endproc
 1196              	.LFE153:
 1198              		.section	.text.USB_ActivateEndpoint,"ax",%progbits
 1199              		.align	1
 1200              		.global	USB_ActivateEndpoint
 1201              		.syntax unified
 1202              		.thumb
 1203              		.thumb_func
 1205              	USB_ActivateEndpoint:
 1206              	.LVL92:
 1207              	.LFB154:
 578:Drivers/STM32H7xx_HAL_Driver/Src/stm32h7xx_ll_usb.c ****   uint32_t USBx_BASE = (uint32_t)USBx;
 1208              		.loc 1 578 1 is_stmt 1 view -0
 1209              		.cfi_startproc
 1210              		@ args = 0, pretend = 0, frame = 0
 1211              		@ frame_needed = 0, uses_anonymous_args = 0
 578:Drivers/STM32H7xx_HAL_Driver/Src/stm32h7xx_ll_usb.c ****   uint32_t USBx_BASE = (uint32_t)USBx;
 1212              		.loc 1 578 1 is_stmt 0 view .LVU373
 1213 0000 10B5     		push	{r4, lr}
 1214              	.LCFI19:
 1215              		.cfi_def_cfa_offset 8
 1216              		.cfi_offset 4, -8
 1217              		.cfi_offset 14, -4
 579:Drivers/STM32H7xx_HAL_Driver/Src/stm32h7xx_ll_usb.c ****   uint32_t epnum = (uint32_t)ep->num;
 1218              		.loc 1 579 3 is_stmt 1 view .LVU374
 1219              	.LVL93:
 580:Drivers/STM32H7xx_HAL_Driver/Src/stm32h7xx_ll_usb.c **** 
 1220              		.loc 1 580 3 view .LVU375
 580:Drivers/STM32H7xx_HAL_Driver/Src/stm32h7xx_ll_usb.c **** 
 1221              		.loc 1 580 32 is_stmt 0 view .LVU376
 1222 0002 91F800C0 		ldrb	ip, [r1]	@ zero_extendqisi2
ARM GAS  C:\Users\PgRick\AppData\Local\Temp\ccFebq6t.s 			page 53


 1223              	.LVL94:
 582:Drivers/STM32H7xx_HAL_Driver/Src/stm32h7xx_ll_usb.c ****   {
 1224              		.loc 1 582 3 is_stmt 1 view .LVU377
 582:Drivers/STM32H7xx_HAL_Driver/Src/stm32h7xx_ll_usb.c ****   {
 1225              		.loc 1 582 9 is_stmt 0 view .LVU378
 1226 0006 4B78     		ldrb	r3, [r1, #1]	@ zero_extendqisi2
 582:Drivers/STM32H7xx_HAL_Driver/Src/stm32h7xx_ll_usb.c ****   {
 1227              		.loc 1 582 6 view .LVU379
 1228 0008 012B     		cmp	r3, #1
 1229 000a 21D0     		beq	.L93
 596:Drivers/STM32H7xx_HAL_Driver/Src/stm32h7xx_ll_usb.c **** 
 1230              		.loc 1 596 5 is_stmt 1 view .LVU380
 596:Drivers/STM32H7xx_HAL_Driver/Src/stm32h7xx_ll_usb.c **** 
 1231              		.loc 1 596 27 is_stmt 0 view .LVU381
 1232 000c 00F5006E 		add	lr, r0, #2048
 1233 0010 D0F81C38 		ldr	r3, [r0, #2076]
 596:Drivers/STM32H7xx_HAL_Driver/Src/stm32h7xx_ll_usb.c **** 
 1234              		.loc 1 596 82 view .LVU382
 1235 0014 0CF00F04 		and	r4, ip, #15
 596:Drivers/STM32H7xx_HAL_Driver/Src/stm32h7xx_ll_usb.c **** 
 1236              		.loc 1 596 55 view .LVU383
 1237 0018 0122     		movs	r2, #1
 1238 001a A240     		lsls	r2, r2, r4
 596:Drivers/STM32H7xx_HAL_Driver/Src/stm32h7xx_ll_usb.c **** 
 1239              		.loc 1 596 27 view .LVU384
 1240 001c 43EA0243 		orr	r3, r3, r2, lsl #16
 1241 0020 C0F81C38 		str	r3, [r0, #2076]
 598:Drivers/STM32H7xx_HAL_Driver/Src/stm32h7xx_ll_usb.c ****     {
 1242              		.loc 1 598 5 is_stmt 1 view .LVU385
 598:Drivers/STM32H7xx_HAL_Driver/Src/stm32h7xx_ll_usb.c ****     {
 1243              		.loc 1 598 11 is_stmt 0 view .LVU386
 1244 0024 00EB4C10 		add	r0, r0, ip, lsl #5
 1245              	.LVL95:
 598:Drivers/STM32H7xx_HAL_Driver/Src/stm32h7xx_ll_usb.c ****     {
 1246              		.loc 1 598 28 view .LVU387
 1247 0028 D0F8003B 		ldr	r3, [r0, #2816]
 598:Drivers/STM32H7xx_HAL_Driver/Src/stm32h7xx_ll_usb.c ****     {
 1248              		.loc 1 598 8 view .LVU388
 1249 002c 13F4004F 		tst	r3, #32768
 1250 0030 0CD1     		bne	.L91
 600:Drivers/STM32H7xx_HAL_Driver/Src/stm32h7xx_ll_usb.c ****                                     ((uint32_t)ep->type << 18) |
 1251              		.loc 1 600 7 is_stmt 1 view .LVU389
 600:Drivers/STM32H7xx_HAL_Driver/Src/stm32h7xx_ll_usb.c ****                                     ((uint32_t)ep->type << 18) |
 1252              		.loc 1 600 34 is_stmt 0 view .LVU390
 1253 0032 D0F8002B 		ldr	r2, [r0, #2816]
 600:Drivers/STM32H7xx_HAL_Driver/Src/stm32h7xx_ll_usb.c ****                                     ((uint32_t)ep->type << 18) |
 1254              		.loc 1 600 40 view .LVU391
 1255 0036 8B68     		ldr	r3, [r1, #8]
 600:Drivers/STM32H7xx_HAL_Driver/Src/stm32h7xx_ll_usb.c ****                                     ((uint32_t)ep->type << 18) |
 1256              		.loc 1 600 52 view .LVU392
 1257 0038 C3F30A03 		ubfx	r3, r3, #0, #11
 601:Drivers/STM32H7xx_HAL_Driver/Src/stm32h7xx_ll_usb.c ****                                     USB_OTG_DIEPCTL_SD0PID_SEVNFRM |
 1258              		.loc 1 601 50 view .LVU393
 1259 003c 0979     		ldrb	r1, [r1, #4]	@ zero_extendqisi2
 1260              	.LVL96:
 600:Drivers/STM32H7xx_HAL_Driver/Src/stm32h7xx_ll_usb.c ****                                     ((uint32_t)ep->type << 18) |
 1261              		.loc 1 600 77 view .LVU394
ARM GAS  C:\Users\PgRick\AppData\Local\Temp\ccFebq6t.s 			page 54


 1262 003e 43EA8143 		orr	r3, r3, r1, lsl #18
 600:Drivers/STM32H7xx_HAL_Driver/Src/stm32h7xx_ll_usb.c ****                                     ((uint32_t)ep->type << 18) |
 1263              		.loc 1 600 34 view .LVU395
 1264 0042 1343     		orrs	r3, r3, r2
 1265 0044 144A     		ldr	r2, .L94
 1266 0046 1A43     		orrs	r2, r2, r3
 1267 0048 C0F8002B 		str	r2, [r0, #2816]
 1268              	.LVL97:
 1269              	.L91:
 606:Drivers/STM32H7xx_HAL_Driver/Src/stm32h7xx_ll_usb.c **** }
 1270              		.loc 1 606 3 is_stmt 1 view .LVU396
 607:Drivers/STM32H7xx_HAL_Driver/Src/stm32h7xx_ll_usb.c **** 
 1271              		.loc 1 607 1 is_stmt 0 view .LVU397
 1272 004c 0020     		movs	r0, #0
 1273 004e 10BD     		pop	{r4, pc}
 1274              	.LVL98:
 1275              	.L93:
 584:Drivers/STM32H7xx_HAL_Driver/Src/stm32h7xx_ll_usb.c **** 
 1276              		.loc 1 584 5 is_stmt 1 view .LVU398
 584:Drivers/STM32H7xx_HAL_Driver/Src/stm32h7xx_ll_usb.c **** 
 1277              		.loc 1 584 27 is_stmt 0 view .LVU399
 1278 0050 D0F81C28 		ldr	r2, [r0, #2076]
 584:Drivers/STM32H7xx_HAL_Driver/Src/stm32h7xx_ll_usb.c **** 
 1279              		.loc 1 584 81 view .LVU400
 1280 0054 0CF00F0E 		and	lr, ip, #15
 584:Drivers/STM32H7xx_HAL_Driver/Src/stm32h7xx_ll_usb.c **** 
 1281              		.loc 1 584 54 view .LVU401
 1282 0058 03FA0EF3 		lsl	r3, r3, lr
 584:Drivers/STM32H7xx_HAL_Driver/Src/stm32h7xx_ll_usb.c **** 
 1283              		.loc 1 584 52 view .LVU402
 1284 005c 9BB2     		uxth	r3, r3
 584:Drivers/STM32H7xx_HAL_Driver/Src/stm32h7xx_ll_usb.c **** 
 1285              		.loc 1 584 27 view .LVU403
 1286 005e 1343     		orrs	r3, r3, r2
 1287 0060 C0F81C38 		str	r3, [r0, #2076]
 586:Drivers/STM32H7xx_HAL_Driver/Src/stm32h7xx_ll_usb.c ****     {
 1288              		.loc 1 586 5 is_stmt 1 view .LVU404
 586:Drivers/STM32H7xx_HAL_Driver/Src/stm32h7xx_ll_usb.c ****     {
 1289              		.loc 1 586 10 is_stmt 0 view .LVU405
 1290 0064 00EB4C10 		add	r0, r0, ip, lsl #5
 1291              	.LVL99:
 586:Drivers/STM32H7xx_HAL_Driver/Src/stm32h7xx_ll_usb.c ****     {
 1292              		.loc 1 586 26 view .LVU406
 1293 0068 D0F80039 		ldr	r3, [r0, #2304]
 586:Drivers/STM32H7xx_HAL_Driver/Src/stm32h7xx_ll_usb.c ****     {
 1294              		.loc 1 586 8 view .LVU407
 1295 006c 13F4004F 		tst	r3, #32768
 1296 0070 ECD1     		bne	.L91
 588:Drivers/STM32H7xx_HAL_Driver/Src/stm32h7xx_ll_usb.c ****                                    ((uint32_t)ep->type << 18) | (epnum << 22) |
 1297              		.loc 1 588 7 is_stmt 1 view .LVU408
 588:Drivers/STM32H7xx_HAL_Driver/Src/stm32h7xx_ll_usb.c ****                                    ((uint32_t)ep->type << 18) | (epnum << 22) |
 1298              		.loc 1 588 33 is_stmt 0 view .LVU409
 1299 0072 D0F80029 		ldr	r2, [r0, #2304]
 588:Drivers/STM32H7xx_HAL_Driver/Src/stm32h7xx_ll_usb.c ****                                    ((uint32_t)ep->type << 18) | (epnum << 22) |
 1300              		.loc 1 588 39 view .LVU410
 1301 0076 8B68     		ldr	r3, [r1, #8]
 588:Drivers/STM32H7xx_HAL_Driver/Src/stm32h7xx_ll_usb.c ****                                    ((uint32_t)ep->type << 18) | (epnum << 22) |
ARM GAS  C:\Users\PgRick\AppData\Local\Temp\ccFebq6t.s 			page 55


 1302              		.loc 1 588 51 view .LVU411
 1303 0078 C3F30A03 		ubfx	r3, r3, #0, #11
 589:Drivers/STM32H7xx_HAL_Driver/Src/stm32h7xx_ll_usb.c ****                                    USB_OTG_DIEPCTL_SD0PID_SEVNFRM |
 1304              		.loc 1 589 49 view .LVU412
 1305 007c 0979     		ldrb	r1, [r1, #4]	@ zero_extendqisi2
 1306              	.LVL100:
 588:Drivers/STM32H7xx_HAL_Driver/Src/stm32h7xx_ll_usb.c ****                                    ((uint32_t)ep->type << 18) | (epnum << 22) |
 1307              		.loc 1 588 76 view .LVU413
 1308 007e 43EA8143 		orr	r3, r3, r1, lsl #18
 589:Drivers/STM32H7xx_HAL_Driver/Src/stm32h7xx_ll_usb.c ****                                    USB_OTG_DIEPCTL_SD0PID_SEVNFRM |
 1309              		.loc 1 589 63 view .LVU414
 1310 0082 43EA8C5C 		orr	ip, r3, ip, lsl #22
 1311              	.LVL101:
 588:Drivers/STM32H7xx_HAL_Driver/Src/stm32h7xx_ll_usb.c ****                                    ((uint32_t)ep->type << 18) | (epnum << 22) |
 1312              		.loc 1 588 33 view .LVU415
 1313 0086 42EA0C0C 		orr	ip, r2, ip
 1314 008a 034B     		ldr	r3, .L94
 1315 008c 4CEA0303 		orr	r3, ip, r3
 1316 0090 C0F80039 		str	r3, [r0, #2304]
 1317 0094 DAE7     		b	.L91
 1318              	.L95:
 1319 0096 00BF     		.align	2
 1320              	.L94:
 1321 0098 00800010 		.word	268468224
 1322              		.cfi_endproc
 1323              	.LFE154:
 1325              		.section	.text.USB_ActivateDedicatedEndpoint,"ax",%progbits
 1326              		.align	1
 1327              		.global	USB_ActivateDedicatedEndpoint
 1328              		.syntax unified
 1329              		.thumb
 1330              		.thumb_func
 1332              	USB_ActivateDedicatedEndpoint:
 1333              	.LVL102:
 1334              	.LFB155:
 616:Drivers/STM32H7xx_HAL_Driver/Src/stm32h7xx_ll_usb.c ****   uint32_t USBx_BASE = (uint32_t)USBx;
 1335              		.loc 1 616 1 is_stmt 1 view -0
 1336              		.cfi_startproc
 1337              		@ args = 0, pretend = 0, frame = 0
 1338              		@ frame_needed = 0, uses_anonymous_args = 0
 1339              		@ link register save eliminated.
 616:Drivers/STM32H7xx_HAL_Driver/Src/stm32h7xx_ll_usb.c ****   uint32_t USBx_BASE = (uint32_t)USBx;
 1340              		.loc 1 616 1 is_stmt 0 view .LVU417
 1341 0000 30B4     		push	{r4, r5}
 1342              	.LCFI20:
 1343              		.cfi_def_cfa_offset 8
 1344              		.cfi_offset 4, -8
 1345              		.cfi_offset 5, -4
 617:Drivers/STM32H7xx_HAL_Driver/Src/stm32h7xx_ll_usb.c ****   uint32_t epnum = (uint32_t)ep->num;
 1346              		.loc 1 617 3 is_stmt 1 view .LVU418
 1347              	.LVL103:
 618:Drivers/STM32H7xx_HAL_Driver/Src/stm32h7xx_ll_usb.c **** 
 1348              		.loc 1 618 3 view .LVU419
 618:Drivers/STM32H7xx_HAL_Driver/Src/stm32h7xx_ll_usb.c **** 
 1349              		.loc 1 618 32 is_stmt 0 view .LVU420
 1350 0002 0A78     		ldrb	r2, [r1]	@ zero_extendqisi2
 1351              	.LVL104:
ARM GAS  C:\Users\PgRick\AppData\Local\Temp\ccFebq6t.s 			page 56


 621:Drivers/STM32H7xx_HAL_Driver/Src/stm32h7xx_ll_usb.c ****   {
 1352              		.loc 1 621 3 is_stmt 1 view .LVU421
 621:Drivers/STM32H7xx_HAL_Driver/Src/stm32h7xx_ll_usb.c ****   {
 1353              		.loc 1 621 9 is_stmt 0 view .LVU422
 1354 0004 4B78     		ldrb	r3, [r1, #1]	@ zero_extendqisi2
 621:Drivers/STM32H7xx_HAL_Driver/Src/stm32h7xx_ll_usb.c ****   {
 1355              		.loc 1 621 6 view .LVU423
 1356 0006 012B     		cmp	r3, #1
 1357 0008 23D0     		beq	.L102
 635:Drivers/STM32H7xx_HAL_Driver/Src/stm32h7xx_ll_usb.c ****     {
 1358              		.loc 1 635 5 is_stmt 1 view .LVU424
 635:Drivers/STM32H7xx_HAL_Driver/Src/stm32h7xx_ll_usb.c ****     {
 1359              		.loc 1 635 11 is_stmt 0 view .LVU425
 1360 000a 00EB421C 		add	ip, r0, r2, lsl #5
 635:Drivers/STM32H7xx_HAL_Driver/Src/stm32h7xx_ll_usb.c ****     {
 1361              		.loc 1 635 28 view .LVU426
 1362 000e DCF8003B 		ldr	r3, [ip, #2816]
 635:Drivers/STM32H7xx_HAL_Driver/Src/stm32h7xx_ll_usb.c ****     {
 1363              		.loc 1 635 8 view .LVU427
 1364 0012 13F4004F 		tst	r3, #32768
 1365 0016 0ED1     		bne	.L100
 637:Drivers/STM32H7xx_HAL_Driver/Src/stm32h7xx_ll_usb.c ****                                     ((uint32_t)ep->type << 18) | (epnum << 22) |
 1366              		.loc 1 637 7 is_stmt 1 view .LVU428
 637:Drivers/STM32H7xx_HAL_Driver/Src/stm32h7xx_ll_usb.c ****                                     ((uint32_t)ep->type << 18) | (epnum << 22) |
 1367              		.loc 1 637 34 is_stmt 0 view .LVU429
 1368 0018 DCF8004B 		ldr	r4, [ip, #2816]
 637:Drivers/STM32H7xx_HAL_Driver/Src/stm32h7xx_ll_usb.c ****                                     ((uint32_t)ep->type << 18) | (epnum << 22) |
 1369              		.loc 1 637 40 view .LVU430
 1370 001c 8B68     		ldr	r3, [r1, #8]
 637:Drivers/STM32H7xx_HAL_Driver/Src/stm32h7xx_ll_usb.c ****                                     ((uint32_t)ep->type << 18) | (epnum << 22) |
 1371              		.loc 1 637 52 view .LVU431
 1372 001e C3F30A03 		ubfx	r3, r3, #0, #11
 638:Drivers/STM32H7xx_HAL_Driver/Src/stm32h7xx_ll_usb.c ****                                     USB_OTG_DOEPCTL_USBAEP;
 1373              		.loc 1 638 50 view .LVU432
 1374 0022 0D79     		ldrb	r5, [r1, #4]	@ zero_extendqisi2
 637:Drivers/STM32H7xx_HAL_Driver/Src/stm32h7xx_ll_usb.c ****                                     ((uint32_t)ep->type << 18) | (epnum << 22) |
 1375              		.loc 1 637 77 view .LVU433
 1376 0024 43EA8543 		orr	r3, r3, r5, lsl #18
 638:Drivers/STM32H7xx_HAL_Driver/Src/stm32h7xx_ll_usb.c ****                                     USB_OTG_DOEPCTL_USBAEP;
 1377              		.loc 1 638 64 view .LVU434
 1378 0028 43EA8253 		orr	r3, r3, r2, lsl #22
 637:Drivers/STM32H7xx_HAL_Driver/Src/stm32h7xx_ll_usb.c ****                                     ((uint32_t)ep->type << 18) | (epnum << 22) |
 1379              		.loc 1 637 34 view .LVU435
 1380 002c 2343     		orrs	r3, r3, r4
 1381 002e 43F40043 		orr	r3, r3, #32768
 1382 0032 CCF8003B 		str	r3, [ip, #2816]
 1383              	.L100:
 642:Drivers/STM32H7xx_HAL_Driver/Src/stm32h7xx_ll_usb.c ****   }
 1384              		.loc 1 642 5 is_stmt 1 view .LVU436
 642:Drivers/STM32H7xx_HAL_Driver/Src/stm32h7xx_ll_usb.c ****   }
 1385              		.loc 1 642 27 is_stmt 0 view .LVU437
 1386 0036 D0F83C38 		ldr	r3, [r0, #2108]
 642:Drivers/STM32H7xx_HAL_Driver/Src/stm32h7xx_ll_usb.c ****   }
 1387              		.loc 1 642 76 view .LVU438
 1388 003a 0A78     		ldrb	r2, [r1]	@ zero_extendqisi2
 1389              	.LVL105:
 642:Drivers/STM32H7xx_HAL_Driver/Src/stm32h7xx_ll_usb.c ****   }
ARM GAS  C:\Users\PgRick\AppData\Local\Temp\ccFebq6t.s 			page 57


 1390              		.loc 1 642 82 view .LVU439
 1391 003c 02F00F01 		and	r1, r2, #15
 1392              	.LVL106:
 642:Drivers/STM32H7xx_HAL_Driver/Src/stm32h7xx_ll_usb.c ****   }
 1393              		.loc 1 642 55 view .LVU440
 1394 0040 0122     		movs	r2, #1
 1395 0042 8A40     		lsls	r2, r2, r1
 642:Drivers/STM32H7xx_HAL_Driver/Src/stm32h7xx_ll_usb.c ****   }
 1396              		.loc 1 642 27 view .LVU441
 1397 0044 43EA0243 		orr	r3, r3, r2, lsl #16
 1398 0048 C0F83C38 		str	r3, [r0, #2108]
 1399              	.L99:
 645:Drivers/STM32H7xx_HAL_Driver/Src/stm32h7xx_ll_usb.c **** }
 1400              		.loc 1 645 3 is_stmt 1 view .LVU442
 646:Drivers/STM32H7xx_HAL_Driver/Src/stm32h7xx_ll_usb.c **** 
 1401              		.loc 1 646 1 is_stmt 0 view .LVU443
 1402 004c 0020     		movs	r0, #0
 1403              	.LVL107:
 646:Drivers/STM32H7xx_HAL_Driver/Src/stm32h7xx_ll_usb.c **** 
 1404              		.loc 1 646 1 view .LVU444
 1405 004e 30BC     		pop	{r4, r5}
 1406              	.LCFI21:
 1407              		.cfi_remember_state
 1408              		.cfi_restore 5
 1409              		.cfi_restore 4
 1410              		.cfi_def_cfa_offset 0
 1411 0050 7047     		bx	lr
 1412              	.LVL108:
 1413              	.L102:
 1414              	.LCFI22:
 1415              		.cfi_restore_state
 623:Drivers/STM32H7xx_HAL_Driver/Src/stm32h7xx_ll_usb.c ****     {
 1416              		.loc 1 623 5 is_stmt 1 view .LVU445
 623:Drivers/STM32H7xx_HAL_Driver/Src/stm32h7xx_ll_usb.c ****     {
 1417              		.loc 1 623 11 is_stmt 0 view .LVU446
 1418 0052 00EB4214 		add	r4, r0, r2, lsl #5
 623:Drivers/STM32H7xx_HAL_Driver/Src/stm32h7xx_ll_usb.c ****     {
 1419              		.loc 1 623 27 view .LVU447
 1420 0056 D4F80039 		ldr	r3, [r4, #2304]
 623:Drivers/STM32H7xx_HAL_Driver/Src/stm32h7xx_ll_usb.c ****     {
 1421              		.loc 1 623 8 view .LVU448
 1422 005a 13F4004F 		tst	r3, #32768
 1423 005e 0FD1     		bne	.L98
 625:Drivers/STM32H7xx_HAL_Driver/Src/stm32h7xx_ll_usb.c ****                                    ((uint32_t)ep->type << 18) | (epnum << 22) |
 1424              		.loc 1 625 7 is_stmt 1 view .LVU449
 625:Drivers/STM32H7xx_HAL_Driver/Src/stm32h7xx_ll_usb.c ****                                    ((uint32_t)ep->type << 18) | (epnum << 22) |
 1425              		.loc 1 625 33 is_stmt 0 view .LVU450
 1426 0060 D4F80059 		ldr	r5, [r4, #2304]
 625:Drivers/STM32H7xx_HAL_Driver/Src/stm32h7xx_ll_usb.c ****                                    ((uint32_t)ep->type << 18) | (epnum << 22) |
 1427              		.loc 1 625 39 view .LVU451
 1428 0064 8B68     		ldr	r3, [r1, #8]
 625:Drivers/STM32H7xx_HAL_Driver/Src/stm32h7xx_ll_usb.c ****                                    ((uint32_t)ep->type << 18) | (epnum << 22) |
 1429              		.loc 1 625 51 view .LVU452
 1430 0066 C3F30A03 		ubfx	r3, r3, #0, #11
 626:Drivers/STM32H7xx_HAL_Driver/Src/stm32h7xx_ll_usb.c ****                                    USB_OTG_DIEPCTL_SD0PID_SEVNFRM |
 1431              		.loc 1 626 49 view .LVU453
 1432 006a 91F804C0 		ldrb	ip, [r1, #4]	@ zero_extendqisi2
ARM GAS  C:\Users\PgRick\AppData\Local\Temp\ccFebq6t.s 			page 58


 625:Drivers/STM32H7xx_HAL_Driver/Src/stm32h7xx_ll_usb.c ****                                    ((uint32_t)ep->type << 18) | (epnum << 22) |
 1433              		.loc 1 625 76 view .LVU454
 1434 006e 43EA8C43 		orr	r3, r3, ip, lsl #18
 626:Drivers/STM32H7xx_HAL_Driver/Src/stm32h7xx_ll_usb.c ****                                    USB_OTG_DIEPCTL_SD0PID_SEVNFRM |
 1435              		.loc 1 626 63 view .LVU455
 1436 0072 43EA8253 		orr	r3, r3, r2, lsl #22
 625:Drivers/STM32H7xx_HAL_Driver/Src/stm32h7xx_ll_usb.c ****                                    ((uint32_t)ep->type << 18) | (epnum << 22) |
 1437              		.loc 1 625 33 view .LVU456
 1438 0076 2B43     		orrs	r3, r3, r5
 1439 0078 074A     		ldr	r2, .L103
 1440              	.LVL109:
 625:Drivers/STM32H7xx_HAL_Driver/Src/stm32h7xx_ll_usb.c ****                                    ((uint32_t)ep->type << 18) | (epnum << 22) |
 1441              		.loc 1 625 33 view .LVU457
 1442 007a 1A43     		orrs	r2, r2, r3
 1443 007c C4F80029 		str	r2, [r4, #2304]
 1444              	.LVL110:
 1445              	.L98:
 631:Drivers/STM32H7xx_HAL_Driver/Src/stm32h7xx_ll_usb.c ****   }
 1446              		.loc 1 631 5 is_stmt 1 view .LVU458
 631:Drivers/STM32H7xx_HAL_Driver/Src/stm32h7xx_ll_usb.c ****   }
 1447              		.loc 1 631 27 is_stmt 0 view .LVU459
 1448 0080 D0F83C28 		ldr	r2, [r0, #2108]
 631:Drivers/STM32H7xx_HAL_Driver/Src/stm32h7xx_ll_usb.c ****   }
 1449              		.loc 1 631 75 view .LVU460
 1450 0084 0B78     		ldrb	r3, [r1]	@ zero_extendqisi2
 631:Drivers/STM32H7xx_HAL_Driver/Src/stm32h7xx_ll_usb.c ****   }
 1451              		.loc 1 631 81 view .LVU461
 1452 0086 03F00F01 		and	r1, r3, #15
 1453              	.LVL111:
 631:Drivers/STM32H7xx_HAL_Driver/Src/stm32h7xx_ll_usb.c ****   }
 1454              		.loc 1 631 54 view .LVU462
 1455 008a 0123     		movs	r3, #1
 1456 008c 8B40     		lsls	r3, r3, r1
 631:Drivers/STM32H7xx_HAL_Driver/Src/stm32h7xx_ll_usb.c ****   }
 1457              		.loc 1 631 52 view .LVU463
 1458 008e 9BB2     		uxth	r3, r3
 631:Drivers/STM32H7xx_HAL_Driver/Src/stm32h7xx_ll_usb.c ****   }
 1459              		.loc 1 631 27 view .LVU464
 1460 0090 1343     		orrs	r3, r3, r2
 1461 0092 C0F83C38 		str	r3, [r0, #2108]
 1462 0096 D9E7     		b	.L99
 1463              	.L104:
 1464              		.align	2
 1465              	.L103:
 1466 0098 00800010 		.word	268468224
 1467              		.cfi_endproc
 1468              	.LFE155:
 1470              		.section	.text.USB_DeactivateEndpoint,"ax",%progbits
 1471              		.align	1
 1472              		.global	USB_DeactivateEndpoint
 1473              		.syntax unified
 1474              		.thumb
 1475              		.thumb_func
 1477              	USB_DeactivateEndpoint:
 1478              	.LVL112:
 1479              	.LFB156:
 655:Drivers/STM32H7xx_HAL_Driver/Src/stm32h7xx_ll_usb.c ****   uint32_t USBx_BASE = (uint32_t)USBx;
ARM GAS  C:\Users\PgRick\AppData\Local\Temp\ccFebq6t.s 			page 59


 1480              		.loc 1 655 1 is_stmt 1 view -0
 1481              		.cfi_startproc
 1482              		@ args = 0, pretend = 0, frame = 0
 1483              		@ frame_needed = 0, uses_anonymous_args = 0
 1484              		@ link register save eliminated.
 655:Drivers/STM32H7xx_HAL_Driver/Src/stm32h7xx_ll_usb.c ****   uint32_t USBx_BASE = (uint32_t)USBx;
 1485              		.loc 1 655 1 is_stmt 0 view .LVU466
 1486 0000 30B4     		push	{r4, r5}
 1487              	.LCFI23:
 1488              		.cfi_def_cfa_offset 8
 1489              		.cfi_offset 4, -8
 1490              		.cfi_offset 5, -4
 656:Drivers/STM32H7xx_HAL_Driver/Src/stm32h7xx_ll_usb.c ****   uint32_t epnum = (uint32_t)ep->num;
 1491              		.loc 1 656 3 is_stmt 1 view .LVU467
 1492              	.LVL113:
 657:Drivers/STM32H7xx_HAL_Driver/Src/stm32h7xx_ll_usb.c **** 
 1493              		.loc 1 657 3 view .LVU468
 657:Drivers/STM32H7xx_HAL_Driver/Src/stm32h7xx_ll_usb.c **** 
 1494              		.loc 1 657 32 is_stmt 0 view .LVU469
 1495 0002 0B78     		ldrb	r3, [r1]	@ zero_extendqisi2
 1496              	.LVL114:
 660:Drivers/STM32H7xx_HAL_Driver/Src/stm32h7xx_ll_usb.c ****   {
 1497              		.loc 1 660 3 is_stmt 1 view .LVU470
 660:Drivers/STM32H7xx_HAL_Driver/Src/stm32h7xx_ll_usb.c ****   {
 1498              		.loc 1 660 9 is_stmt 0 view .LVU471
 1499 0004 4A78     		ldrb	r2, [r1, #1]	@ zero_extendqisi2
 660:Drivers/STM32H7xx_HAL_Driver/Src/stm32h7xx_ll_usb.c ****   {
 1500              		.loc 1 660 6 view .LVU472
 1501 0006 012A     		cmp	r2, #1
 1502 0008 26D0     		beq	.L111
 678:Drivers/STM32H7xx_HAL_Driver/Src/stm32h7xx_ll_usb.c ****     {
 1503              		.loc 1 678 5 is_stmt 1 view .LVU473
 678:Drivers/STM32H7xx_HAL_Driver/Src/stm32h7xx_ll_usb.c ****     {
 1504              		.loc 1 678 10 is_stmt 0 view .LVU474
 1505 000a 00EB4313 		add	r3, r0, r3, lsl #5
 1506              	.LVL115:
 678:Drivers/STM32H7xx_HAL_Driver/Src/stm32h7xx_ll_usb.c ****     {
 1507              		.loc 1 678 27 view .LVU475
 1508 000e D3F8002B 		ldr	r2, [r3, #2816]
 678:Drivers/STM32H7xx_HAL_Driver/Src/stm32h7xx_ll_usb.c ****     {
 1509              		.loc 1 678 8 view .LVU476
 1510 0012 002A     		cmp	r2, #0
 1511 0014 52DB     		blt	.L112
 1512              	.LVL116:
 1513              	.L109:
 684:Drivers/STM32H7xx_HAL_Driver/Src/stm32h7xx_ll_usb.c ****     USBx_DEVICE->DAINTMSK &= ~(USB_OTG_DAINTMSK_OEPM & ((uint32_t)(1UL << (ep->num & EP_ADDR_MSK)) 
 1514              		.loc 1 684 5 is_stmt 1 view .LVU477
 684:Drivers/STM32H7xx_HAL_Driver/Src/stm32h7xx_ll_usb.c ****     USBx_DEVICE->DAINTMSK &= ~(USB_OTG_DAINTMSK_OEPM & ((uint32_t)(1UL << (ep->num & EP_ADDR_MSK)) 
 1515              		.loc 1 684 27 is_stmt 0 view .LVU478
 1516 0016 D0F83C48 		ldr	r4, [r0, #2108]
 684:Drivers/STM32H7xx_HAL_Driver/Src/stm32h7xx_ll_usb.c ****     USBx_DEVICE->DAINTMSK &= ~(USB_OTG_DAINTMSK_OEPM & ((uint32_t)(1UL << (ep->num & EP_ADDR_MSK)) 
 1517              		.loc 1 684 78 view .LVU479
 1518 001a 0A78     		ldrb	r2, [r1]	@ zero_extendqisi2
 684:Drivers/STM32H7xx_HAL_Driver/Src/stm32h7xx_ll_usb.c ****     USBx_DEVICE->DAINTMSK &= ~(USB_OTG_DAINTMSK_OEPM & ((uint32_t)(1UL << (ep->num & EP_ADDR_MSK)) 
 1519              		.loc 1 684 84 view .LVU480
 1520 001c 02F00F02 		and	r2, r2, #15
 684:Drivers/STM32H7xx_HAL_Driver/Src/stm32h7xx_ll_usb.c ****     USBx_DEVICE->DAINTMSK &= ~(USB_OTG_DAINTMSK_OEPM & ((uint32_t)(1UL << (ep->num & EP_ADDR_MSK)) 
ARM GAS  C:\Users\PgRick\AppData\Local\Temp\ccFebq6t.s 			page 60


 1521              		.loc 1 684 57 view .LVU481
 1522 0020 4FF0010C 		mov	ip, #1
 1523 0024 0CFA02F2 		lsl	r2, ip, r2
 684:Drivers/STM32H7xx_HAL_Driver/Src/stm32h7xx_ll_usb.c ****     USBx_DEVICE->DAINTMSK &= ~(USB_OTG_DAINTMSK_OEPM & ((uint32_t)(1UL << (ep->num & EP_ADDR_MSK)) 
 1524              		.loc 1 684 27 view .LVU482
 1525 0028 24EA0242 		bic	r2, r4, r2, lsl #16
 1526 002c C0F83C28 		str	r2, [r0, #2108]
 685:Drivers/STM32H7xx_HAL_Driver/Src/stm32h7xx_ll_usb.c ****     USBx_OUTEP(epnum)->DOEPCTL &= ~(USB_OTG_DOEPCTL_USBAEP |
 1527              		.loc 1 685 5 is_stmt 1 view .LVU483
 685:Drivers/STM32H7xx_HAL_Driver/Src/stm32h7xx_ll_usb.c ****     USBx_OUTEP(epnum)->DOEPCTL &= ~(USB_OTG_DOEPCTL_USBAEP |
 1528              		.loc 1 685 27 is_stmt 0 view .LVU484
 1529 0030 D0F81C28 		ldr	r2, [r0, #2076]
 685:Drivers/STM32H7xx_HAL_Driver/Src/stm32h7xx_ll_usb.c ****     USBx_OUTEP(epnum)->DOEPCTL &= ~(USB_OTG_DOEPCTL_USBAEP |
 1530              		.loc 1 685 78 view .LVU485
 1531 0034 0978     		ldrb	r1, [r1]	@ zero_extendqisi2
 1532              	.LVL117:
 685:Drivers/STM32H7xx_HAL_Driver/Src/stm32h7xx_ll_usb.c ****     USBx_OUTEP(epnum)->DOEPCTL &= ~(USB_OTG_DOEPCTL_USBAEP |
 1533              		.loc 1 685 84 view .LVU486
 1534 0036 01F00F01 		and	r1, r1, #15
 685:Drivers/STM32H7xx_HAL_Driver/Src/stm32h7xx_ll_usb.c ****     USBx_OUTEP(epnum)->DOEPCTL &= ~(USB_OTG_DOEPCTL_USBAEP |
 1535              		.loc 1 685 57 view .LVU487
 1536 003a 0CFA01FC 		lsl	ip, ip, r1
 685:Drivers/STM32H7xx_HAL_Driver/Src/stm32h7xx_ll_usb.c ****     USBx_OUTEP(epnum)->DOEPCTL &= ~(USB_OTG_DOEPCTL_USBAEP |
 1537              		.loc 1 685 27 view .LVU488
 1538 003e 22EA0C42 		bic	r2, r2, ip, lsl #16
 1539 0042 C0F81C28 		str	r2, [r0, #2076]
 686:Drivers/STM32H7xx_HAL_Driver/Src/stm32h7xx_ll_usb.c ****                                     USB_OTG_DOEPCTL_MPSIZ |
 1540              		.loc 1 686 5 is_stmt 1 view .LVU489
 686:Drivers/STM32H7xx_HAL_Driver/Src/stm32h7xx_ll_usb.c ****                                     USB_OTG_DOEPCTL_MPSIZ |
 1541              		.loc 1 686 32 is_stmt 0 view .LVU490
 1542 0046 D3F8001B 		ldr	r1, [r3, #2816]
 1543 004a 234A     		ldr	r2, .L114
 1544 004c 0A40     		ands	r2, r2, r1
 1545 004e C3F8002B 		str	r2, [r3, #2816]
 1546              	.L108:
 692:Drivers/STM32H7xx_HAL_Driver/Src/stm32h7xx_ll_usb.c **** }
 1547              		.loc 1 692 3 is_stmt 1 view .LVU491
 693:Drivers/STM32H7xx_HAL_Driver/Src/stm32h7xx_ll_usb.c **** 
 1548              		.loc 1 693 1 is_stmt 0 view .LVU492
 1549 0052 0020     		movs	r0, #0
 1550              	.LVL118:
 693:Drivers/STM32H7xx_HAL_Driver/Src/stm32h7xx_ll_usb.c **** 
 1551              		.loc 1 693 1 view .LVU493
 1552 0054 30BC     		pop	{r4, r5}
 1553              	.LCFI24:
 1554              		.cfi_remember_state
 1555              		.cfi_restore 5
 1556              		.cfi_restore 4
 1557              		.cfi_def_cfa_offset 0
 1558 0056 7047     		bx	lr
 1559              	.LVL119:
 1560              	.L111:
 1561              	.LCFI25:
 1562              		.cfi_restore_state
 662:Drivers/STM32H7xx_HAL_Driver/Src/stm32h7xx_ll_usb.c ****     {
 1563              		.loc 1 662 5 is_stmt 1 view .LVU494
 662:Drivers/STM32H7xx_HAL_Driver/Src/stm32h7xx_ll_usb.c ****     {
ARM GAS  C:\Users\PgRick\AppData\Local\Temp\ccFebq6t.s 			page 61


 1564              		.loc 1 662 10 is_stmt 0 view .LVU495
 1565 0058 00EB4313 		add	r3, r0, r3, lsl #5
 1566              	.LVL120:
 662:Drivers/STM32H7xx_HAL_Driver/Src/stm32h7xx_ll_usb.c ****     {
 1567              		.loc 1 662 26 view .LVU496
 1568 005c D3F80029 		ldr	r2, [r3, #2304]
 662:Drivers/STM32H7xx_HAL_Driver/Src/stm32h7xx_ll_usb.c ****     {
 1569              		.loc 1 662 8 view .LVU497
 1570 0060 002A     		cmp	r2, #0
 1571 0062 1EDB     		blt	.L113
 1572              	.LVL121:
 1573              	.L107:
 668:Drivers/STM32H7xx_HAL_Driver/Src/stm32h7xx_ll_usb.c ****     USBx_DEVICE->DAINTMSK &= ~(USB_OTG_DAINTMSK_IEPM & (uint32_t)(1UL << (ep->num & EP_ADDR_MSK)));
 1574              		.loc 1 668 5 is_stmt 1 view .LVU498
 668:Drivers/STM32H7xx_HAL_Driver/Src/stm32h7xx_ll_usb.c ****     USBx_DEVICE->DAINTMSK &= ~(USB_OTG_DAINTMSK_IEPM & (uint32_t)(1UL << (ep->num & EP_ADDR_MSK)));
 1575              		.loc 1 668 27 is_stmt 0 view .LVU499
 1576 0064 D0F83C58 		ldr	r5, [r0, #2108]
 668:Drivers/STM32H7xx_HAL_Driver/Src/stm32h7xx_ll_usb.c ****     USBx_DEVICE->DAINTMSK &= ~(USB_OTG_DAINTMSK_IEPM & (uint32_t)(1UL << (ep->num & EP_ADDR_MSK)));
 1577              		.loc 1 668 77 view .LVU500
 1578 0068 0A78     		ldrb	r2, [r1]	@ zero_extendqisi2
 668:Drivers/STM32H7xx_HAL_Driver/Src/stm32h7xx_ll_usb.c ****     USBx_DEVICE->DAINTMSK &= ~(USB_OTG_DAINTMSK_IEPM & (uint32_t)(1UL << (ep->num & EP_ADDR_MSK)));
 1579              		.loc 1 668 83 view .LVU501
 1580 006a 02F00F02 		and	r2, r2, #15
 668:Drivers/STM32H7xx_HAL_Driver/Src/stm32h7xx_ll_usb.c ****     USBx_DEVICE->DAINTMSK &= ~(USB_OTG_DAINTMSK_IEPM & (uint32_t)(1UL << (ep->num & EP_ADDR_MSK)));
 1581              		.loc 1 668 56 view .LVU502
 1582 006e 0124     		movs	r4, #1
 1583 0070 04FA02F2 		lsl	r2, r4, r2
 668:Drivers/STM32H7xx_HAL_Driver/Src/stm32h7xx_ll_usb.c ****     USBx_DEVICE->DAINTMSK &= ~(USB_OTG_DAINTMSK_IEPM & (uint32_t)(1UL << (ep->num & EP_ADDR_MSK)));
 1584              		.loc 1 668 54 view .LVU503
 1585 0074 92B2     		uxth	r2, r2
 668:Drivers/STM32H7xx_HAL_Driver/Src/stm32h7xx_ll_usb.c ****     USBx_DEVICE->DAINTMSK &= ~(USB_OTG_DAINTMSK_IEPM & (uint32_t)(1UL << (ep->num & EP_ADDR_MSK)));
 1586              		.loc 1 668 27 view .LVU504
 1587 0076 25EA0202 		bic	r2, r5, r2
 1588 007a C0F83C28 		str	r2, [r0, #2108]
 669:Drivers/STM32H7xx_HAL_Driver/Src/stm32h7xx_ll_usb.c ****     USBx_INEP(epnum)->DIEPCTL &= ~(USB_OTG_DIEPCTL_USBAEP |
 1589              		.loc 1 669 5 is_stmt 1 view .LVU505
 669:Drivers/STM32H7xx_HAL_Driver/Src/stm32h7xx_ll_usb.c ****     USBx_INEP(epnum)->DIEPCTL &= ~(USB_OTG_DIEPCTL_USBAEP |
 1590              		.loc 1 669 27 is_stmt 0 view .LVU506
 1591 007e D0F81C28 		ldr	r2, [r0, #2076]
 669:Drivers/STM32H7xx_HAL_Driver/Src/stm32h7xx_ll_usb.c ****     USBx_INEP(epnum)->DIEPCTL &= ~(USB_OTG_DIEPCTL_USBAEP |
 1592              		.loc 1 669 77 view .LVU507
 1593 0082 0978     		ldrb	r1, [r1]	@ zero_extendqisi2
 1594              	.LVL122:
 669:Drivers/STM32H7xx_HAL_Driver/Src/stm32h7xx_ll_usb.c ****     USBx_INEP(epnum)->DIEPCTL &= ~(USB_OTG_DIEPCTL_USBAEP |
 1595              		.loc 1 669 83 view .LVU508
 1596 0084 01F00F01 		and	r1, r1, #15
 669:Drivers/STM32H7xx_HAL_Driver/Src/stm32h7xx_ll_usb.c ****     USBx_INEP(epnum)->DIEPCTL &= ~(USB_OTG_DIEPCTL_USBAEP |
 1597              		.loc 1 669 56 view .LVU509
 1598 0088 8C40     		lsls	r4, r4, r1
 669:Drivers/STM32H7xx_HAL_Driver/Src/stm32h7xx_ll_usb.c ****     USBx_INEP(epnum)->DIEPCTL &= ~(USB_OTG_DIEPCTL_USBAEP |
 1599              		.loc 1 669 54 view .LVU510
 1600 008a A4B2     		uxth	r4, r4
 669:Drivers/STM32H7xx_HAL_Driver/Src/stm32h7xx_ll_usb.c ****     USBx_INEP(epnum)->DIEPCTL &= ~(USB_OTG_DIEPCTL_USBAEP |
 1601              		.loc 1 669 27 view .LVU511
 1602 008c 22EA0404 		bic	r4, r2, r4
 1603 0090 C0F81C48 		str	r4, [r0, #2076]
 670:Drivers/STM32H7xx_HAL_Driver/Src/stm32h7xx_ll_usb.c ****                                    USB_OTG_DIEPCTL_MPSIZ |
ARM GAS  C:\Users\PgRick\AppData\Local\Temp\ccFebq6t.s 			page 62


 1604              		.loc 1 670 5 is_stmt 1 view .LVU512
 670:Drivers/STM32H7xx_HAL_Driver/Src/stm32h7xx_ll_usb.c ****                                    USB_OTG_DIEPCTL_MPSIZ |
 1605              		.loc 1 670 31 is_stmt 0 view .LVU513
 1606 0094 D3F80019 		ldr	r1, [r3, #2304]
 1607 0098 104A     		ldr	r2, .L114+4
 1608 009a 0A40     		ands	r2, r2, r1
 1609 009c C3F80029 		str	r2, [r3, #2304]
 1610 00a0 D7E7     		b	.L108
 1611              	.LVL123:
 1612              	.L113:
 664:Drivers/STM32H7xx_HAL_Driver/Src/stm32h7xx_ll_usb.c ****       USBx_INEP(epnum)->DIEPCTL |= USB_OTG_DIEPCTL_EPDIS;
 1613              		.loc 1 664 7 is_stmt 1 view .LVU514
 664:Drivers/STM32H7xx_HAL_Driver/Src/stm32h7xx_ll_usb.c ****       USBx_INEP(epnum)->DIEPCTL |= USB_OTG_DIEPCTL_EPDIS;
 1614              		.loc 1 664 33 is_stmt 0 view .LVU515
 1615 00a2 D3F80029 		ldr	r2, [r3, #2304]
 1616 00a6 42F00062 		orr	r2, r2, #134217728
 1617 00aa C3F80029 		str	r2, [r3, #2304]
 1618              	.LVL124:
 665:Drivers/STM32H7xx_HAL_Driver/Src/stm32h7xx_ll_usb.c ****     }
 1619              		.loc 1 665 7 is_stmt 1 view .LVU516
 665:Drivers/STM32H7xx_HAL_Driver/Src/stm32h7xx_ll_usb.c ****     }
 1620              		.loc 1 665 33 is_stmt 0 view .LVU517
 1621 00ae D3F80029 		ldr	r2, [r3, #2304]
 1622 00b2 42F08042 		orr	r2, r2, #1073741824
 1623 00b6 C3F80029 		str	r2, [r3, #2304]
 1624 00ba D3E7     		b	.L107
 1625              	.LVL125:
 1626              	.L112:
 680:Drivers/STM32H7xx_HAL_Driver/Src/stm32h7xx_ll_usb.c ****       USBx_OUTEP(epnum)->DOEPCTL |= USB_OTG_DOEPCTL_EPDIS;
 1627              		.loc 1 680 7 is_stmt 1 view .LVU518
 680:Drivers/STM32H7xx_HAL_Driver/Src/stm32h7xx_ll_usb.c ****       USBx_OUTEP(epnum)->DOEPCTL |= USB_OTG_DOEPCTL_EPDIS;
 1628              		.loc 1 680 34 is_stmt 0 view .LVU519
 1629 00bc D3F8002B 		ldr	r2, [r3, #2816]
 1630 00c0 42F00062 		orr	r2, r2, #134217728
 1631 00c4 C3F8002B 		str	r2, [r3, #2816]
 1632              	.LVL126:
 681:Drivers/STM32H7xx_HAL_Driver/Src/stm32h7xx_ll_usb.c ****     }
 1633              		.loc 1 681 7 is_stmt 1 view .LVU520
 681:Drivers/STM32H7xx_HAL_Driver/Src/stm32h7xx_ll_usb.c ****     }
 1634              		.loc 1 681 34 is_stmt 0 view .LVU521
 1635 00c8 D3F8002B 		ldr	r2, [r3, #2816]
 1636 00cc 42F08042 		orr	r2, r2, #1073741824
 1637 00d0 C3F8002B 		str	r2, [r3, #2816]
 1638 00d4 9FE7     		b	.L109
 1639              	.L115:
 1640 00d6 00BF     		.align	2
 1641              	.L114:
 1642 00d8 0078F3EF 		.word	-269256704
 1643 00dc 007833EC 		.word	-332171264
 1644              		.cfi_endproc
 1645              	.LFE156:
 1647              		.section	.text.USB_DeactivateDedicatedEndpoint,"ax",%progbits
 1648              		.align	1
 1649              		.global	USB_DeactivateDedicatedEndpoint
 1650              		.syntax unified
 1651              		.thumb
 1652              		.thumb_func
ARM GAS  C:\Users\PgRick\AppData\Local\Temp\ccFebq6t.s 			page 63


 1654              	USB_DeactivateDedicatedEndpoint:
 1655              	.LVL127:
 1656              	.LFB157:
 702:Drivers/STM32H7xx_HAL_Driver/Src/stm32h7xx_ll_usb.c ****   uint32_t USBx_BASE = (uint32_t)USBx;
 1657              		.loc 1 702 1 is_stmt 1 view -0
 1658              		.cfi_startproc
 1659              		@ args = 0, pretend = 0, frame = 0
 1660              		@ frame_needed = 0, uses_anonymous_args = 0
 1661              		@ link register save eliminated.
 703:Drivers/STM32H7xx_HAL_Driver/Src/stm32h7xx_ll_usb.c ****   uint32_t epnum = (uint32_t)ep->num;
 1662              		.loc 1 703 3 view .LVU523
 704:Drivers/STM32H7xx_HAL_Driver/Src/stm32h7xx_ll_usb.c **** 
 1663              		.loc 1 704 3 view .LVU524
 704:Drivers/STM32H7xx_HAL_Driver/Src/stm32h7xx_ll_usb.c **** 
 1664              		.loc 1 704 32 is_stmt 0 view .LVU525
 1665 0000 0B78     		ldrb	r3, [r1]	@ zero_extendqisi2
 1666              	.LVL128:
 707:Drivers/STM32H7xx_HAL_Driver/Src/stm32h7xx_ll_usb.c ****   {
 1667              		.loc 1 707 3 is_stmt 1 view .LVU526
 707:Drivers/STM32H7xx_HAL_Driver/Src/stm32h7xx_ll_usb.c ****   {
 1668              		.loc 1 707 9 is_stmt 0 view .LVU527
 1669 0002 4A78     		ldrb	r2, [r1, #1]	@ zero_extendqisi2
 707:Drivers/STM32H7xx_HAL_Driver/Src/stm32h7xx_ll_usb.c ****   {
 1670              		.loc 1 707 6 view .LVU528
 1671 0004 012A     		cmp	r2, #1
 1672 0006 18D0     		beq	.L121
 720:Drivers/STM32H7xx_HAL_Driver/Src/stm32h7xx_ll_usb.c ****     {
 1673              		.loc 1 720 5 is_stmt 1 view .LVU529
 720:Drivers/STM32H7xx_HAL_Driver/Src/stm32h7xx_ll_usb.c ****     {
 1674              		.loc 1 720 10 is_stmt 0 view .LVU530
 1675 0008 00EB4313 		add	r3, r0, r3, lsl #5
 1676              	.LVL129:
 720:Drivers/STM32H7xx_HAL_Driver/Src/stm32h7xx_ll_usb.c ****     {
 1677              		.loc 1 720 27 view .LVU531
 1678 000c D3F8002B 		ldr	r2, [r3, #2816]
 720:Drivers/STM32H7xx_HAL_Driver/Src/stm32h7xx_ll_usb.c ****     {
 1679              		.loc 1 720 8 view .LVU532
 1680 0010 002A     		cmp	r2, #0
 1681 0012 38DB     		blt	.L122
 1682              	.LVL130:
 1683              	.L120:
 726:Drivers/STM32H7xx_HAL_Driver/Src/stm32h7xx_ll_usb.c ****     USBx_DEVICE->DAINTMSK &= ~(USB_OTG_DAINTMSK_OEPM & ((uint32_t)(1UL << (ep->num & EP_ADDR_MSK)) 
 1684              		.loc 1 726 5 is_stmt 1 view .LVU533
 726:Drivers/STM32H7xx_HAL_Driver/Src/stm32h7xx_ll_usb.c ****     USBx_DEVICE->DAINTMSK &= ~(USB_OTG_DAINTMSK_OEPM & ((uint32_t)(1UL << (ep->num & EP_ADDR_MSK)) 
 1685              		.loc 1 726 32 is_stmt 0 view .LVU534
 1686 0014 D3F8002B 		ldr	r2, [r3, #2816]
 1687 0018 22F40042 		bic	r2, r2, #32768
 1688 001c C3F8002B 		str	r2, [r3, #2816]
 727:Drivers/STM32H7xx_HAL_Driver/Src/stm32h7xx_ll_usb.c ****   }
 1689              		.loc 1 727 5 is_stmt 1 view .LVU535
 727:Drivers/STM32H7xx_HAL_Driver/Src/stm32h7xx_ll_usb.c ****   }
 1690              		.loc 1 727 27 is_stmt 0 view .LVU536
 1691 0020 D0F81C38 		ldr	r3, [r0, #2076]
 727:Drivers/STM32H7xx_HAL_Driver/Src/stm32h7xx_ll_usb.c ****   }
 1692              		.loc 1 727 78 view .LVU537
 1693 0024 0A78     		ldrb	r2, [r1]	@ zero_extendqisi2
 727:Drivers/STM32H7xx_HAL_Driver/Src/stm32h7xx_ll_usb.c ****   }
ARM GAS  C:\Users\PgRick\AppData\Local\Temp\ccFebq6t.s 			page 64


 1694              		.loc 1 727 84 view .LVU538
 1695 0026 02F00F01 		and	r1, r2, #15
 1696              	.LVL131:
 727:Drivers/STM32H7xx_HAL_Driver/Src/stm32h7xx_ll_usb.c ****   }
 1697              		.loc 1 727 57 view .LVU539
 1698 002a 0122     		movs	r2, #1
 1699 002c 8A40     		lsls	r2, r2, r1
 727:Drivers/STM32H7xx_HAL_Driver/Src/stm32h7xx_ll_usb.c ****   }
 1700              		.loc 1 727 27 view .LVU540
 1701 002e 23EA0243 		bic	r3, r3, r2, lsl #16
 1702 0032 C0F81C38 		str	r3, [r0, #2076]
 1703              	.L119:
 730:Drivers/STM32H7xx_HAL_Driver/Src/stm32h7xx_ll_usb.c **** }
 1704              		.loc 1 730 3 is_stmt 1 view .LVU541
 731:Drivers/STM32H7xx_HAL_Driver/Src/stm32h7xx_ll_usb.c **** 
 1705              		.loc 1 731 1 is_stmt 0 view .LVU542
 1706 0036 0020     		movs	r0, #0
 1707              	.LVL132:
 731:Drivers/STM32H7xx_HAL_Driver/Src/stm32h7xx_ll_usb.c **** 
 1708              		.loc 1 731 1 view .LVU543
 1709 0038 7047     		bx	lr
 1710              	.LVL133:
 1711              	.L121:
 709:Drivers/STM32H7xx_HAL_Driver/Src/stm32h7xx_ll_usb.c ****     {
 1712              		.loc 1 709 5 is_stmt 1 view .LVU544
 709:Drivers/STM32H7xx_HAL_Driver/Src/stm32h7xx_ll_usb.c ****     {
 1713              		.loc 1 709 10 is_stmt 0 view .LVU545
 1714 003a 00EB4313 		add	r3, r0, r3, lsl #5
 1715              	.LVL134:
 709:Drivers/STM32H7xx_HAL_Driver/Src/stm32h7xx_ll_usb.c ****     {
 1716              		.loc 1 709 26 view .LVU546
 1717 003e D3F80029 		ldr	r2, [r3, #2304]
 709:Drivers/STM32H7xx_HAL_Driver/Src/stm32h7xx_ll_usb.c ****     {
 1718              		.loc 1 709 8 view .LVU547
 1719 0042 002A     		cmp	r2, #0
 1720 0044 12DB     		blt	.L123
 1721              	.LVL135:
 1722              	.L118:
 715:Drivers/STM32H7xx_HAL_Driver/Src/stm32h7xx_ll_usb.c ****     USBx_DEVICE->DAINTMSK &= ~(USB_OTG_DAINTMSK_IEPM & (uint32_t)(1UL << (ep->num & EP_ADDR_MSK)));
 1723              		.loc 1 715 5 is_stmt 1 view .LVU548
 715:Drivers/STM32H7xx_HAL_Driver/Src/stm32h7xx_ll_usb.c ****     USBx_DEVICE->DAINTMSK &= ~(USB_OTG_DAINTMSK_IEPM & (uint32_t)(1UL << (ep->num & EP_ADDR_MSK)));
 1724              		.loc 1 715 31 is_stmt 0 view .LVU549
 1725 0046 D3F80029 		ldr	r2, [r3, #2304]
 1726 004a 22F40042 		bic	r2, r2, #32768
 1727 004e C3F80029 		str	r2, [r3, #2304]
 716:Drivers/STM32H7xx_HAL_Driver/Src/stm32h7xx_ll_usb.c ****   }
 1728              		.loc 1 716 5 is_stmt 1 view .LVU550
 716:Drivers/STM32H7xx_HAL_Driver/Src/stm32h7xx_ll_usb.c ****   }
 1729              		.loc 1 716 27 is_stmt 0 view .LVU551
 1730 0052 D0F81C28 		ldr	r2, [r0, #2076]
 716:Drivers/STM32H7xx_HAL_Driver/Src/stm32h7xx_ll_usb.c ****   }
 1731              		.loc 1 716 77 view .LVU552
 1732 0056 0B78     		ldrb	r3, [r1]	@ zero_extendqisi2
 716:Drivers/STM32H7xx_HAL_Driver/Src/stm32h7xx_ll_usb.c ****   }
 1733              		.loc 1 716 83 view .LVU553
 1734 0058 03F00F01 		and	r1, r3, #15
 1735              	.LVL136:
ARM GAS  C:\Users\PgRick\AppData\Local\Temp\ccFebq6t.s 			page 65


 716:Drivers/STM32H7xx_HAL_Driver/Src/stm32h7xx_ll_usb.c ****   }
 1736              		.loc 1 716 56 view .LVU554
 1737 005c 0123     		movs	r3, #1
 1738 005e 8B40     		lsls	r3, r3, r1
 716:Drivers/STM32H7xx_HAL_Driver/Src/stm32h7xx_ll_usb.c ****   }
 1739              		.loc 1 716 54 view .LVU555
 1740 0060 9BB2     		uxth	r3, r3
 716:Drivers/STM32H7xx_HAL_Driver/Src/stm32h7xx_ll_usb.c ****   }
 1741              		.loc 1 716 27 view .LVU556
 1742 0062 22EA0303 		bic	r3, r2, r3
 1743 0066 C0F81C38 		str	r3, [r0, #2076]
 1744 006a E4E7     		b	.L119
 1745              	.LVL137:
 1746              	.L123:
 711:Drivers/STM32H7xx_HAL_Driver/Src/stm32h7xx_ll_usb.c ****       USBx_INEP(epnum)->DIEPCTL  |= USB_OTG_DIEPCTL_EPDIS;
 1747              		.loc 1 711 7 is_stmt 1 view .LVU557
 711:Drivers/STM32H7xx_HAL_Driver/Src/stm32h7xx_ll_usb.c ****       USBx_INEP(epnum)->DIEPCTL  |= USB_OTG_DIEPCTL_EPDIS;
 1748              		.loc 1 711 34 is_stmt 0 view .LVU558
 1749 006c D3F80029 		ldr	r2, [r3, #2304]
 1750 0070 42F00062 		orr	r2, r2, #134217728
 1751 0074 C3F80029 		str	r2, [r3, #2304]
 1752              	.LVL138:
 712:Drivers/STM32H7xx_HAL_Driver/Src/stm32h7xx_ll_usb.c ****     }
 1753              		.loc 1 712 7 is_stmt 1 view .LVU559
 712:Drivers/STM32H7xx_HAL_Driver/Src/stm32h7xx_ll_usb.c ****     }
 1754              		.loc 1 712 34 is_stmt 0 view .LVU560
 1755 0078 D3F80029 		ldr	r2, [r3, #2304]
 1756 007c 42F08042 		orr	r2, r2, #1073741824
 1757 0080 C3F80029 		str	r2, [r3, #2304]
 1758 0084 DFE7     		b	.L118
 1759              	.LVL139:
 1760              	.L122:
 722:Drivers/STM32H7xx_HAL_Driver/Src/stm32h7xx_ll_usb.c ****       USBx_OUTEP(epnum)->DOEPCTL  |= USB_OTG_DOEPCTL_EPDIS;
 1761              		.loc 1 722 7 is_stmt 1 view .LVU561
 722:Drivers/STM32H7xx_HAL_Driver/Src/stm32h7xx_ll_usb.c ****       USBx_OUTEP(epnum)->DOEPCTL  |= USB_OTG_DOEPCTL_EPDIS;
 1762              		.loc 1 722 35 is_stmt 0 view .LVU562
 1763 0086 D3F8002B 		ldr	r2, [r3, #2816]
 1764 008a 42F00062 		orr	r2, r2, #134217728
 1765 008e C3F8002B 		str	r2, [r3, #2816]
 1766              	.LVL140:
 723:Drivers/STM32H7xx_HAL_Driver/Src/stm32h7xx_ll_usb.c ****     }
 1767              		.loc 1 723 7 is_stmt 1 view .LVU563
 723:Drivers/STM32H7xx_HAL_Driver/Src/stm32h7xx_ll_usb.c ****     }
 1768              		.loc 1 723 35 is_stmt 0 view .LVU564
 1769 0092 D3F8002B 		ldr	r2, [r3, #2816]
 1770 0096 42F08042 		orr	r2, r2, #1073741824
 1771 009a C3F8002B 		str	r2, [r3, #2816]
 1772 009e B9E7     		b	.L120
 1773              		.cfi_endproc
 1774              	.LFE157:
 1776              		.section	.text.USB_EPStopXfer,"ax",%progbits
 1777              		.align	1
 1778              		.global	USB_EPStopXfer
 1779              		.syntax unified
 1780              		.thumb
 1781              		.thumb_func
 1783              	USB_EPStopXfer:
ARM GAS  C:\Users\PgRick\AppData\Local\Temp\ccFebq6t.s 			page 66


 1784              	.LVL141:
 1785              	.LFB159:
 916:Drivers/STM32H7xx_HAL_Driver/Src/stm32h7xx_ll_usb.c ****   __IO uint32_t count = 0U;
 1786              		.loc 1 916 1 is_stmt 1 view -0
 1787              		.cfi_startproc
 1788              		@ args = 0, pretend = 0, frame = 8
 1789              		@ frame_needed = 0, uses_anonymous_args = 0
 1790              		@ link register save eliminated.
 916:Drivers/STM32H7xx_HAL_Driver/Src/stm32h7xx_ll_usb.c ****   __IO uint32_t count = 0U;
 1791              		.loc 1 916 1 is_stmt 0 view .LVU566
 1792 0000 10B4     		push	{r4}
 1793              	.LCFI26:
 1794              		.cfi_def_cfa_offset 4
 1795              		.cfi_offset 4, -4
 1796 0002 83B0     		sub	sp, sp, #12
 1797              	.LCFI27:
 1798              		.cfi_def_cfa_offset 16
 1799 0004 0246     		mov	r2, r0
 917:Drivers/STM32H7xx_HAL_Driver/Src/stm32h7xx_ll_usb.c ****   HAL_StatusTypeDef ret = HAL_OK;
 1800              		.loc 1 917 3 is_stmt 1 view .LVU567
 917:Drivers/STM32H7xx_HAL_Driver/Src/stm32h7xx_ll_usb.c ****   HAL_StatusTypeDef ret = HAL_OK;
 1801              		.loc 1 917 17 is_stmt 0 view .LVU568
 1802 0006 0023     		movs	r3, #0
 1803 0008 0193     		str	r3, [sp, #4]
 918:Drivers/STM32H7xx_HAL_Driver/Src/stm32h7xx_ll_usb.c ****   uint32_t USBx_BASE = (uint32_t)USBx;
 1804              		.loc 1 918 3 is_stmt 1 view .LVU569
 1805              	.LVL142:
 919:Drivers/STM32H7xx_HAL_Driver/Src/stm32h7xx_ll_usb.c **** 
 1806              		.loc 1 919 3 view .LVU570
 922:Drivers/STM32H7xx_HAL_Driver/Src/stm32h7xx_ll_usb.c ****   {
 1807              		.loc 1 922 3 view .LVU571
 922:Drivers/STM32H7xx_HAL_Driver/Src/stm32h7xx_ll_usb.c ****   {
 1808              		.loc 1 922 9 is_stmt 0 view .LVU572
 1809 000a 4878     		ldrb	r0, [r1, #1]	@ zero_extendqisi2
 1810              	.LVL143:
 922:Drivers/STM32H7xx_HAL_Driver/Src/stm32h7xx_ll_usb.c ****   {
 1811              		.loc 1 922 6 view .LVU573
 1812 000c 0128     		cmp	r0, #1
 1813 000e 0BD0     		beq	.L133
 944:Drivers/STM32H7xx_HAL_Driver/Src/stm32h7xx_ll_usb.c ****     {
 1814              		.loc 1 944 5 is_stmt 1 view .LVU574
 944:Drivers/STM32H7xx_HAL_Driver/Src/stm32h7xx_ll_usb.c ****     {
 1815              		.loc 1 944 11 is_stmt 0 view .LVU575
 1816 0010 0B78     		ldrb	r3, [r1]	@ zero_extendqisi2
 1817 0012 02EB4313 		add	r3, r2, r3, lsl #5
 944:Drivers/STM32H7xx_HAL_Driver/Src/stm32h7xx_ll_usb.c ****     {
 1818              		.loc 1 944 30 view .LVU576
 1819 0016 D3F8000B 		ldr	r0, [r3, #2816]
 944:Drivers/STM32H7xx_HAL_Driver/Src/stm32h7xx_ll_usb.c ****     {
 1820              		.loc 1 944 8 view .LVU577
 1821 001a 0028     		cmp	r0, #0
 1822 001c 2DDB     		blt	.L134
 918:Drivers/STM32H7xx_HAL_Driver/Src/stm32h7xx_ll_usb.c ****   uint32_t USBx_BASE = (uint32_t)USBx;
 1823              		.loc 1 918 21 view .LVU578
 1824 001e 0020     		movs	r0, #0
 1825              	.L126:
 1826              	.LVL144:
ARM GAS  C:\Users\PgRick\AppData\Local\Temp\ccFebq6t.s 			page 67


 962:Drivers/STM32H7xx_HAL_Driver/Src/stm32h7xx_ll_usb.c **** }
 1827              		.loc 1 962 3 is_stmt 1 view .LVU579
 963:Drivers/STM32H7xx_HAL_Driver/Src/stm32h7xx_ll_usb.c **** 
 1828              		.loc 1 963 1 is_stmt 0 view .LVU580
 1829 0020 03B0     		add	sp, sp, #12
 1830              	.LCFI28:
 1831              		.cfi_remember_state
 1832              		.cfi_def_cfa_offset 4
 1833              		@ sp needed
 1834 0022 5DF8044B 		ldr	r4, [sp], #4
 1835              	.LCFI29:
 1836              		.cfi_restore 4
 1837              		.cfi_def_cfa_offset 0
 1838 0026 7047     		bx	lr
 1839              	.LVL145:
 1840              	.L133:
 1841              	.LCFI30:
 1842              		.cfi_restore_state
 925:Drivers/STM32H7xx_HAL_Driver/Src/stm32h7xx_ll_usb.c ****     {
 1843              		.loc 1 925 5 is_stmt 1 view .LVU581
 925:Drivers/STM32H7xx_HAL_Driver/Src/stm32h7xx_ll_usb.c ****     {
 1844              		.loc 1 925 11 is_stmt 0 view .LVU582
 1845 0028 0B78     		ldrb	r3, [r1]	@ zero_extendqisi2
 1846 002a 02EB4313 		add	r3, r2, r3, lsl #5
 925:Drivers/STM32H7xx_HAL_Driver/Src/stm32h7xx_ll_usb.c ****     {
 1847              		.loc 1 925 29 view .LVU583
 1848 002e D3F80049 		ldr	r4, [r3, #2304]
 925:Drivers/STM32H7xx_HAL_Driver/Src/stm32h7xx_ll_usb.c ****     {
 1849              		.loc 1 925 8 view .LVU584
 1850 0032 002C     		cmp	r4, #0
 1851 0034 01DB     		blt	.L135
 918:Drivers/STM32H7xx_HAL_Driver/Src/stm32h7xx_ll_usb.c ****   uint32_t USBx_BASE = (uint32_t)USBx;
 1852              		.loc 1 918 21 view .LVU585
 1853 0036 0020     		movs	r0, #0
 1854 0038 F2E7     		b	.L126
 1855              	.L135:
 927:Drivers/STM32H7xx_HAL_Driver/Src/stm32h7xx_ll_usb.c ****       USBx_INEP(ep->num)->DIEPCTL |= (USB_OTG_DIEPCTL_EPDIS);
 1856              		.loc 1 927 7 is_stmt 1 view .LVU586
 927:Drivers/STM32H7xx_HAL_Driver/Src/stm32h7xx_ll_usb.c ****       USBx_INEP(ep->num)->DIEPCTL |= (USB_OTG_DIEPCTL_EPDIS);
 1857              		.loc 1 927 35 is_stmt 0 view .LVU587
 1858 003a D3F80049 		ldr	r4, [r3, #2304]
 1859 003e 44F00064 		orr	r4, r4, #134217728
 1860 0042 C3F80049 		str	r4, [r3, #2304]
 928:Drivers/STM32H7xx_HAL_Driver/Src/stm32h7xx_ll_usb.c **** 
 1861              		.loc 1 928 7 is_stmt 1 view .LVU588
 1862 0046 0B78     		ldrb	r3, [r1]	@ zero_extendqisi2
 928:Drivers/STM32H7xx_HAL_Driver/Src/stm32h7xx_ll_usb.c **** 
 1863              		.loc 1 928 35 is_stmt 0 view .LVU589
 1864 0048 02EB4313 		add	r3, r2, r3, lsl #5
 1865 004c D3F80049 		ldr	r4, [r3, #2304]
 1866 0050 44F08044 		orr	r4, r4, #1073741824
 1867 0054 C3F80049 		str	r4, [r3, #2304]
 1868              	.L127:
 930:Drivers/STM32H7xx_HAL_Driver/Src/stm32h7xx_ll_usb.c ****       {
 1869              		.loc 1 930 7 is_stmt 1 view .LVU590
 932:Drivers/STM32H7xx_HAL_Driver/Src/stm32h7xx_ll_usb.c **** 
 1870              		.loc 1 932 9 view .LVU591
ARM GAS  C:\Users\PgRick\AppData\Local\Temp\ccFebq6t.s 			page 68


 932:Drivers/STM32H7xx_HAL_Driver/Src/stm32h7xx_ll_usb.c **** 
 1871              		.loc 1 932 14 is_stmt 0 view .LVU592
 1872 0058 019B     		ldr	r3, [sp, #4]
 1873 005a 0133     		adds	r3, r3, #1
 1874 005c 0193     		str	r3, [sp, #4]
 934:Drivers/STM32H7xx_HAL_Driver/Src/stm32h7xx_ll_usb.c ****         {
 1875              		.loc 1 934 9 is_stmt 1 view .LVU593
 934:Drivers/STM32H7xx_HAL_Driver/Src/stm32h7xx_ll_usb.c ****         {
 1876              		.loc 1 934 19 is_stmt 0 view .LVU594
 1877 005e 019C     		ldr	r4, [sp, #4]
 934:Drivers/STM32H7xx_HAL_Driver/Src/stm32h7xx_ll_usb.c ****         {
 1878              		.loc 1 934 12 view .LVU595
 1879 0060 42F21073 		movw	r3, #10000
 1880 0064 9C42     		cmp	r4, r3
 1881 0066 DBD8     		bhi	.L126
 939:Drivers/STM32H7xx_HAL_Driver/Src/stm32h7xx_ll_usb.c ****     }
 1882              		.loc 1 939 15 is_stmt 1 view .LVU596
 939:Drivers/STM32H7xx_HAL_Driver/Src/stm32h7xx_ll_usb.c ****     }
 1883              		.loc 1 939 18 is_stmt 0 view .LVU597
 1884 0068 0B78     		ldrb	r3, [r1]	@ zero_extendqisi2
 1885 006a 02EB4313 		add	r3, r2, r3, lsl #5
 939:Drivers/STM32H7xx_HAL_Driver/Src/stm32h7xx_ll_usb.c ****     }
 1886              		.loc 1 939 36 view .LVU598
 1887 006e D3F80039 		ldr	r3, [r3, #2304]
 939:Drivers/STM32H7xx_HAL_Driver/Src/stm32h7xx_ll_usb.c ****     }
 1888              		.loc 1 939 7 view .LVU599
 1889 0072 002B     		cmp	r3, #0
 1890 0074 F0DB     		blt	.L127
 918:Drivers/STM32H7xx_HAL_Driver/Src/stm32h7xx_ll_usb.c ****   uint32_t USBx_BASE = (uint32_t)USBx;
 1891              		.loc 1 918 21 view .LVU600
 1892 0076 0020     		movs	r0, #0
 1893 0078 D2E7     		b	.L126
 1894              	.L134:
 946:Drivers/STM32H7xx_HAL_Driver/Src/stm32h7xx_ll_usb.c ****       USBx_OUTEP(ep->num)->DOEPCTL |= (USB_OTG_DOEPCTL_EPDIS);
 1895              		.loc 1 946 7 is_stmt 1 view .LVU601
 946:Drivers/STM32H7xx_HAL_Driver/Src/stm32h7xx_ll_usb.c ****       USBx_OUTEP(ep->num)->DOEPCTL |= (USB_OTG_DOEPCTL_EPDIS);
 1896              		.loc 1 946 36 is_stmt 0 view .LVU602
 1897 007a D3F8000B 		ldr	r0, [r3, #2816]
 1898 007e 40F00060 		orr	r0, r0, #134217728
 1899 0082 C3F8000B 		str	r0, [r3, #2816]
 947:Drivers/STM32H7xx_HAL_Driver/Src/stm32h7xx_ll_usb.c **** 
 1900              		.loc 1 947 7 is_stmt 1 view .LVU603
 1901 0086 0B78     		ldrb	r3, [r1]	@ zero_extendqisi2
 947:Drivers/STM32H7xx_HAL_Driver/Src/stm32h7xx_ll_usb.c **** 
 1902              		.loc 1 947 36 is_stmt 0 view .LVU604
 1903 0088 02EB4313 		add	r3, r2, r3, lsl #5
 1904 008c D3F8000B 		ldr	r0, [r3, #2816]
 1905 0090 40F08040 		orr	r0, r0, #1073741824
 1906 0094 C3F8000B 		str	r0, [r3, #2816]
 1907              	.L128:
 949:Drivers/STM32H7xx_HAL_Driver/Src/stm32h7xx_ll_usb.c ****       {
 1908              		.loc 1 949 7 is_stmt 1 view .LVU605
 951:Drivers/STM32H7xx_HAL_Driver/Src/stm32h7xx_ll_usb.c **** 
 1909              		.loc 1 951 9 view .LVU606
 951:Drivers/STM32H7xx_HAL_Driver/Src/stm32h7xx_ll_usb.c **** 
 1910              		.loc 1 951 14 is_stmt 0 view .LVU607
 1911 0098 019B     		ldr	r3, [sp, #4]
ARM GAS  C:\Users\PgRick\AppData\Local\Temp\ccFebq6t.s 			page 69


 1912 009a 0133     		adds	r3, r3, #1
 1913 009c 0193     		str	r3, [sp, #4]
 953:Drivers/STM32H7xx_HAL_Driver/Src/stm32h7xx_ll_usb.c ****         {
 1914              		.loc 1 953 9 is_stmt 1 view .LVU608
 953:Drivers/STM32H7xx_HAL_Driver/Src/stm32h7xx_ll_usb.c ****         {
 1915              		.loc 1 953 19 is_stmt 0 view .LVU609
 1916 009e 0198     		ldr	r0, [sp, #4]
 953:Drivers/STM32H7xx_HAL_Driver/Src/stm32h7xx_ll_usb.c ****         {
 1917              		.loc 1 953 12 view .LVU610
 1918 00a0 42F21073 		movw	r3, #10000
 1919 00a4 9842     		cmp	r0, r3
 1920 00a6 08D8     		bhi	.L131
 958:Drivers/STM32H7xx_HAL_Driver/Src/stm32h7xx_ll_usb.c ****     }
 1921              		.loc 1 958 15 is_stmt 1 view .LVU611
 958:Drivers/STM32H7xx_HAL_Driver/Src/stm32h7xx_ll_usb.c ****     }
 1922              		.loc 1 958 18 is_stmt 0 view .LVU612
 1923 00a8 0B78     		ldrb	r3, [r1]	@ zero_extendqisi2
 1924 00aa 02EB4313 		add	r3, r2, r3, lsl #5
 958:Drivers/STM32H7xx_HAL_Driver/Src/stm32h7xx_ll_usb.c ****     }
 1925              		.loc 1 958 37 view .LVU613
 1926 00ae D3F8003B 		ldr	r3, [r3, #2816]
 958:Drivers/STM32H7xx_HAL_Driver/Src/stm32h7xx_ll_usb.c ****     }
 1927              		.loc 1 958 7 view .LVU614
 1928 00b2 002B     		cmp	r3, #0
 1929 00b4 F0DB     		blt	.L128
 918:Drivers/STM32H7xx_HAL_Driver/Src/stm32h7xx_ll_usb.c ****   uint32_t USBx_BASE = (uint32_t)USBx;
 1930              		.loc 1 918 21 view .LVU615
 1931 00b6 0020     		movs	r0, #0
 1932 00b8 B2E7     		b	.L126
 1933              	.L131:
 955:Drivers/STM32H7xx_HAL_Driver/Src/stm32h7xx_ll_usb.c ****           break;
 1934              		.loc 1 955 15 view .LVU616
 1935 00ba 0120     		movs	r0, #1
 1936 00bc B0E7     		b	.L126
 1937              		.cfi_endproc
 1938              	.LFE159:
 1940              		.section	.text.USB_WritePacket,"ax",%progbits
 1941              		.align	1
 1942              		.global	USB_WritePacket
 1943              		.syntax unified
 1944              		.thumb
 1945              		.thumb_func
 1947              	USB_WritePacket:
 1948              	.LVL146:
 1949              	.LFB160:
 981:Drivers/STM32H7xx_HAL_Driver/Src/stm32h7xx_ll_usb.c ****   uint32_t USBx_BASE = (uint32_t)USBx;
 1950              		.loc 1 981 1 is_stmt 1 view -0
 1951              		.cfi_startproc
 1952              		@ args = 4, pretend = 0, frame = 0
 1953              		@ frame_needed = 0, uses_anonymous_args = 0
 981:Drivers/STM32H7xx_HAL_Driver/Src/stm32h7xx_ll_usb.c ****   uint32_t USBx_BASE = (uint32_t)USBx;
 1954              		.loc 1 981 1 is_stmt 0 view .LVU618
 1955 0000 10B5     		push	{r4, lr}
 1956              	.LCFI31:
 1957              		.cfi_def_cfa_offset 8
 1958              		.cfi_offset 4, -8
 1959              		.cfi_offset 14, -4
ARM GAS  C:\Users\PgRick\AppData\Local\Temp\ccFebq6t.s 			page 70


 1960 0002 9DF80840 		ldrb	r4, [sp, #8]	@ zero_extendqisi2
 982:Drivers/STM32H7xx_HAL_Driver/Src/stm32h7xx_ll_usb.c ****   uint8_t *pSrc = src;
 1961              		.loc 1 982 3 is_stmt 1 view .LVU619
 1962              	.LVL147:
 983:Drivers/STM32H7xx_HAL_Driver/Src/stm32h7xx_ll_usb.c ****   uint32_t count32b;
 1963              		.loc 1 983 3 view .LVU620
 984:Drivers/STM32H7xx_HAL_Driver/Src/stm32h7xx_ll_usb.c ****   uint32_t i;
 1964              		.loc 1 984 3 view .LVU621
 985:Drivers/STM32H7xx_HAL_Driver/Src/stm32h7xx_ll_usb.c **** 
 1965              		.loc 1 985 3 view .LVU622
 987:Drivers/STM32H7xx_HAL_Driver/Src/stm32h7xx_ll_usb.c ****   {
 1966              		.loc 1 987 3 view .LVU623
 987:Drivers/STM32H7xx_HAL_Driver/Src/stm32h7xx_ll_usb.c ****   {
 1967              		.loc 1 987 6 is_stmt 0 view .LVU624
 1968 0006 84B9     		cbnz	r4, .L137
 989:Drivers/STM32H7xx_HAL_Driver/Src/stm32h7xx_ll_usb.c ****     for (i = 0U; i < count32b; i++)
 1969              		.loc 1 989 5 is_stmt 1 view .LVU625
 989:Drivers/STM32H7xx_HAL_Driver/Src/stm32h7xx_ll_usb.c ****     for (i = 0U; i < count32b; i++)
 1970              		.loc 1 989 31 is_stmt 0 view .LVU626
 1971 0008 0333     		adds	r3, r3, #3
 1972              	.LVL148:
 989:Drivers/STM32H7xx_HAL_Driver/Src/stm32h7xx_ll_usb.c ****     for (i = 0U; i < count32b; i++)
 1973              		.loc 1 989 14 view .LVU627
 1974 000a 4FEA930E 		lsr	lr, r3, #2
 1975              	.LVL149:
 990:Drivers/STM32H7xx_HAL_Driver/Src/stm32h7xx_ll_usb.c ****     {
 1976              		.loc 1 990 5 is_stmt 1 view .LVU628
 990:Drivers/STM32H7xx_HAL_Driver/Src/stm32h7xx_ll_usb.c ****     {
 1977              		.loc 1 990 12 is_stmt 0 view .LVU629
 1978 000e 4FF0000C 		mov	ip, #0
 990:Drivers/STM32H7xx_HAL_Driver/Src/stm32h7xx_ll_usb.c ****     {
 1979              		.loc 1 990 5 view .LVU630
 1980 0012 08E0     		b	.L138
 1981              	.LVL150:
 1982              	.L139:
 992:Drivers/STM32H7xx_HAL_Driver/Src/stm32h7xx_ll_usb.c ****       pSrc++;
 1983              		.loc 1 992 7 is_stmt 1 discriminator 3 view .LVU631
 1984 0014 00EB0233 		add	r3, r0, r2, lsl #12
 1985 0018 03F58053 		add	r3, r3, #4096
 992:Drivers/STM32H7xx_HAL_Driver/Src/stm32h7xx_ll_usb.c ****       pSrc++;
 1986              		.loc 1 992 41 is_stmt 0 discriminator 3 view .LVU632
 1987 001c 51F8044B 		ldr	r4, [r1], #4	@ unaligned
 1988              	.LVL151:
 992:Drivers/STM32H7xx_HAL_Driver/Src/stm32h7xx_ll_usb.c ****       pSrc++;
 1989              		.loc 1 992 39 discriminator 3 view .LVU633
 1990 0020 1C60     		str	r4, [r3]
 993:Drivers/STM32H7xx_HAL_Driver/Src/stm32h7xx_ll_usb.c ****       pSrc++;
 1991              		.loc 1 993 7 is_stmt 1 discriminator 3 view .LVU634
 1992              	.LVL152:
 994:Drivers/STM32H7xx_HAL_Driver/Src/stm32h7xx_ll_usb.c ****       pSrc++;
 1993              		.loc 1 994 7 discriminator 3 view .LVU635
 995:Drivers/STM32H7xx_HAL_Driver/Src/stm32h7xx_ll_usb.c ****       pSrc++;
 1994              		.loc 1 995 7 discriminator 3 view .LVU636
 996:Drivers/STM32H7xx_HAL_Driver/Src/stm32h7xx_ll_usb.c ****     }
 1995              		.loc 1 996 7 discriminator 3 view .LVU637
 990:Drivers/STM32H7xx_HAL_Driver/Src/stm32h7xx_ll_usb.c ****     {
 1996              		.loc 1 990 32 discriminator 3 view .LVU638
ARM GAS  C:\Users\PgRick\AppData\Local\Temp\ccFebq6t.s 			page 71


 990:Drivers/STM32H7xx_HAL_Driver/Src/stm32h7xx_ll_usb.c ****     {
 1997              		.loc 1 990 33 is_stmt 0 discriminator 3 view .LVU639
 1998 0022 0CF1010C 		add	ip, ip, #1
 1999              	.LVL153:
 2000              	.L138:
 990:Drivers/STM32H7xx_HAL_Driver/Src/stm32h7xx_ll_usb.c ****     {
 2001              		.loc 1 990 18 is_stmt 1 discriminator 1 view .LVU640
 990:Drivers/STM32H7xx_HAL_Driver/Src/stm32h7xx_ll_usb.c ****     {
 2002              		.loc 1 990 5 is_stmt 0 discriminator 1 view .LVU641
 2003 0026 F445     		cmp	ip, lr
 2004 0028 F4D3     		bcc	.L139
 2005              	.LVL154:
 2006              	.L137:
1000:Drivers/STM32H7xx_HAL_Driver/Src/stm32h7xx_ll_usb.c **** }
 2007              		.loc 1 1000 3 is_stmt 1 view .LVU642
1001:Drivers/STM32H7xx_HAL_Driver/Src/stm32h7xx_ll_usb.c **** 
 2008              		.loc 1 1001 1 is_stmt 0 view .LVU643
 2009 002a 0020     		movs	r0, #0
 2010              	.LVL155:
1001:Drivers/STM32H7xx_HAL_Driver/Src/stm32h7xx_ll_usb.c **** 
 2011              		.loc 1 1001 1 view .LVU644
 2012 002c 10BD     		pop	{r4, pc}
1001:Drivers/STM32H7xx_HAL_Driver/Src/stm32h7xx_ll_usb.c **** 
 2013              		.loc 1 1001 1 view .LVU645
 2014              		.cfi_endproc
 2015              	.LFE160:
 2017              		.section	.text.USB_EPStartXfer,"ax",%progbits
 2018              		.align	1
 2019              		.global	USB_EPStartXfer
 2020              		.syntax unified
 2021              		.thumb
 2022              		.thumb_func
 2024              	USB_EPStartXfer:
 2025              	.LVL156:
 2026              	.LFB158:
 744:Drivers/STM32H7xx_HAL_Driver/Src/stm32h7xx_ll_usb.c ****   uint32_t USBx_BASE = (uint32_t)USBx;
 2027              		.loc 1 744 1 is_stmt 1 view -0
 2028              		.cfi_startproc
 2029              		@ args = 0, pretend = 0, frame = 0
 2030              		@ frame_needed = 0, uses_anonymous_args = 0
 744:Drivers/STM32H7xx_HAL_Driver/Src/stm32h7xx_ll_usb.c ****   uint32_t USBx_BASE = (uint32_t)USBx;
 2031              		.loc 1 744 1 is_stmt 0 view .LVU647
 2032 0000 F0B5     		push	{r4, r5, r6, r7, lr}
 2033              	.LCFI32:
 2034              		.cfi_def_cfa_offset 20
 2035              		.cfi_offset 4, -20
 2036              		.cfi_offset 5, -16
 2037              		.cfi_offset 6, -12
 2038              		.cfi_offset 7, -8
 2039              		.cfi_offset 14, -4
 2040 0002 83B0     		sub	sp, sp, #12
 2041              	.LCFI33:
 2042              		.cfi_def_cfa_offset 32
 745:Drivers/STM32H7xx_HAL_Driver/Src/stm32h7xx_ll_usb.c ****   uint32_t epnum = (uint32_t)ep->num;
 2043              		.loc 1 745 3 is_stmt 1 view .LVU648
 2044              	.LVL157:
 746:Drivers/STM32H7xx_HAL_Driver/Src/stm32h7xx_ll_usb.c ****   uint16_t pktcnt;
ARM GAS  C:\Users\PgRick\AppData\Local\Temp\ccFebq6t.s 			page 72


 2045              		.loc 1 746 3 view .LVU649
 746:Drivers/STM32H7xx_HAL_Driver/Src/stm32h7xx_ll_usb.c ****   uint16_t pktcnt;
 2046              		.loc 1 746 32 is_stmt 0 view .LVU650
 2047 0004 0C78     		ldrb	r4, [r1]	@ zero_extendqisi2
 2048              	.LVL158:
 747:Drivers/STM32H7xx_HAL_Driver/Src/stm32h7xx_ll_usb.c **** 
 2049              		.loc 1 747 3 is_stmt 1 view .LVU651
 750:Drivers/STM32H7xx_HAL_Driver/Src/stm32h7xx_ll_usb.c ****   {
 2050              		.loc 1 750 3 view .LVU652
 750:Drivers/STM32H7xx_HAL_Driver/Src/stm32h7xx_ll_usb.c ****   {
 2051              		.loc 1 750 9 is_stmt 0 view .LVU653
 2052 0006 4B78     		ldrb	r3, [r1, #1]	@ zero_extendqisi2
 750:Drivers/STM32H7xx_HAL_Driver/Src/stm32h7xx_ll_usb.c ****   {
 2053              		.loc 1 750 6 view .LVU654
 2054 0008 012B     		cmp	r3, #1
 2055 000a 2DD0     		beq	.L164
 849:Drivers/STM32H7xx_HAL_Driver/Src/stm32h7xx_ll_usb.c ****     USBx_OUTEP(epnum)->DOEPTSIZ &= ~(USB_OTG_DOEPTSIZ_PKTCNT);
 2056              		.loc 1 849 5 is_stmt 1 view .LVU655
 849:Drivers/STM32H7xx_HAL_Driver/Src/stm32h7xx_ll_usb.c ****     USBx_OUTEP(epnum)->DOEPTSIZ &= ~(USB_OTG_DOEPTSIZ_PKTCNT);
 2057              		.loc 1 849 33 is_stmt 0 view .LVU656
 2058 000c 00EB441C 		add	ip, r0, r4, lsl #5
 2059 0010 0CF53063 		add	r3, ip, #2816
 2060 0014 1E69     		ldr	r6, [r3, #16]
 2061 0016 864D     		ldr	r5, .L169
 2062 0018 3540     		ands	r5, r5, r6
 2063 001a 1D61     		str	r5, [r3, #16]
 850:Drivers/STM32H7xx_HAL_Driver/Src/stm32h7xx_ll_usb.c **** 
 2064              		.loc 1 850 5 is_stmt 1 view .LVU657
 850:Drivers/STM32H7xx_HAL_Driver/Src/stm32h7xx_ll_usb.c **** 
 2065              		.loc 1 850 33 is_stmt 0 view .LVU658
 2066 001c 1E69     		ldr	r6, [r3, #16]
 2067 001e 854D     		ldr	r5, .L169+4
 2068 0020 3540     		ands	r5, r5, r6
 2069 0022 1D61     		str	r5, [r3, #16]
 852:Drivers/STM32H7xx_HAL_Driver/Src/stm32h7xx_ll_usb.c ****     {
 2070              		.loc 1 852 5 is_stmt 1 view .LVU659
 852:Drivers/STM32H7xx_HAL_Driver/Src/stm32h7xx_ll_usb.c ****     {
 2071              		.loc 1 852 8 is_stmt 0 view .LVU660
 2072 0024 002C     		cmp	r4, #0
 2073 0026 40F0C780 		bne	.L156
 854:Drivers/STM32H7xx_HAL_Driver/Src/stm32h7xx_ll_usb.c ****       {
 2074              		.loc 1 854 7 is_stmt 1 view .LVU661
 854:Drivers/STM32H7xx_HAL_Driver/Src/stm32h7xx_ll_usb.c ****       {
 2075              		.loc 1 854 13 is_stmt 0 view .LVU662
 2076 002a 0C69     		ldr	r4, [r1, #16]
 2077              	.LVL159:
 854:Drivers/STM32H7xx_HAL_Driver/Src/stm32h7xx_ll_usb.c ****       {
 2078              		.loc 1 854 10 view .LVU663
 2079 002c 0CB1     		cbz	r4, .L157
 856:Drivers/STM32H7xx_HAL_Driver/Src/stm32h7xx_ll_usb.c ****       }
 2080              		.loc 1 856 9 is_stmt 1 view .LVU664
 856:Drivers/STM32H7xx_HAL_Driver/Src/stm32h7xx_ll_usb.c ****       }
 2081              		.loc 1 856 26 is_stmt 0 view .LVU665
 2082 002e 8C68     		ldr	r4, [r1, #8]
 856:Drivers/STM32H7xx_HAL_Driver/Src/stm32h7xx_ll_usb.c ****       }
 2083              		.loc 1 856 22 view .LVU666
 2084 0030 0C61     		str	r4, [r1, #16]
ARM GAS  C:\Users\PgRick\AppData\Local\Temp\ccFebq6t.s 			page 73


 2085              	.L157:
 860:Drivers/STM32H7xx_HAL_Driver/Src/stm32h7xx_ll_usb.c **** 
 2086              		.loc 1 860 7 is_stmt 1 view .LVU667
 860:Drivers/STM32H7xx_HAL_Driver/Src/stm32h7xx_ll_usb.c **** 
 2087              		.loc 1 860 25 is_stmt 0 view .LVU668
 2088 0032 8C68     		ldr	r4, [r1, #8]
 860:Drivers/STM32H7xx_HAL_Driver/Src/stm32h7xx_ll_usb.c **** 
 2089              		.loc 1 860 21 view .LVU669
 2090 0034 0C62     		str	r4, [r1, #32]
 862:Drivers/STM32H7xx_HAL_Driver/Src/stm32h7xx_ll_usb.c ****       USBx_OUTEP(epnum)->DOEPTSIZ |= (USB_OTG_DOEPTSIZ_PKTCNT & (1U << 19));
 2091              		.loc 1 862 7 is_stmt 1 view .LVU670
 862:Drivers/STM32H7xx_HAL_Driver/Src/stm32h7xx_ll_usb.c ****       USBx_OUTEP(epnum)->DOEPTSIZ |= (USB_OTG_DOEPTSIZ_PKTCNT & (1U << 19));
 2092              		.loc 1 862 35 is_stmt 0 view .LVU671
 2093 0036 1D69     		ldr	r5, [r3, #16]
 862:Drivers/STM32H7xx_HAL_Driver/Src/stm32h7xx_ll_usb.c ****       USBx_OUTEP(epnum)->DOEPTSIZ |= (USB_OTG_DOEPTSIZ_PKTCNT & (1U << 19));
 2094              		.loc 1 862 63 view .LVU672
 2095 0038 C4F31204 		ubfx	r4, r4, #0, #19
 862:Drivers/STM32H7xx_HAL_Driver/Src/stm32h7xx_ll_usb.c ****       USBx_OUTEP(epnum)->DOEPTSIZ |= (USB_OTG_DOEPTSIZ_PKTCNT & (1U << 19));
 2096              		.loc 1 862 35 view .LVU673
 2097 003c 2C43     		orrs	r4, r4, r5
 2098 003e 1C61     		str	r4, [r3, #16]
 863:Drivers/STM32H7xx_HAL_Driver/Src/stm32h7xx_ll_usb.c ****     }
 2099              		.loc 1 863 7 is_stmt 1 view .LVU674
 863:Drivers/STM32H7xx_HAL_Driver/Src/stm32h7xx_ll_usb.c ****     }
 2100              		.loc 1 863 35 is_stmt 0 view .LVU675
 2101 0040 1C69     		ldr	r4, [r3, #16]
 2102 0042 44F40024 		orr	r4, r4, #524288
 2103 0046 1C61     		str	r4, [r3, #16]
 2104              	.L158:
 882:Drivers/STM32H7xx_HAL_Driver/Src/stm32h7xx_ll_usb.c ****     {
 2105              		.loc 1 882 5 is_stmt 1 view .LVU676
 882:Drivers/STM32H7xx_HAL_Driver/Src/stm32h7xx_ll_usb.c ****     {
 2106              		.loc 1 882 8 is_stmt 0 view .LVU677
 2107 0048 012A     		cmp	r2, #1
 2108 004a 00F0D880 		beq	.L165
 2109              	.LVL160:
 2110              	.L160:
 890:Drivers/STM32H7xx_HAL_Driver/Src/stm32h7xx_ll_usb.c ****     {
 2111              		.loc 1 890 5 is_stmt 1 view .LVU678
 890:Drivers/STM32H7xx_HAL_Driver/Src/stm32h7xx_ll_usb.c ****     {
 2112              		.loc 1 890 11 is_stmt 0 view .LVU679
 2113 004e 0B79     		ldrb	r3, [r1, #4]	@ zero_extendqisi2
 890:Drivers/STM32H7xx_HAL_Driver/Src/stm32h7xx_ll_usb.c ****     {
 2114              		.loc 1 890 8 view .LVU680
 2115 0050 012B     		cmp	r3, #1
 2116 0052 00F0DA80 		beq	.L166
 2117              	.L161:
 902:Drivers/STM32H7xx_HAL_Driver/Src/stm32h7xx_ll_usb.c ****   }
 2118              		.loc 1 902 5 is_stmt 1 view .LVU681
 902:Drivers/STM32H7xx_HAL_Driver/Src/stm32h7xx_ll_usb.c ****   }
 2119              		.loc 1 902 32 is_stmt 0 view .LVU682
 2120 0056 DCF8003B 		ldr	r3, [ip, #2816]
 2121 005a 43F00443 		orr	r3, r3, #-2080374784
 2122 005e CCF8003B 		str	r3, [ip, #2816]
 2123              	.LVL161:
 2124              	.L152:
 905:Drivers/STM32H7xx_HAL_Driver/Src/stm32h7xx_ll_usb.c **** }
ARM GAS  C:\Users\PgRick\AppData\Local\Temp\ccFebq6t.s 			page 74


 2125              		.loc 1 905 3 is_stmt 1 view .LVU683
 906:Drivers/STM32H7xx_HAL_Driver/Src/stm32h7xx_ll_usb.c **** 
 2126              		.loc 1 906 1 is_stmt 0 view .LVU684
 2127 0062 0020     		movs	r0, #0
 2128 0064 03B0     		add	sp, sp, #12
 2129              	.LCFI34:
 2130              		.cfi_remember_state
 2131              		.cfi_def_cfa_offset 20
 2132              		@ sp needed
 2133 0066 F0BD     		pop	{r4, r5, r6, r7, pc}
 2134              	.LVL162:
 2135              	.L164:
 2136              	.LCFI35:
 2137              		.cfi_restore_state
 753:Drivers/STM32H7xx_HAL_Driver/Src/stm32h7xx_ll_usb.c ****     {
 2138              		.loc 1 753 5 is_stmt 1 view .LVU685
 753:Drivers/STM32H7xx_HAL_Driver/Src/stm32h7xx_ll_usb.c ****     {
 2139              		.loc 1 753 11 is_stmt 0 view .LVU686
 2140 0068 0B69     		ldr	r3, [r1, #16]
 753:Drivers/STM32H7xx_HAL_Driver/Src/stm32h7xx_ll_usb.c ****     {
 2141              		.loc 1 753 8 view .LVU687
 2142 006a 73BB     		cbnz	r3, .L143
 755:Drivers/STM32H7xx_HAL_Driver/Src/stm32h7xx_ll_usb.c ****       USBx_INEP(epnum)->DIEPTSIZ |= (USB_OTG_DIEPTSIZ_PKTCNT & (1U << 19));
 2143              		.loc 1 755 7 is_stmt 1 view .LVU688
 755:Drivers/STM32H7xx_HAL_Driver/Src/stm32h7xx_ll_usb.c ****       USBx_INEP(epnum)->DIEPTSIZ |= (USB_OTG_DIEPTSIZ_PKTCNT & (1U << 19));
 2144              		.loc 1 755 34 is_stmt 0 view .LVU689
 2145 006c 00EB4413 		add	r3, r0, r4, lsl #5
 2146 0070 D3F81069 		ldr	r6, [r3, #2320]
 2147 0074 6F4D     		ldr	r5, .L169+4
 2148 0076 3540     		ands	r5, r5, r6
 2149 0078 C3F81059 		str	r5, [r3, #2320]
 756:Drivers/STM32H7xx_HAL_Driver/Src/stm32h7xx_ll_usb.c ****       USBx_INEP(epnum)->DIEPTSIZ &= ~(USB_OTG_DIEPTSIZ_XFRSIZ);
 2150              		.loc 1 756 7 is_stmt 1 view .LVU690
 756:Drivers/STM32H7xx_HAL_Driver/Src/stm32h7xx_ll_usb.c ****       USBx_INEP(epnum)->DIEPTSIZ &= ~(USB_OTG_DIEPTSIZ_XFRSIZ);
 2151              		.loc 1 756 34 is_stmt 0 view .LVU691
 2152 007c D3F81059 		ldr	r5, [r3, #2320]
 2153 0080 45F40025 		orr	r5, r5, #524288
 2154 0084 C3F81059 		str	r5, [r3, #2320]
 757:Drivers/STM32H7xx_HAL_Driver/Src/stm32h7xx_ll_usb.c ****     }
 2155              		.loc 1 757 7 is_stmt 1 view .LVU692
 757:Drivers/STM32H7xx_HAL_Driver/Src/stm32h7xx_ll_usb.c ****     }
 2156              		.loc 1 757 34 is_stmt 0 view .LVU693
 2157 0088 D3F81069 		ldr	r6, [r3, #2320]
 2158 008c 684D     		ldr	r5, .L169
 2159 008e 3540     		ands	r5, r5, r6
 2160 0090 C3F81059 		str	r5, [r3, #2320]
 2161              	.L144:
 793:Drivers/STM32H7xx_HAL_Driver/Src/stm32h7xx_ll_usb.c ****     {
 2162              		.loc 1 793 5 is_stmt 1 view .LVU694
 793:Drivers/STM32H7xx_HAL_Driver/Src/stm32h7xx_ll_usb.c ****     {
 2163              		.loc 1 793 8 is_stmt 0 view .LVU695
 2164 0094 012A     		cmp	r2, #1
 2165 0096 4DD0     		beq	.L167
 818:Drivers/STM32H7xx_HAL_Driver/Src/stm32h7xx_ll_usb.c **** 
 2166              		.loc 1 818 7 is_stmt 1 view .LVU696
 818:Drivers/STM32H7xx_HAL_Driver/Src/stm32h7xx_ll_usb.c **** 
 2167              		.loc 1 818 33 is_stmt 0 view .LVU697
ARM GAS  C:\Users\PgRick\AppData\Local\Temp\ccFebq6t.s 			page 75


 2168 0098 00EB4414 		add	r4, r0, r4, lsl #5
 2169              	.LVL163:
 818:Drivers/STM32H7xx_HAL_Driver/Src/stm32h7xx_ll_usb.c **** 
 2170              		.loc 1 818 33 view .LVU698
 2171 009c D4F80039 		ldr	r3, [r4, #2304]
 2172 00a0 43F00443 		orr	r3, r3, #-2080374784
 2173 00a4 C4F80039 		str	r3, [r4, #2304]
 820:Drivers/STM32H7xx_HAL_Driver/Src/stm32h7xx_ll_usb.c ****       {
 2174              		.loc 1 820 7 is_stmt 1 view .LVU699
 820:Drivers/STM32H7xx_HAL_Driver/Src/stm32h7xx_ll_usb.c ****       {
 2175              		.loc 1 820 13 is_stmt 0 view .LVU700
 2176 00a8 0B79     		ldrb	r3, [r1, #4]	@ zero_extendqisi2
 820:Drivers/STM32H7xx_HAL_Driver/Src/stm32h7xx_ll_usb.c ****       {
 2177              		.loc 1 820 10 view .LVU701
 2178 00aa 012B     		cmp	r3, #1
 2179 00ac 6BD0     		beq	.L153
 823:Drivers/STM32H7xx_HAL_Driver/Src/stm32h7xx_ll_usb.c ****         {
 2180              		.loc 1 823 9 is_stmt 1 view .LVU702
 823:Drivers/STM32H7xx_HAL_Driver/Src/stm32h7xx_ll_usb.c ****         {
 2181              		.loc 1 823 15 is_stmt 0 view .LVU703
 2182 00ae 0B69     		ldr	r3, [r1, #16]
 823:Drivers/STM32H7xx_HAL_Driver/Src/stm32h7xx_ll_usb.c ****         {
 2183              		.loc 1 823 12 view .LVU704
 2184 00b0 002B     		cmp	r3, #0
 2185 00b2 D6D0     		beq	.L152
 825:Drivers/STM32H7xx_HAL_Driver/Src/stm32h7xx_ll_usb.c ****         }
 2186              		.loc 1 825 11 is_stmt 1 view .LVU705
 825:Drivers/STM32H7xx_HAL_Driver/Src/stm32h7xx_ll_usb.c ****         }
 2187              		.loc 1 825 35 is_stmt 0 view .LVU706
 2188 00b4 D0F83438 		ldr	r3, [r0, #2100]
 825:Drivers/STM32H7xx_HAL_Driver/Src/stm32h7xx_ll_usb.c ****         }
 2189              		.loc 1 825 48 view .LVU707
 2190 00b8 0A78     		ldrb	r2, [r1]	@ zero_extendqisi2
 2191              	.LVL164:
 825:Drivers/STM32H7xx_HAL_Driver/Src/stm32h7xx_ll_usb.c ****         }
 2192              		.loc 1 825 54 view .LVU708
 2193 00ba 02F00F01 		and	r1, r2, #15
 2194              	.LVL165:
 825:Drivers/STM32H7xx_HAL_Driver/Src/stm32h7xx_ll_usb.c ****         }
 2195              		.loc 1 825 42 view .LVU709
 2196 00be 0122     		movs	r2, #1
 2197 00c0 8A40     		lsls	r2, r2, r1
 825:Drivers/STM32H7xx_HAL_Driver/Src/stm32h7xx_ll_usb.c ****         }
 2198              		.loc 1 825 35 view .LVU710
 2199 00c2 1343     		orrs	r3, r3, r2
 2200 00c4 C0F83438 		str	r3, [r0, #2100]
 2201 00c8 CBE7     		b	.L152
 2202              	.LVL166:
 2203              	.L143:
 766:Drivers/STM32H7xx_HAL_Driver/Src/stm32h7xx_ll_usb.c ****       USBx_INEP(epnum)->DIEPTSIZ &= ~(USB_OTG_DIEPTSIZ_PKTCNT);
 2204              		.loc 1 766 7 is_stmt 1 view .LVU711
 766:Drivers/STM32H7xx_HAL_Driver/Src/stm32h7xx_ll_usb.c ****       USBx_INEP(epnum)->DIEPTSIZ &= ~(USB_OTG_DIEPTSIZ_PKTCNT);
 2205              		.loc 1 766 34 is_stmt 0 view .LVU712
 2206 00ca 00EB4413 		add	r3, r0, r4, lsl #5
 2207 00ce 03F51063 		add	r3, r3, #2304
 2208 00d2 1E69     		ldr	r6, [r3, #16]
 2209 00d4 564D     		ldr	r5, .L169
ARM GAS  C:\Users\PgRick\AppData\Local\Temp\ccFebq6t.s 			page 76


 2210 00d6 3540     		ands	r5, r5, r6
 2211 00d8 1D61     		str	r5, [r3, #16]
 767:Drivers/STM32H7xx_HAL_Driver/Src/stm32h7xx_ll_usb.c **** 
 2212              		.loc 1 767 7 is_stmt 1 view .LVU713
 767:Drivers/STM32H7xx_HAL_Driver/Src/stm32h7xx_ll_usb.c **** 
 2213              		.loc 1 767 34 is_stmt 0 view .LVU714
 2214 00da 1E69     		ldr	r6, [r3, #16]
 2215 00dc 554D     		ldr	r5, .L169+4
 2216 00de 3540     		ands	r5, r5, r6
 2217 00e0 1D61     		str	r5, [r3, #16]
 769:Drivers/STM32H7xx_HAL_Driver/Src/stm32h7xx_ll_usb.c ****       {
 2218              		.loc 1 769 7 is_stmt 1 view .LVU715
 769:Drivers/STM32H7xx_HAL_Driver/Src/stm32h7xx_ll_usb.c ****       {
 2219              		.loc 1 769 10 is_stmt 0 view .LVU716
 2220 00e2 D4B9     		cbnz	r4, .L145
 771:Drivers/STM32H7xx_HAL_Driver/Src/stm32h7xx_ll_usb.c ****         {
 2221              		.loc 1 771 9 is_stmt 1 view .LVU717
 771:Drivers/STM32H7xx_HAL_Driver/Src/stm32h7xx_ll_usb.c ****         {
 2222              		.loc 1 771 15 is_stmt 0 view .LVU718
 2223 00e4 0E69     		ldr	r6, [r1, #16]
 771:Drivers/STM32H7xx_HAL_Driver/Src/stm32h7xx_ll_usb.c ****         {
 2224              		.loc 1 771 30 view .LVU719
 2225 00e6 8D68     		ldr	r5, [r1, #8]
 771:Drivers/STM32H7xx_HAL_Driver/Src/stm32h7xx_ll_usb.c ****         {
 2226              		.loc 1 771 12 view .LVU720
 2227 00e8 AE42     		cmp	r6, r5
 2228 00ea 00D9     		bls	.L146
 773:Drivers/STM32H7xx_HAL_Driver/Src/stm32h7xx_ll_usb.c ****         }
 2229              		.loc 1 773 11 is_stmt 1 view .LVU721
 773:Drivers/STM32H7xx_HAL_Driver/Src/stm32h7xx_ll_usb.c ****         }
 2230              		.loc 1 773 24 is_stmt 0 view .LVU722
 2231 00ec 0D61     		str	r5, [r1, #16]
 2232              	.L146:
 776:Drivers/STM32H7xx_HAL_Driver/Src/stm32h7xx_ll_usb.c ****       }
 2233              		.loc 1 776 9 is_stmt 1 view .LVU723
 776:Drivers/STM32H7xx_HAL_Driver/Src/stm32h7xx_ll_usb.c ****       }
 2234              		.loc 1 776 36 is_stmt 0 view .LVU724
 2235 00ee 1D69     		ldr	r5, [r3, #16]
 2236 00f0 45F40025 		orr	r5, r5, #524288
 2237 00f4 1D61     		str	r5, [r3, #16]
 2238              	.L147:
 784:Drivers/STM32H7xx_HAL_Driver/Src/stm32h7xx_ll_usb.c **** 
 2239              		.loc 1 784 7 is_stmt 1 view .LVU725
 784:Drivers/STM32H7xx_HAL_Driver/Src/stm32h7xx_ll_usb.c **** 
 2240              		.loc 1 784 34 is_stmt 0 view .LVU726
 2241 00f6 1D69     		ldr	r5, [r3, #16]
 784:Drivers/STM32H7xx_HAL_Driver/Src/stm32h7xx_ll_usb.c **** 
 2242              		.loc 1 784 66 view .LVU727
 2243 00f8 0E69     		ldr	r6, [r1, #16]
 784:Drivers/STM32H7xx_HAL_Driver/Src/stm32h7xx_ll_usb.c **** 
 2244              		.loc 1 784 62 view .LVU728
 2245 00fa C6F31206 		ubfx	r6, r6, #0, #19
 784:Drivers/STM32H7xx_HAL_Driver/Src/stm32h7xx_ll_usb.c **** 
 2246              		.loc 1 784 34 view .LVU729
 2247 00fe 3543     		orrs	r5, r5, r6
 2248 0100 1D61     		str	r5, [r3, #16]
 786:Drivers/STM32H7xx_HAL_Driver/Src/stm32h7xx_ll_usb.c ****       {
ARM GAS  C:\Users\PgRick\AppData\Local\Temp\ccFebq6t.s 			page 77


 2249              		.loc 1 786 7 is_stmt 1 view .LVU730
 786:Drivers/STM32H7xx_HAL_Driver/Src/stm32h7xx_ll_usb.c ****       {
 2250              		.loc 1 786 13 is_stmt 0 view .LVU731
 2251 0102 0D79     		ldrb	r5, [r1, #4]	@ zero_extendqisi2
 786:Drivers/STM32H7xx_HAL_Driver/Src/stm32h7xx_ll_usb.c ****       {
 2252              		.loc 1 786 10 view .LVU732
 2253 0104 012D     		cmp	r5, #1
 2254 0106 C5D1     		bne	.L144
 788:Drivers/STM32H7xx_HAL_Driver/Src/stm32h7xx_ll_usb.c ****         USBx_INEP(epnum)->DIEPTSIZ |= (USB_OTG_DIEPTSIZ_MULCNT & (1U << 29));
 2255              		.loc 1 788 9 is_stmt 1 view .LVU733
 788:Drivers/STM32H7xx_HAL_Driver/Src/stm32h7xx_ll_usb.c ****         USBx_INEP(epnum)->DIEPTSIZ |= (USB_OTG_DIEPTSIZ_MULCNT & (1U << 29));
 2256              		.loc 1 788 36 is_stmt 0 view .LVU734
 2257 0108 1D69     		ldr	r5, [r3, #16]
 2258 010a 25F0C045 		bic	r5, r5, #1610612736
 2259 010e 1D61     		str	r5, [r3, #16]
 789:Drivers/STM32H7xx_HAL_Driver/Src/stm32h7xx_ll_usb.c ****       }
 2260              		.loc 1 789 9 is_stmt 1 view .LVU735
 789:Drivers/STM32H7xx_HAL_Driver/Src/stm32h7xx_ll_usb.c ****       }
 2261              		.loc 1 789 36 is_stmt 0 view .LVU736
 2262 0110 1D69     		ldr	r5, [r3, #16]
 2263 0112 45F00055 		orr	r5, r5, #536870912
 2264 0116 1D61     		str	r5, [r3, #16]
 2265 0118 BCE7     		b	.L144
 2266              	.L145:
 780:Drivers/STM32H7xx_HAL_Driver/Src/stm32h7xx_ll_usb.c ****                                        (((ep->xfer_len + ep->maxpacket - 1U) / ep->maxpacket) << 19
 2267              		.loc 1 780 9 is_stmt 1 view .LVU737
 780:Drivers/STM32H7xx_HAL_Driver/Src/stm32h7xx_ll_usb.c ****                                        (((ep->xfer_len + ep->maxpacket - 1U) / ep->maxpacket) << 19
 2268              		.loc 1 780 36 is_stmt 0 view .LVU738
 2269 011a 1E69     		ldr	r6, [r3, #16]
 781:Drivers/STM32H7xx_HAL_Driver/Src/stm32h7xx_ll_usb.c ****       }
 2270              		.loc 1 781 45 view .LVU739
 2271 011c 0D69     		ldr	r5, [r1, #16]
 781:Drivers/STM32H7xx_HAL_Driver/Src/stm32h7xx_ll_usb.c ****       }
 2272              		.loc 1 781 60 view .LVU740
 2273 011e 8F68     		ldr	r7, [r1, #8]
 781:Drivers/STM32H7xx_HAL_Driver/Src/stm32h7xx_ll_usb.c ****       }
 2274              		.loc 1 781 56 view .LVU741
 2275 0120 3D44     		add	r5, r5, r7
 781:Drivers/STM32H7xx_HAL_Driver/Src/stm32h7xx_ll_usb.c ****       }
 2276              		.loc 1 781 72 view .LVU742
 2277 0122 013D     		subs	r5, r5, #1
 781:Drivers/STM32H7xx_HAL_Driver/Src/stm32h7xx_ll_usb.c ****       }
 2278              		.loc 1 781 78 view .LVU743
 2279 0124 B5FBF7F5 		udiv	r5, r5, r7
 780:Drivers/STM32H7xx_HAL_Driver/Src/stm32h7xx_ll_usb.c ****                                        (((ep->xfer_len + ep->maxpacket - 1U) / ep->maxpacket) << 19
 2280              		.loc 1 780 64 view .LVU744
 2281 0128 434F     		ldr	r7, .L169+8
 2282 012a 07EAC545 		and	r5, r7, r5, lsl #19
 780:Drivers/STM32H7xx_HAL_Driver/Src/stm32h7xx_ll_usb.c ****                                        (((ep->xfer_len + ep->maxpacket - 1U) / ep->maxpacket) << 19
 2283              		.loc 1 780 36 view .LVU745
 2284 012e 3543     		orrs	r5, r5, r6
 2285 0130 1D61     		str	r5, [r3, #16]
 2286 0132 E0E7     		b	.L147
 2287              	.L167:
 795:Drivers/STM32H7xx_HAL_Driver/Src/stm32h7xx_ll_usb.c ****       {
 2288              		.loc 1 795 7 is_stmt 1 view .LVU746
 795:Drivers/STM32H7xx_HAL_Driver/Src/stm32h7xx_ll_usb.c ****       {
ARM GAS  C:\Users\PgRick\AppData\Local\Temp\ccFebq6t.s 			page 78


 2289              		.loc 1 795 23 is_stmt 0 view .LVU747
 2290 0134 CB69     		ldr	r3, [r1, #28]
 795:Drivers/STM32H7xx_HAL_Driver/Src/stm32h7xx_ll_usb.c ****       {
 2291              		.loc 1 795 10 view .LVU748
 2292 0136 1BB1     		cbz	r3, .L149
 797:Drivers/STM32H7xx_HAL_Driver/Src/stm32h7xx_ll_usb.c ****       }
 2293              		.loc 1 797 9 is_stmt 1 view .LVU749
 2294 0138 00EB4412 		add	r2, r0, r4, lsl #5
 2295              	.LVL167:
 797:Drivers/STM32H7xx_HAL_Driver/Src/stm32h7xx_ll_usb.c ****       }
 2296              		.loc 1 797 35 is_stmt 0 view .LVU750
 2297 013c C2F81439 		str	r3, [r2, #2324]
 2298              	.L149:
 800:Drivers/STM32H7xx_HAL_Driver/Src/stm32h7xx_ll_usb.c ****       {
 2299              		.loc 1 800 7 is_stmt 1 view .LVU751
 800:Drivers/STM32H7xx_HAL_Driver/Src/stm32h7xx_ll_usb.c ****       {
 2300              		.loc 1 800 13 is_stmt 0 view .LVU752
 2301 0140 0B79     		ldrb	r3, [r1, #4]	@ zero_extendqisi2
 800:Drivers/STM32H7xx_HAL_Driver/Src/stm32h7xx_ll_usb.c ****       {
 2302              		.loc 1 800 10 view .LVU753
 2303 0142 012B     		cmp	r3, #1
 2304 0144 08D0     		beq	.L168
 2305              	.L150:
 813:Drivers/STM32H7xx_HAL_Driver/Src/stm32h7xx_ll_usb.c ****     }
 2306              		.loc 1 813 7 is_stmt 1 view .LVU754
 813:Drivers/STM32H7xx_HAL_Driver/Src/stm32h7xx_ll_usb.c ****     }
 2307              		.loc 1 813 33 is_stmt 0 view .LVU755
 2308 0146 00EB4410 		add	r0, r0, r4, lsl #5
 2309              	.LVL168:
 813:Drivers/STM32H7xx_HAL_Driver/Src/stm32h7xx_ll_usb.c ****     }
 2310              		.loc 1 813 33 view .LVU756
 2311 014a D0F80039 		ldr	r3, [r0, #2304]
 2312 014e 43F00443 		orr	r3, r3, #-2080374784
 2313 0152 C0F80039 		str	r3, [r0, #2304]
 2314 0156 84E7     		b	.L152
 2315              	.LVL169:
 2316              	.L168:
 802:Drivers/STM32H7xx_HAL_Driver/Src/stm32h7xx_ll_usb.c ****         {
 2317              		.loc 1 802 9 is_stmt 1 view .LVU757
 802:Drivers/STM32H7xx_HAL_Driver/Src/stm32h7xx_ll_usb.c ****         {
 2318              		.loc 1 802 25 is_stmt 0 view .LVU758
 2319 0158 D0F80838 		ldr	r3, [r0, #2056]
 802:Drivers/STM32H7xx_HAL_Driver/Src/stm32h7xx_ll_usb.c ****         {
 2320              		.loc 1 802 12 view .LVU759
 2321 015c 13F4807F 		tst	r3, #256
 2322 0160 08D1     		bne	.L151
 804:Drivers/STM32H7xx_HAL_Driver/Src/stm32h7xx_ll_usb.c ****         }
 2323              		.loc 1 804 11 is_stmt 1 view .LVU760
 804:Drivers/STM32H7xx_HAL_Driver/Src/stm32h7xx_ll_usb.c ****         }
 2324              		.loc 1 804 37 is_stmt 0 view .LVU761
 2325 0162 00EB4412 		add	r2, r0, r4, lsl #5
 2326 0166 D2F80039 		ldr	r3, [r2, #2304]
 2327 016a 43F00053 		orr	r3, r3, #536870912
 2328 016e C2F80039 		str	r3, [r2, #2304]
 2329 0172 E8E7     		b	.L150
 2330              	.L151:
 808:Drivers/STM32H7xx_HAL_Driver/Src/stm32h7xx_ll_usb.c ****         }
ARM GAS  C:\Users\PgRick\AppData\Local\Temp\ccFebq6t.s 			page 79


 2331              		.loc 1 808 11 is_stmt 1 view .LVU762
 808:Drivers/STM32H7xx_HAL_Driver/Src/stm32h7xx_ll_usb.c ****         }
 2332              		.loc 1 808 37 is_stmt 0 view .LVU763
 2333 0174 00EB4412 		add	r2, r0, r4, lsl #5
 2334 0178 D2F80039 		ldr	r3, [r2, #2304]
 2335 017c 43F08053 		orr	r3, r3, #268435456
 2336 0180 C2F80039 		str	r3, [r2, #2304]
 2337 0184 DFE7     		b	.L150
 2338              	.LVL170:
 2339              	.L153:
 830:Drivers/STM32H7xx_HAL_Driver/Src/stm32h7xx_ll_usb.c ****         {
 2340              		.loc 1 830 9 is_stmt 1 view .LVU764
 830:Drivers/STM32H7xx_HAL_Driver/Src/stm32h7xx_ll_usb.c ****         {
 2341              		.loc 1 830 25 is_stmt 0 view .LVU765
 2342 0186 D0F80838 		ldr	r3, [r0, #2056]
 830:Drivers/STM32H7xx_HAL_Driver/Src/stm32h7xx_ll_usb.c ****         {
 2343              		.loc 1 830 12 view .LVU766
 2344 018a 13F4807F 		tst	r3, #256
 2345 018e 0CD1     		bne	.L154
 832:Drivers/STM32H7xx_HAL_Driver/Src/stm32h7xx_ll_usb.c ****         }
 2346              		.loc 1 832 11 is_stmt 1 view .LVU767
 832:Drivers/STM32H7xx_HAL_Driver/Src/stm32h7xx_ll_usb.c ****         }
 2347              		.loc 1 832 37 is_stmt 0 view .LVU768
 2348 0190 D4F80039 		ldr	r3, [r4, #2304]
 2349 0194 43F00053 		orr	r3, r3, #536870912
 2350 0198 C4F80039 		str	r3, [r4, #2304]
 2351              	.L155:
 839:Drivers/STM32H7xx_HAL_Driver/Src/stm32h7xx_ll_usb.c ****       }
 2352              		.loc 1 839 9 is_stmt 1 view .LVU769
 839:Drivers/STM32H7xx_HAL_Driver/Src/stm32h7xx_ll_usb.c ****       }
 2353              		.loc 1 839 15 is_stmt 0 view .LVU770
 2354 019c 0092     		str	r2, [sp]
 2355 019e 0B8A     		ldrh	r3, [r1, #16]
 2356 01a0 0A78     		ldrb	r2, [r1]	@ zero_extendqisi2
 2357              	.LVL171:
 839:Drivers/STM32H7xx_HAL_Driver/Src/stm32h7xx_ll_usb.c ****       }
 2358              		.loc 1 839 15 view .LVU771
 2359 01a2 C968     		ldr	r1, [r1, #12]
 2360              	.LVL172:
 839:Drivers/STM32H7xx_HAL_Driver/Src/stm32h7xx_ll_usb.c ****       }
 2361              		.loc 1 839 15 view .LVU772
 2362 01a4 FFF7FEFF 		bl	USB_WritePacket
 2363              	.LVL173:
 839:Drivers/STM32H7xx_HAL_Driver/Src/stm32h7xx_ll_usb.c ****       }
 2364              		.loc 1 839 15 view .LVU773
 2365 01a8 5BE7     		b	.L152
 2366              	.LVL174:
 2367              	.L154:
 836:Drivers/STM32H7xx_HAL_Driver/Src/stm32h7xx_ll_usb.c ****         }
 2368              		.loc 1 836 11 is_stmt 1 view .LVU774
 836:Drivers/STM32H7xx_HAL_Driver/Src/stm32h7xx_ll_usb.c ****         }
 2369              		.loc 1 836 37 is_stmt 0 view .LVU775
 2370 01aa D4F80039 		ldr	r3, [r4, #2304]
 2371 01ae 43F08053 		orr	r3, r3, #268435456
 2372 01b2 C4F80039 		str	r3, [r4, #2304]
 2373 01b6 F1E7     		b	.L155
 2374              	.LVL175:
ARM GAS  C:\Users\PgRick\AppData\Local\Temp\ccFebq6t.s 			page 80


 2375              	.L156:
 867:Drivers/STM32H7xx_HAL_Driver/Src/stm32h7xx_ll_usb.c ****       {
 2376              		.loc 1 867 7 is_stmt 1 view .LVU776
 867:Drivers/STM32H7xx_HAL_Driver/Src/stm32h7xx_ll_usb.c ****       {
 2377              		.loc 1 867 13 is_stmt 0 view .LVU777
 2378 01b8 0C69     		ldr	r4, [r1, #16]
 2379              	.LVL176:
 867:Drivers/STM32H7xx_HAL_Driver/Src/stm32h7xx_ll_usb.c ****       {
 2380              		.loc 1 867 10 view .LVU778
 2381 01ba 54B9     		cbnz	r4, .L159
 869:Drivers/STM32H7xx_HAL_Driver/Src/stm32h7xx_ll_usb.c ****         USBx_OUTEP(epnum)->DOEPTSIZ |= (USB_OTG_DOEPTSIZ_PKTCNT & (1U << 19));
 2382              		.loc 1 869 9 is_stmt 1 view .LVU779
 869:Drivers/STM32H7xx_HAL_Driver/Src/stm32h7xx_ll_usb.c ****         USBx_OUTEP(epnum)->DOEPTSIZ |= (USB_OTG_DOEPTSIZ_PKTCNT & (1U << 19));
 2383              		.loc 1 869 37 is_stmt 0 view .LVU780
 2384 01bc 1C69     		ldr	r4, [r3, #16]
 869:Drivers/STM32H7xx_HAL_Driver/Src/stm32h7xx_ll_usb.c ****         USBx_OUTEP(epnum)->DOEPTSIZ |= (USB_OTG_DOEPTSIZ_PKTCNT & (1U << 19));
 2385              		.loc 1 869 69 view .LVU781
 2386 01be 8D68     		ldr	r5, [r1, #8]
 869:Drivers/STM32H7xx_HAL_Driver/Src/stm32h7xx_ll_usb.c ****         USBx_OUTEP(epnum)->DOEPTSIZ |= (USB_OTG_DOEPTSIZ_PKTCNT & (1U << 19));
 2387              		.loc 1 869 65 view .LVU782
 2388 01c0 C5F31205 		ubfx	r5, r5, #0, #19
 869:Drivers/STM32H7xx_HAL_Driver/Src/stm32h7xx_ll_usb.c ****         USBx_OUTEP(epnum)->DOEPTSIZ |= (USB_OTG_DOEPTSIZ_PKTCNT & (1U << 19));
 2389              		.loc 1 869 37 view .LVU783
 2390 01c4 2C43     		orrs	r4, r4, r5
 2391 01c6 1C61     		str	r4, [r3, #16]
 870:Drivers/STM32H7xx_HAL_Driver/Src/stm32h7xx_ll_usb.c ****       }
 2392              		.loc 1 870 9 is_stmt 1 view .LVU784
 870:Drivers/STM32H7xx_HAL_Driver/Src/stm32h7xx_ll_usb.c ****       }
 2393              		.loc 1 870 37 is_stmt 0 view .LVU785
 2394 01c8 1C69     		ldr	r4, [r3, #16]
 2395 01ca 44F40024 		orr	r4, r4, #524288
 2396 01ce 1C61     		str	r4, [r3, #16]
 2397 01d0 3AE7     		b	.L158
 2398              	.L159:
 874:Drivers/STM32H7xx_HAL_Driver/Src/stm32h7xx_ll_usb.c ****         ep->xfer_size = ep->maxpacket * pktcnt;
 2399              		.loc 1 874 9 is_stmt 1 view .LVU786
 874:Drivers/STM32H7xx_HAL_Driver/Src/stm32h7xx_ll_usb.c ****         ep->xfer_size = ep->maxpacket * pktcnt;
 2400              		.loc 1 874 47 is_stmt 0 view .LVU787
 2401 01d2 8D68     		ldr	r5, [r1, #8]
 874:Drivers/STM32H7xx_HAL_Driver/Src/stm32h7xx_ll_usb.c ****         ep->xfer_size = ep->maxpacket * pktcnt;
 2402              		.loc 1 874 43 view .LVU788
 2403 01d4 2C44     		add	r4, r4, r5
 874:Drivers/STM32H7xx_HAL_Driver/Src/stm32h7xx_ll_usb.c ****         ep->xfer_size = ep->maxpacket * pktcnt;
 2404              		.loc 1 874 59 view .LVU789
 2405 01d6 013C     		subs	r4, r4, #1
 874:Drivers/STM32H7xx_HAL_Driver/Src/stm32h7xx_ll_usb.c ****         ep->xfer_size = ep->maxpacket * pktcnt;
 2406              		.loc 1 874 65 view .LVU790
 2407 01d8 B4FBF5F4 		udiv	r4, r4, r5
 2408              	.LVL177:
 875:Drivers/STM32H7xx_HAL_Driver/Src/stm32h7xx_ll_usb.c **** 
 2409              		.loc 1 875 9 is_stmt 1 view .LVU791
 2410 01dc A4B2     		uxth	r4, r4
 875:Drivers/STM32H7xx_HAL_Driver/Src/stm32h7xx_ll_usb.c **** 
 2411              		.loc 1 875 39 is_stmt 0 view .LVU792
 2412 01de 04FB05F5 		mul	r5, r4, r5
 875:Drivers/STM32H7xx_HAL_Driver/Src/stm32h7xx_ll_usb.c **** 
 2413              		.loc 1 875 23 view .LVU793
ARM GAS  C:\Users\PgRick\AppData\Local\Temp\ccFebq6t.s 			page 81


 2414 01e2 0D62     		str	r5, [r1, #32]
 877:Drivers/STM32H7xx_HAL_Driver/Src/stm32h7xx_ll_usb.c ****         USBx_OUTEP(epnum)->DOEPTSIZ |= USB_OTG_DOEPTSIZ_XFRSIZ & ep->xfer_size;
 2415              		.loc 1 877 9 is_stmt 1 view .LVU794
 877:Drivers/STM32H7xx_HAL_Driver/Src/stm32h7xx_ll_usb.c ****         USBx_OUTEP(epnum)->DOEPTSIZ |= USB_OTG_DOEPTSIZ_XFRSIZ & ep->xfer_size;
 2416              		.loc 1 877 37 is_stmt 0 view .LVU795
 2417 01e4 1D69     		ldr	r5, [r3, #16]
 877:Drivers/STM32H7xx_HAL_Driver/Src/stm32h7xx_ll_usb.c ****         USBx_OUTEP(epnum)->DOEPTSIZ |= USB_OTG_DOEPTSIZ_XFRSIZ & ep->xfer_size;
 2418              		.loc 1 877 64 view .LVU796
 2419 01e6 144E     		ldr	r6, .L169+8
 2420 01e8 06EAC444 		and	r4, r6, r4, lsl #19
 2421              	.LVL178:
 877:Drivers/STM32H7xx_HAL_Driver/Src/stm32h7xx_ll_usb.c ****         USBx_OUTEP(epnum)->DOEPTSIZ |= USB_OTG_DOEPTSIZ_XFRSIZ & ep->xfer_size;
 2422              		.loc 1 877 37 view .LVU797
 2423 01ec 2C43     		orrs	r4, r4, r5
 2424 01ee 1C61     		str	r4, [r3, #16]
 2425              	.LVL179:
 878:Drivers/STM32H7xx_HAL_Driver/Src/stm32h7xx_ll_usb.c ****       }
 2426              		.loc 1 878 9 is_stmt 1 view .LVU798
 878:Drivers/STM32H7xx_HAL_Driver/Src/stm32h7xx_ll_usb.c ****       }
 2427              		.loc 1 878 37 is_stmt 0 view .LVU799
 2428 01f0 1C69     		ldr	r4, [r3, #16]
 878:Drivers/STM32H7xx_HAL_Driver/Src/stm32h7xx_ll_usb.c ****       }
 2429              		.loc 1 878 68 view .LVU800
 2430 01f2 0D6A     		ldr	r5, [r1, #32]
 878:Drivers/STM32H7xx_HAL_Driver/Src/stm32h7xx_ll_usb.c ****       }
 2431              		.loc 1 878 64 view .LVU801
 2432 01f4 C5F31205 		ubfx	r5, r5, #0, #19
 878:Drivers/STM32H7xx_HAL_Driver/Src/stm32h7xx_ll_usb.c ****       }
 2433              		.loc 1 878 37 view .LVU802
 2434 01f8 2C43     		orrs	r4, r4, r5
 2435 01fa 1C61     		str	r4, [r3, #16]
 2436 01fc 24E7     		b	.L158
 2437              	.L165:
 884:Drivers/STM32H7xx_HAL_Driver/Src/stm32h7xx_ll_usb.c ****       {
 2438              		.loc 1 884 7 is_stmt 1 view .LVU803
 884:Drivers/STM32H7xx_HAL_Driver/Src/stm32h7xx_ll_usb.c ****       {
 2439              		.loc 1 884 23 is_stmt 0 view .LVU804
 2440 01fe CA68     		ldr	r2, [r1, #12]
 2441              	.LVL180:
 884:Drivers/STM32H7xx_HAL_Driver/Src/stm32h7xx_ll_usb.c ****       {
 2442              		.loc 1 884 10 view .LVU805
 2443 0200 002A     		cmp	r2, #0
 2444 0202 3FF424AF 		beq	.L160
 886:Drivers/STM32H7xx_HAL_Driver/Src/stm32h7xx_ll_usb.c ****       }
 2445              		.loc 1 886 9 is_stmt 1 view .LVU806
 886:Drivers/STM32H7xx_HAL_Driver/Src/stm32h7xx_ll_usb.c ****       }
 2446              		.loc 1 886 36 is_stmt 0 view .LVU807
 2447 0206 5A61     		str	r2, [r3, #20]
 2448 0208 21E7     		b	.L160
 2449              	.L166:
 892:Drivers/STM32H7xx_HAL_Driver/Src/stm32h7xx_ll_usb.c ****       {
 2450              		.loc 1 892 7 is_stmt 1 view .LVU808
 892:Drivers/STM32H7xx_HAL_Driver/Src/stm32h7xx_ll_usb.c ****       {
 2451              		.loc 1 892 23 is_stmt 0 view .LVU809
 2452 020a D0F80838 		ldr	r3, [r0, #2056]
 892:Drivers/STM32H7xx_HAL_Driver/Src/stm32h7xx_ll_usb.c ****       {
 2453              		.loc 1 892 10 view .LVU810
ARM GAS  C:\Users\PgRick\AppData\Local\Temp\ccFebq6t.s 			page 82


 2454 020e 13F4807F 		tst	r3, #256
 2455 0212 06D1     		bne	.L162
 894:Drivers/STM32H7xx_HAL_Driver/Src/stm32h7xx_ll_usb.c ****       }
 2456              		.loc 1 894 9 is_stmt 1 view .LVU811
 894:Drivers/STM32H7xx_HAL_Driver/Src/stm32h7xx_ll_usb.c ****       }
 2457              		.loc 1 894 36 is_stmt 0 view .LVU812
 2458 0214 DCF8003B 		ldr	r3, [ip, #2816]
 2459 0218 43F00053 		orr	r3, r3, #536870912
 2460 021c CCF8003B 		str	r3, [ip, #2816]
 2461 0220 19E7     		b	.L161
 2462              	.L162:
 898:Drivers/STM32H7xx_HAL_Driver/Src/stm32h7xx_ll_usb.c ****       }
 2463              		.loc 1 898 9 is_stmt 1 view .LVU813
 898:Drivers/STM32H7xx_HAL_Driver/Src/stm32h7xx_ll_usb.c ****       }
 2464              		.loc 1 898 36 is_stmt 0 view .LVU814
 2465 0222 DCF8003B 		ldr	r3, [ip, #2816]
 2466 0226 43F08053 		orr	r3, r3, #268435456
 2467 022a CCF8003B 		str	r3, [ip, #2816]
 2468 022e 12E7     		b	.L161
 2469              	.L170:
 2470              		.align	2
 2471              	.L169:
 2472 0230 0000F8FF 		.word	-524288
 2473 0234 FFFF07E0 		.word	-536346625
 2474 0238 0000F81F 		.word	536346624
 2475              		.cfi_endproc
 2476              	.LFE158:
 2478              		.section	.text.USB_ReadPacket,"ax",%progbits
 2479              		.align	1
 2480              		.global	USB_ReadPacket
 2481              		.syntax unified
 2482              		.thumb
 2483              		.thumb_func
 2485              	USB_ReadPacket:
 2486              	.LVL181:
 2487              	.LFB161:
1011:Drivers/STM32H7xx_HAL_Driver/Src/stm32h7xx_ll_usb.c ****   uint32_t USBx_BASE = (uint32_t)USBx;
 2488              		.loc 1 1011 1 is_stmt 1 view -0
 2489              		.cfi_startproc
 2490              		@ args = 0, pretend = 0, frame = 8
 2491              		@ frame_needed = 0, uses_anonymous_args = 0
1011:Drivers/STM32H7xx_HAL_Driver/Src/stm32h7xx_ll_usb.c ****   uint32_t USBx_BASE = (uint32_t)USBx;
 2492              		.loc 1 1011 1 is_stmt 0 view .LVU816
 2493 0000 00B5     		push	{lr}
 2494              	.LCFI36:
 2495              		.cfi_def_cfa_offset 4
 2496              		.cfi_offset 14, -4
 2497 0002 83B0     		sub	sp, sp, #12
 2498              	.LCFI37:
 2499              		.cfi_def_cfa_offset 16
 2500 0004 8446     		mov	ip, r0
 2501 0006 0846     		mov	r0, r1
 2502              	.LVL182:
1012:Drivers/STM32H7xx_HAL_Driver/Src/stm32h7xx_ll_usb.c ****   uint8_t *pDest = dest;
 2503              		.loc 1 1012 3 is_stmt 1 view .LVU817
1013:Drivers/STM32H7xx_HAL_Driver/Src/stm32h7xx_ll_usb.c ****   uint32_t pData;
 2504              		.loc 1 1013 3 view .LVU818
ARM GAS  C:\Users\PgRick\AppData\Local\Temp\ccFebq6t.s 			page 83


1014:Drivers/STM32H7xx_HAL_Driver/Src/stm32h7xx_ll_usb.c ****   uint32_t i;
 2505              		.loc 1 1014 3 view .LVU819
1015:Drivers/STM32H7xx_HAL_Driver/Src/stm32h7xx_ll_usb.c ****   uint32_t count32b = (uint32_t)len >> 2U;
 2506              		.loc 1 1015 3 view .LVU820
1016:Drivers/STM32H7xx_HAL_Driver/Src/stm32h7xx_ll_usb.c ****   uint16_t remaining_bytes = len % 4U;
 2507              		.loc 1 1016 3 view .LVU821
1016:Drivers/STM32H7xx_HAL_Driver/Src/stm32h7xx_ll_usb.c ****   uint16_t remaining_bytes = len % 4U;
 2508              		.loc 1 1016 37 is_stmt 0 view .LVU822
 2509 0008 4FEA920E 		lsr	lr, r2, #2
 2510              	.LVL183:
1017:Drivers/STM32H7xx_HAL_Driver/Src/stm32h7xx_ll_usb.c **** 
 2511              		.loc 1 1017 3 is_stmt 1 view .LVU823
1017:Drivers/STM32H7xx_HAL_Driver/Src/stm32h7xx_ll_usb.c **** 
 2512              		.loc 1 1017 12 is_stmt 0 view .LVU824
 2513 000c 02F00302 		and	r2, r2, #3
 2514              	.LVL184:
1019:Drivers/STM32H7xx_HAL_Driver/Src/stm32h7xx_ll_usb.c ****   {
 2515              		.loc 1 1019 3 is_stmt 1 view .LVU825
1019:Drivers/STM32H7xx_HAL_Driver/Src/stm32h7xx_ll_usb.c ****   {
 2516              		.loc 1 1019 10 is_stmt 0 view .LVU826
 2517 0010 0023     		movs	r3, #0
1019:Drivers/STM32H7xx_HAL_Driver/Src/stm32h7xx_ll_usb.c ****   {
 2518              		.loc 1 1019 3 view .LVU827
 2519 0012 05E0     		b	.L172
 2520              	.LVL185:
 2521              	.L173:
1021:Drivers/STM32H7xx_HAL_Driver/Src/stm32h7xx_ll_usb.c ****     pDest++;
 2522              		.loc 1 1021 5 is_stmt 1 discriminator 3 view .LVU828
 2523 0014 0CF58051 		add	r1, ip, #4096
 2524 0018 0968     		ldr	r1, [r1]
 2525 001a 40F8041B 		str	r1, [r0], #4	@ unaligned
 2526              	.LVL186:
1022:Drivers/STM32H7xx_HAL_Driver/Src/stm32h7xx_ll_usb.c ****     pDest++;
 2527              		.loc 1 1022 5 discriminator 3 view .LVU829
1023:Drivers/STM32H7xx_HAL_Driver/Src/stm32h7xx_ll_usb.c ****     pDest++;
 2528              		.loc 1 1023 5 discriminator 3 view .LVU830
1024:Drivers/STM32H7xx_HAL_Driver/Src/stm32h7xx_ll_usb.c ****     pDest++;
 2529              		.loc 1 1024 5 discriminator 3 view .LVU831
1025:Drivers/STM32H7xx_HAL_Driver/Src/stm32h7xx_ll_usb.c ****   }
 2530              		.loc 1 1025 5 discriminator 3 view .LVU832
1019:Drivers/STM32H7xx_HAL_Driver/Src/stm32h7xx_ll_usb.c ****   {
 2531              		.loc 1 1019 30 discriminator 3 view .LVU833
1019:Drivers/STM32H7xx_HAL_Driver/Src/stm32h7xx_ll_usb.c ****   {
 2532              		.loc 1 1019 31 is_stmt 0 discriminator 3 view .LVU834
 2533 001e 0133     		adds	r3, r3, #1
 2534              	.LVL187:
 2535              	.L172:
1019:Drivers/STM32H7xx_HAL_Driver/Src/stm32h7xx_ll_usb.c ****   {
 2536              		.loc 1 1019 16 is_stmt 1 discriminator 1 view .LVU835
1019:Drivers/STM32H7xx_HAL_Driver/Src/stm32h7xx_ll_usb.c ****   {
 2537              		.loc 1 1019 3 is_stmt 0 discriminator 1 view .LVU836
 2538 0020 7345     		cmp	r3, lr
 2539 0022 F7D3     		bcc	.L173
1029:Drivers/STM32H7xx_HAL_Driver/Src/stm32h7xx_ll_usb.c ****   {
 2540              		.loc 1 1029 3 is_stmt 1 view .LVU837
1029:Drivers/STM32H7xx_HAL_Driver/Src/stm32h7xx_ll_usb.c ****   {
 2541              		.loc 1 1029 6 is_stmt 0 view .LVU838
ARM GAS  C:\Users\PgRick\AppData\Local\Temp\ccFebq6t.s 			page 84


 2542 0024 9AB1     		cbz	r2, .L174
1031:Drivers/STM32H7xx_HAL_Driver/Src/stm32h7xx_ll_usb.c ****     __UNALIGNED_UINT32_WRITE(&pData, USBx_DFIFO(0U));
 2543              		.loc 1 1031 5 is_stmt 1 view .LVU839
 2544              	.LVL188:
1032:Drivers/STM32H7xx_HAL_Driver/Src/stm32h7xx_ll_usb.c **** 
 2545              		.loc 1 1032 5 view .LVU840
 2546 0026 0CF5805C 		add	ip, ip, #4096
 2547              	.LVL189:
1032:Drivers/STM32H7xx_HAL_Driver/Src/stm32h7xx_ll_usb.c **** 
 2548              		.loc 1 1032 5 is_stmt 0 view .LVU841
 2549 002a DCF80030 		ldr	r3, [ip]
 2550 002e 0193     		str	r3, [sp, #4]
1031:Drivers/STM32H7xx_HAL_Driver/Src/stm32h7xx_ll_usb.c ****     __UNALIGNED_UINT32_WRITE(&pData, USBx_DFIFO(0U));
 2551              		.loc 1 1031 7 view .LVU842
 2552 0030 4FF0000C 		mov	ip, #0
 2553              	.LVL190:
 2554              	.L175:
1034:Drivers/STM32H7xx_HAL_Driver/Src/stm32h7xx_ll_usb.c ****     {
 2555              		.loc 1 1034 5 is_stmt 1 discriminator 1 view .LVU843
1036:Drivers/STM32H7xx_HAL_Driver/Src/stm32h7xx_ll_usb.c ****       i++;
 2556              		.loc 1 1036 7 discriminator 1 view .LVU844
1036:Drivers/STM32H7xx_HAL_Driver/Src/stm32h7xx_ll_usb.c ****       i++;
 2557              		.loc 1 1036 50 is_stmt 0 discriminator 1 view .LVU845
 2558 0034 5FFA8CF3 		uxtb	r3, ip
 2559 0038 D900     		lsls	r1, r3, #3
1036:Drivers/STM32H7xx_HAL_Driver/Src/stm32h7xx_ll_usb.c ****       i++;
 2560              		.loc 1 1036 43 discriminator 1 view .LVU846
 2561 003a 019B     		ldr	r3, [sp, #4]
 2562 003c CB40     		lsrs	r3, r3, r1
1036:Drivers/STM32H7xx_HAL_Driver/Src/stm32h7xx_ll_usb.c ****       i++;
 2563              		.loc 1 1036 25 discriminator 1 view .LVU847
 2564 003e 00F8013B 		strb	r3, [r0], #1
 2565              	.LVL191:
1037:Drivers/STM32H7xx_HAL_Driver/Src/stm32h7xx_ll_usb.c ****       pDest++;
 2566              		.loc 1 1037 7 is_stmt 1 discriminator 1 view .LVU848
1037:Drivers/STM32H7xx_HAL_Driver/Src/stm32h7xx_ll_usb.c ****       pDest++;
 2567              		.loc 1 1037 8 is_stmt 0 discriminator 1 view .LVU849
 2568 0042 0CF1010C 		add	ip, ip, #1
 2569              	.LVL192:
1038:Drivers/STM32H7xx_HAL_Driver/Src/stm32h7xx_ll_usb.c ****       remaining_bytes--;
 2570              		.loc 1 1038 7 is_stmt 1 discriminator 1 view .LVU850
1039:Drivers/STM32H7xx_HAL_Driver/Src/stm32h7xx_ll_usb.c ****     } while (remaining_bytes != 0U);
 2571              		.loc 1 1039 7 discriminator 1 view .LVU851
1039:Drivers/STM32H7xx_HAL_Driver/Src/stm32h7xx_ll_usb.c ****     } while (remaining_bytes != 0U);
 2572              		.loc 1 1039 22 is_stmt 0 discriminator 1 view .LVU852
 2573 0046 013A     		subs	r2, r2, #1
 2574              	.LVL193:
1039:Drivers/STM32H7xx_HAL_Driver/Src/stm32h7xx_ll_usb.c ****     } while (remaining_bytes != 0U);
 2575              		.loc 1 1039 22 discriminator 1 view .LVU853
 2576 0048 92B2     		uxth	r2, r2
 2577              	.LVL194:
1040:Drivers/STM32H7xx_HAL_Driver/Src/stm32h7xx_ll_usb.c ****   }
 2578              		.loc 1 1040 13 is_stmt 1 discriminator 1 view .LVU854
1040:Drivers/STM32H7xx_HAL_Driver/Src/stm32h7xx_ll_usb.c ****   }
 2579              		.loc 1 1040 5 is_stmt 0 discriminator 1 view .LVU855
 2580 004a 002A     		cmp	r2, #0
 2581 004c F2D1     		bne	.L175
ARM GAS  C:\Users\PgRick\AppData\Local\Temp\ccFebq6t.s 			page 85


 2582              	.LVL195:
 2583              	.L174:
1043:Drivers/STM32H7xx_HAL_Driver/Src/stm32h7xx_ll_usb.c **** }
 2584              		.loc 1 1043 3 is_stmt 1 view .LVU856
1044:Drivers/STM32H7xx_HAL_Driver/Src/stm32h7xx_ll_usb.c **** 
 2585              		.loc 1 1044 1 is_stmt 0 view .LVU857
 2586 004e 03B0     		add	sp, sp, #12
 2587              	.LCFI38:
 2588              		.cfi_def_cfa_offset 4
 2589              		@ sp needed
 2590 0050 5DF804FB 		ldr	pc, [sp], #4
 2591              		.cfi_endproc
 2592              	.LFE161:
 2594              		.section	.text.USB_EPSetStall,"ax",%progbits
 2595              		.align	1
 2596              		.global	USB_EPSetStall
 2597              		.syntax unified
 2598              		.thumb
 2599              		.thumb_func
 2601              	USB_EPSetStall:
 2602              	.LVL196:
 2603              	.LFB162:
1053:Drivers/STM32H7xx_HAL_Driver/Src/stm32h7xx_ll_usb.c ****   uint32_t USBx_BASE = (uint32_t)USBx;
 2604              		.loc 1 1053 1 is_stmt 1 view -0
 2605              		.cfi_startproc
 2606              		@ args = 0, pretend = 0, frame = 0
 2607              		@ frame_needed = 0, uses_anonymous_args = 0
 2608              		@ link register save eliminated.
1054:Drivers/STM32H7xx_HAL_Driver/Src/stm32h7xx_ll_usb.c ****   uint32_t epnum = (uint32_t)ep->num;
 2609              		.loc 1 1054 3 view .LVU859
1055:Drivers/STM32H7xx_HAL_Driver/Src/stm32h7xx_ll_usb.c **** 
 2610              		.loc 1 1055 3 view .LVU860
1055:Drivers/STM32H7xx_HAL_Driver/Src/stm32h7xx_ll_usb.c **** 
 2611              		.loc 1 1055 32 is_stmt 0 view .LVU861
 2612 0000 0B78     		ldrb	r3, [r1]	@ zero_extendqisi2
 2613              	.LVL197:
1057:Drivers/STM32H7xx_HAL_Driver/Src/stm32h7xx_ll_usb.c ****   {
 2614              		.loc 1 1057 3 is_stmt 1 view .LVU862
1057:Drivers/STM32H7xx_HAL_Driver/Src/stm32h7xx_ll_usb.c ****   {
 2615              		.loc 1 1057 9 is_stmt 0 view .LVU863
 2616 0002 4A78     		ldrb	r2, [r1, #1]	@ zero_extendqisi2
1057:Drivers/STM32H7xx_HAL_Driver/Src/stm32h7xx_ll_usb.c ****   {
 2617              		.loc 1 1057 6 view .LVU864
 2618 0004 012A     		cmp	r2, #1
 2619 0006 14D0     		beq	.L182
1067:Drivers/STM32H7xx_HAL_Driver/Src/stm32h7xx_ll_usb.c ****     {
 2620              		.loc 1 1067 5 is_stmt 1 view .LVU865
1067:Drivers/STM32H7xx_HAL_Driver/Src/stm32h7xx_ll_usb.c ****     {
 2621              		.loc 1 1067 11 is_stmt 0 view .LVU866
 2622 0008 00EB4310 		add	r0, r0, r3, lsl #5
 2623              	.LVL198:
1067:Drivers/STM32H7xx_HAL_Driver/Src/stm32h7xx_ll_usb.c ****     {
 2624              		.loc 1 1067 28 view .LVU867
 2625 000c D0F8002B 		ldr	r2, [r0, #2816]
1067:Drivers/STM32H7xx_HAL_Driver/Src/stm32h7xx_ll_usb.c ****     {
 2626              		.loc 1 1067 8 view .LVU868
 2627 0010 002A     		cmp	r2, #0
ARM GAS  C:\Users\PgRick\AppData\Local\Temp\ccFebq6t.s 			page 86


 2628 0012 06DB     		blt	.L181
1067:Drivers/STM32H7xx_HAL_Driver/Src/stm32h7xx_ll_usb.c ****     {
 2629              		.loc 1 1067 70 discriminator 1 view .LVU869
 2630 0014 2BB1     		cbz	r3, .L181
1069:Drivers/STM32H7xx_HAL_Driver/Src/stm32h7xx_ll_usb.c ****     }
 2631              		.loc 1 1069 7 is_stmt 1 view .LVU870
1069:Drivers/STM32H7xx_HAL_Driver/Src/stm32h7xx_ll_usb.c ****     }
 2632              		.loc 1 1069 34 is_stmt 0 view .LVU871
 2633 0016 D0F8003B 		ldr	r3, [r0, #2816]
 2634              	.LVL199:
1069:Drivers/STM32H7xx_HAL_Driver/Src/stm32h7xx_ll_usb.c ****     }
 2635              		.loc 1 1069 34 view .LVU872
 2636 001a 23F08043 		bic	r3, r3, #1073741824
 2637 001e C0F8003B 		str	r3, [r0, #2816]
 2638              	.LVL200:
 2639              	.L181:
1071:Drivers/STM32H7xx_HAL_Driver/Src/stm32h7xx_ll_usb.c ****   }
 2640              		.loc 1 1071 5 is_stmt 1 view .LVU873
1071:Drivers/STM32H7xx_HAL_Driver/Src/stm32h7xx_ll_usb.c ****   }
 2641              		.loc 1 1071 32 is_stmt 0 view .LVU874
 2642 0022 D0F8003B 		ldr	r3, [r0, #2816]
 2643 0026 43F40013 		orr	r3, r3, #2097152
 2644 002a C0F8003B 		str	r3, [r0, #2816]
 2645              	.L180:
1074:Drivers/STM32H7xx_HAL_Driver/Src/stm32h7xx_ll_usb.c **** }
 2646              		.loc 1 1074 3 is_stmt 1 view .LVU875
1075:Drivers/STM32H7xx_HAL_Driver/Src/stm32h7xx_ll_usb.c **** 
 2647              		.loc 1 1075 1 is_stmt 0 view .LVU876
 2648 002e 0020     		movs	r0, #0
 2649 0030 7047     		bx	lr
 2650              	.LVL201:
 2651              	.L182:
1059:Drivers/STM32H7xx_HAL_Driver/Src/stm32h7xx_ll_usb.c ****     {
 2652              		.loc 1 1059 5 is_stmt 1 view .LVU877
1059:Drivers/STM32H7xx_HAL_Driver/Src/stm32h7xx_ll_usb.c ****     {
 2653              		.loc 1 1059 11 is_stmt 0 view .LVU878
 2654 0032 00EB4310 		add	r0, r0, r3, lsl #5
 2655              	.LVL202:
1059:Drivers/STM32H7xx_HAL_Driver/Src/stm32h7xx_ll_usb.c ****     {
 2656              		.loc 1 1059 27 view .LVU879
 2657 0036 D0F80029 		ldr	r2, [r0, #2304]
1059:Drivers/STM32H7xx_HAL_Driver/Src/stm32h7xx_ll_usb.c ****     {
 2658              		.loc 1 1059 8 view .LVU880
 2659 003a 002A     		cmp	r2, #0
 2660 003c 06DB     		blt	.L179
1059:Drivers/STM32H7xx_HAL_Driver/Src/stm32h7xx_ll_usb.c ****     {
 2661              		.loc 1 1059 69 discriminator 1 view .LVU881
 2662 003e 2BB1     		cbz	r3, .L179
1061:Drivers/STM32H7xx_HAL_Driver/Src/stm32h7xx_ll_usb.c ****     }
 2663              		.loc 1 1061 7 is_stmt 1 view .LVU882
1061:Drivers/STM32H7xx_HAL_Driver/Src/stm32h7xx_ll_usb.c ****     }
 2664              		.loc 1 1061 33 is_stmt 0 view .LVU883
 2665 0040 D0F80039 		ldr	r3, [r0, #2304]
 2666              	.LVL203:
1061:Drivers/STM32H7xx_HAL_Driver/Src/stm32h7xx_ll_usb.c ****     }
 2667              		.loc 1 1061 33 view .LVU884
 2668 0044 23F08043 		bic	r3, r3, #1073741824
ARM GAS  C:\Users\PgRick\AppData\Local\Temp\ccFebq6t.s 			page 87


 2669 0048 C0F80039 		str	r3, [r0, #2304]
 2670              	.LVL204:
 2671              	.L179:
1063:Drivers/STM32H7xx_HAL_Driver/Src/stm32h7xx_ll_usb.c ****   }
 2672              		.loc 1 1063 5 is_stmt 1 view .LVU885
1063:Drivers/STM32H7xx_HAL_Driver/Src/stm32h7xx_ll_usb.c ****   }
 2673              		.loc 1 1063 31 is_stmt 0 view .LVU886
 2674 004c D0F80039 		ldr	r3, [r0, #2304]
 2675 0050 43F40013 		orr	r3, r3, #2097152
 2676 0054 C0F80039 		str	r3, [r0, #2304]
 2677 0058 E9E7     		b	.L180
 2678              		.cfi_endproc
 2679              	.LFE162:
 2681              		.section	.text.USB_EPClearStall,"ax",%progbits
 2682              		.align	1
 2683              		.global	USB_EPClearStall
 2684              		.syntax unified
 2685              		.thumb
 2686              		.thumb_func
 2688              	USB_EPClearStall:
 2689              	.LVL205:
 2690              	.LFB163:
1084:Drivers/STM32H7xx_HAL_Driver/Src/stm32h7xx_ll_usb.c ****   uint32_t USBx_BASE = (uint32_t)USBx;
 2691              		.loc 1 1084 1 is_stmt 1 view -0
 2692              		.cfi_startproc
 2693              		@ args = 0, pretend = 0, frame = 0
 2694              		@ frame_needed = 0, uses_anonymous_args = 0
 2695              		@ link register save eliminated.
1085:Drivers/STM32H7xx_HAL_Driver/Src/stm32h7xx_ll_usb.c ****   uint32_t epnum = (uint32_t)ep->num;
 2696              		.loc 1 1085 3 view .LVU888
1086:Drivers/STM32H7xx_HAL_Driver/Src/stm32h7xx_ll_usb.c **** 
 2697              		.loc 1 1086 3 view .LVU889
1086:Drivers/STM32H7xx_HAL_Driver/Src/stm32h7xx_ll_usb.c **** 
 2698              		.loc 1 1086 32 is_stmt 0 view .LVU890
 2699 0000 0B78     		ldrb	r3, [r1]	@ zero_extendqisi2
 2700              	.LVL206:
1088:Drivers/STM32H7xx_HAL_Driver/Src/stm32h7xx_ll_usb.c ****   {
 2701              		.loc 1 1088 3 is_stmt 1 view .LVU891
1088:Drivers/STM32H7xx_HAL_Driver/Src/stm32h7xx_ll_usb.c ****   {
 2702              		.loc 1 1088 9 is_stmt 0 view .LVU892
 2703 0002 4A78     		ldrb	r2, [r1, #1]	@ zero_extendqisi2
1088:Drivers/STM32H7xx_HAL_Driver/Src/stm32h7xx_ll_usb.c ****   {
 2704              		.loc 1 1088 6 view .LVU893
 2705 0004 012A     		cmp	r2, #1
 2706 0006 0ED0     		beq	.L186
1098:Drivers/STM32H7xx_HAL_Driver/Src/stm32h7xx_ll_usb.c ****     if ((ep->type == EP_TYPE_INTR) || (ep->type == EP_TYPE_BULK))
 2707              		.loc 1 1098 5 is_stmt 1 view .LVU894
1098:Drivers/STM32H7xx_HAL_Driver/Src/stm32h7xx_ll_usb.c ****     if ((ep->type == EP_TYPE_INTR) || (ep->type == EP_TYPE_BULK))
 2708              		.loc 1 1098 32 is_stmt 0 view .LVU895
 2709 0008 00EB4310 		add	r0, r0, r3, lsl #5
 2710              	.LVL207:
1098:Drivers/STM32H7xx_HAL_Driver/Src/stm32h7xx_ll_usb.c ****     if ((ep->type == EP_TYPE_INTR) || (ep->type == EP_TYPE_BULK))
 2711              		.loc 1 1098 32 view .LVU896
 2712 000c D0F8003B 		ldr	r3, [r0, #2816]
 2713              	.LVL208:
1098:Drivers/STM32H7xx_HAL_Driver/Src/stm32h7xx_ll_usb.c ****     if ((ep->type == EP_TYPE_INTR) || (ep->type == EP_TYPE_BULK))
 2714              		.loc 1 1098 32 view .LVU897
ARM GAS  C:\Users\PgRick\AppData\Local\Temp\ccFebq6t.s 			page 88


 2715 0010 23F40013 		bic	r3, r3, #2097152
 2716 0014 C0F8003B 		str	r3, [r0, #2816]
 2717              	.LVL209:
1099:Drivers/STM32H7xx_HAL_Driver/Src/stm32h7xx_ll_usb.c ****     {
 2718              		.loc 1 1099 5 is_stmt 1 view .LVU898
1099:Drivers/STM32H7xx_HAL_Driver/Src/stm32h7xx_ll_usb.c ****     {
 2719              		.loc 1 1099 12 is_stmt 0 view .LVU899
 2720 0018 0B79     		ldrb	r3, [r1, #4]	@ zero_extendqisi2
1099:Drivers/STM32H7xx_HAL_Driver/Src/stm32h7xx_ll_usb.c ****     {
 2721              		.loc 1 1099 36 view .LVU900
 2722 001a 023B     		subs	r3, r3, #2
 2723 001c DBB2     		uxtb	r3, r3
1099:Drivers/STM32H7xx_HAL_Driver/Src/stm32h7xx_ll_usb.c ****     {
 2724              		.loc 1 1099 8 view .LVU901
 2725 001e 012B     		cmp	r3, #1
 2726 0020 15D9     		bls	.L187
 2727              	.L185:
1104:Drivers/STM32H7xx_HAL_Driver/Src/stm32h7xx_ll_usb.c **** }
 2728              		.loc 1 1104 3 is_stmt 1 view .LVU902
1105:Drivers/STM32H7xx_HAL_Driver/Src/stm32h7xx_ll_usb.c **** 
 2729              		.loc 1 1105 1 is_stmt 0 view .LVU903
 2730 0022 0020     		movs	r0, #0
 2731 0024 7047     		bx	lr
 2732              	.LVL210:
 2733              	.L186:
1090:Drivers/STM32H7xx_HAL_Driver/Src/stm32h7xx_ll_usb.c ****     if ((ep->type == EP_TYPE_INTR) || (ep->type == EP_TYPE_BULK))
 2734              		.loc 1 1090 5 is_stmt 1 view .LVU904
1090:Drivers/STM32H7xx_HAL_Driver/Src/stm32h7xx_ll_usb.c ****     if ((ep->type == EP_TYPE_INTR) || (ep->type == EP_TYPE_BULK))
 2735              		.loc 1 1090 31 is_stmt 0 view .LVU905
 2736 0026 00EB4310 		add	r0, r0, r3, lsl #5
 2737              	.LVL211:
1090:Drivers/STM32H7xx_HAL_Driver/Src/stm32h7xx_ll_usb.c ****     if ((ep->type == EP_TYPE_INTR) || (ep->type == EP_TYPE_BULK))
 2738              		.loc 1 1090 31 view .LVU906
 2739 002a D0F80039 		ldr	r3, [r0, #2304]
 2740              	.LVL212:
1090:Drivers/STM32H7xx_HAL_Driver/Src/stm32h7xx_ll_usb.c ****     if ((ep->type == EP_TYPE_INTR) || (ep->type == EP_TYPE_BULK))
 2741              		.loc 1 1090 31 view .LVU907
 2742 002e 23F40013 		bic	r3, r3, #2097152
 2743 0032 C0F80039 		str	r3, [r0, #2304]
 2744              	.LVL213:
1091:Drivers/STM32H7xx_HAL_Driver/Src/stm32h7xx_ll_usb.c ****     {
 2745              		.loc 1 1091 5 is_stmt 1 view .LVU908
1091:Drivers/STM32H7xx_HAL_Driver/Src/stm32h7xx_ll_usb.c ****     {
 2746              		.loc 1 1091 12 is_stmt 0 view .LVU909
 2747 0036 0B79     		ldrb	r3, [r1, #4]	@ zero_extendqisi2
1091:Drivers/STM32H7xx_HAL_Driver/Src/stm32h7xx_ll_usb.c ****     {
 2748              		.loc 1 1091 36 view .LVU910
 2749 0038 023B     		subs	r3, r3, #2
 2750 003a DBB2     		uxtb	r3, r3
1091:Drivers/STM32H7xx_HAL_Driver/Src/stm32h7xx_ll_usb.c ****     {
 2751              		.loc 1 1091 8 view .LVU911
 2752 003c 012B     		cmp	r3, #1
 2753 003e F0D8     		bhi	.L185
1093:Drivers/STM32H7xx_HAL_Driver/Src/stm32h7xx_ll_usb.c ****     }
 2754              		.loc 1 1093 7 is_stmt 1 view .LVU912
1093:Drivers/STM32H7xx_HAL_Driver/Src/stm32h7xx_ll_usb.c ****     }
 2755              		.loc 1 1093 33 is_stmt 0 view .LVU913
ARM GAS  C:\Users\PgRick\AppData\Local\Temp\ccFebq6t.s 			page 89


 2756 0040 D0F80039 		ldr	r3, [r0, #2304]
 2757 0044 43F08053 		orr	r3, r3, #268435456
 2758 0048 C0F80039 		str	r3, [r0, #2304]
 2759 004c E9E7     		b	.L185
 2760              	.L187:
1101:Drivers/STM32H7xx_HAL_Driver/Src/stm32h7xx_ll_usb.c ****     }
 2761              		.loc 1 1101 7 is_stmt 1 view .LVU914
1101:Drivers/STM32H7xx_HAL_Driver/Src/stm32h7xx_ll_usb.c ****     }
 2762              		.loc 1 1101 34 is_stmt 0 view .LVU915
 2763 004e D0F8003B 		ldr	r3, [r0, #2816]
 2764 0052 43F08053 		orr	r3, r3, #268435456
 2765 0056 C0F8003B 		str	r3, [r0, #2816]
 2766 005a E2E7     		b	.L185
 2767              		.cfi_endproc
 2768              	.LFE163:
 2770              		.section	.text.USB_StopDevice,"ax",%progbits
 2771              		.align	1
 2772              		.global	USB_StopDevice
 2773              		.syntax unified
 2774              		.thumb
 2775              		.thumb_func
 2777              	USB_StopDevice:
 2778              	.LVL214:
 2779              	.LFB164:
1113:Drivers/STM32H7xx_HAL_Driver/Src/stm32h7xx_ll_usb.c ****   HAL_StatusTypeDef ret;
 2780              		.loc 1 1113 1 is_stmt 1 view -0
 2781              		.cfi_startproc
 2782              		@ args = 0, pretend = 0, frame = 0
 2783              		@ frame_needed = 0, uses_anonymous_args = 0
1113:Drivers/STM32H7xx_HAL_Driver/Src/stm32h7xx_ll_usb.c ****   HAL_StatusTypeDef ret;
 2784              		.loc 1 1113 1 is_stmt 0 view .LVU917
 2785 0000 10B5     		push	{r4, lr}
 2786              	.LCFI39:
 2787              		.cfi_def_cfa_offset 8
 2788              		.cfi_offset 4, -8
 2789              		.cfi_offset 14, -4
 2790 0002 0446     		mov	r4, r0
1114:Drivers/STM32H7xx_HAL_Driver/Src/stm32h7xx_ll_usb.c ****   uint32_t USBx_BASE = (uint32_t)USBx;
 2791              		.loc 1 1114 3 is_stmt 1 view .LVU918
1115:Drivers/STM32H7xx_HAL_Driver/Src/stm32h7xx_ll_usb.c ****   uint32_t i;
 2792              		.loc 1 1115 3 view .LVU919
 2793              	.LVL215:
1116:Drivers/STM32H7xx_HAL_Driver/Src/stm32h7xx_ll_usb.c **** 
 2794              		.loc 1 1116 3 view .LVU920
1119:Drivers/STM32H7xx_HAL_Driver/Src/stm32h7xx_ll_usb.c ****   {
 2795              		.loc 1 1119 3 view .LVU921
1119:Drivers/STM32H7xx_HAL_Driver/Src/stm32h7xx_ll_usb.c ****   {
 2796              		.loc 1 1119 10 is_stmt 0 view .LVU922
 2797 0004 0022     		movs	r2, #0
1119:Drivers/STM32H7xx_HAL_Driver/Src/stm32h7xx_ll_usb.c ****   {
 2798              		.loc 1 1119 3 view .LVU923
 2799 0006 08E0     		b	.L189
 2800              	.LVL216:
 2801              	.L190:
1121:Drivers/STM32H7xx_HAL_Driver/Src/stm32h7xx_ll_usb.c ****     USBx_OUTEP(i)->DOEPINT = 0xFB7FU;
 2802              		.loc 1 1121 5 is_stmt 1 discriminator 3 view .LVU924
 2803 0008 04EB4213 		add	r3, r4, r2, lsl #5
ARM GAS  C:\Users\PgRick\AppData\Local\Temp\ccFebq6t.s 			page 90


1121:Drivers/STM32H7xx_HAL_Driver/Src/stm32h7xx_ll_usb.c ****     USBx_OUTEP(i)->DOEPINT = 0xFB7FU;
 2804              		.loc 1 1121 27 is_stmt 0 discriminator 3 view .LVU925
 2805 000c 4FF67F31 		movw	r1, #64383
 2806 0010 C3F80819 		str	r1, [r3, #2312]
1122:Drivers/STM32H7xx_HAL_Driver/Src/stm32h7xx_ll_usb.c ****   }
 2807              		.loc 1 1122 5 is_stmt 1 discriminator 3 view .LVU926
1122:Drivers/STM32H7xx_HAL_Driver/Src/stm32h7xx_ll_usb.c ****   }
 2808              		.loc 1 1122 28 is_stmt 0 discriminator 3 view .LVU927
 2809 0014 C3F8081B 		str	r1, [r3, #2824]
1119:Drivers/STM32H7xx_HAL_Driver/Src/stm32h7xx_ll_usb.c ****   {
 2810              		.loc 1 1119 25 is_stmt 1 discriminator 3 view .LVU928
1119:Drivers/STM32H7xx_HAL_Driver/Src/stm32h7xx_ll_usb.c ****   {
 2811              		.loc 1 1119 26 is_stmt 0 discriminator 3 view .LVU929
 2812 0018 0132     		adds	r2, r2, #1
 2813              	.LVL217:
 2814              	.L189:
1119:Drivers/STM32H7xx_HAL_Driver/Src/stm32h7xx_ll_usb.c ****   {
 2815              		.loc 1 1119 16 is_stmt 1 discriminator 1 view .LVU930
1119:Drivers/STM32H7xx_HAL_Driver/Src/stm32h7xx_ll_usb.c ****   {
 2816              		.loc 1 1119 3 is_stmt 0 discriminator 1 view .LVU931
 2817 001a 0E2A     		cmp	r2, #14
 2818 001c F4D9     		bls	.L190
1126:Drivers/STM32H7xx_HAL_Driver/Src/stm32h7xx_ll_usb.c ****   USBx_DEVICE->DOEPMSK  = 0U;
 2819              		.loc 1 1126 3 is_stmt 1 view .LVU932
1126:Drivers/STM32H7xx_HAL_Driver/Src/stm32h7xx_ll_usb.c ****   USBx_DEVICE->DOEPMSK  = 0U;
 2820              		.loc 1 1126 25 is_stmt 0 view .LVU933
 2821 001e 0022     		movs	r2, #0
 2822              	.LVL218:
1126:Drivers/STM32H7xx_HAL_Driver/Src/stm32h7xx_ll_usb.c ****   USBx_DEVICE->DOEPMSK  = 0U;
 2823              		.loc 1 1126 25 view .LVU934
 2824 0020 C4F81028 		str	r2, [r4, #2064]
1127:Drivers/STM32H7xx_HAL_Driver/Src/stm32h7xx_ll_usb.c ****   USBx_DEVICE->DAINTMSK = 0U;
 2825              		.loc 1 1127 3 is_stmt 1 view .LVU935
1127:Drivers/STM32H7xx_HAL_Driver/Src/stm32h7xx_ll_usb.c ****   USBx_DEVICE->DAINTMSK = 0U;
 2826              		.loc 1 1127 25 is_stmt 0 view .LVU936
 2827 0024 C4F81428 		str	r2, [r4, #2068]
1128:Drivers/STM32H7xx_HAL_Driver/Src/stm32h7xx_ll_usb.c **** 
 2828              		.loc 1 1128 3 is_stmt 1 view .LVU937
1128:Drivers/STM32H7xx_HAL_Driver/Src/stm32h7xx_ll_usb.c **** 
 2829              		.loc 1 1128 25 is_stmt 0 view .LVU938
 2830 0028 C4F81C28 		str	r2, [r4, #2076]
1131:Drivers/STM32H7xx_HAL_Driver/Src/stm32h7xx_ll_usb.c ****   if (ret != HAL_OK)
 2831              		.loc 1 1131 3 is_stmt 1 view .LVU939
1131:Drivers/STM32H7xx_HAL_Driver/Src/stm32h7xx_ll_usb.c ****   if (ret != HAL_OK)
 2832              		.loc 1 1131 9 is_stmt 0 view .LVU940
 2833 002c 2046     		mov	r0, r4
 2834              	.LVL219:
1131:Drivers/STM32H7xx_HAL_Driver/Src/stm32h7xx_ll_usb.c ****   if (ret != HAL_OK)
 2835              		.loc 1 1131 9 view .LVU941
 2836 002e FFF7FEFF 		bl	USB_FlushRxFifo
 2837              	.LVL220:
1132:Drivers/STM32H7xx_HAL_Driver/Src/stm32h7xx_ll_usb.c ****   {
 2838              		.loc 1 1132 3 is_stmt 1 view .LVU942
1132:Drivers/STM32H7xx_HAL_Driver/Src/stm32h7xx_ll_usb.c ****   {
 2839              		.loc 1 1132 6 is_stmt 0 view .LVU943
 2840 0032 00B1     		cbz	r0, .L193
 2841              	.L191:
ARM GAS  C:\Users\PgRick\AppData\Local\Temp\ccFebq6t.s 			page 91


1144:Drivers/STM32H7xx_HAL_Driver/Src/stm32h7xx_ll_usb.c **** 
 2842              		.loc 1 1144 1 view .LVU944
 2843 0034 10BD     		pop	{r4, pc}
 2844              	.LVL221:
 2845              	.L193:
1137:Drivers/STM32H7xx_HAL_Driver/Src/stm32h7xx_ll_usb.c ****   if (ret != HAL_OK)
 2846              		.loc 1 1137 3 is_stmt 1 view .LVU945
1137:Drivers/STM32H7xx_HAL_Driver/Src/stm32h7xx_ll_usb.c ****   if (ret != HAL_OK)
 2847              		.loc 1 1137 9 is_stmt 0 view .LVU946
 2848 0036 1021     		movs	r1, #16
 2849 0038 2046     		mov	r0, r4
 2850              	.LVL222:
1137:Drivers/STM32H7xx_HAL_Driver/Src/stm32h7xx_ll_usb.c ****   if (ret != HAL_OK)
 2851              		.loc 1 1137 9 view .LVU947
 2852 003a FFF7FEFF 		bl	USB_FlushTxFifo
 2853              	.LVL223:
1138:Drivers/STM32H7xx_HAL_Driver/Src/stm32h7xx_ll_usb.c ****   {
 2854              		.loc 1 1138 3 is_stmt 1 view .LVU948
 2855 003e F9E7     		b	.L191
 2856              		.cfi_endproc
 2857              	.LFE164:
 2859              		.section	.text.USB_SetDevAddress,"ax",%progbits
 2860              		.align	1
 2861              		.global	USB_SetDevAddress
 2862              		.syntax unified
 2863              		.thumb
 2864              		.thumb_func
 2866              	USB_SetDevAddress:
 2867              	.LVL224:
 2868              	.LFB165:
1154:Drivers/STM32H7xx_HAL_Driver/Src/stm32h7xx_ll_usb.c ****   uint32_t USBx_BASE = (uint32_t)USBx;
 2869              		.loc 1 1154 1 view -0
 2870              		.cfi_startproc
 2871              		@ args = 0, pretend = 0, frame = 0
 2872              		@ frame_needed = 0, uses_anonymous_args = 0
 2873              		@ link register save eliminated.
1155:Drivers/STM32H7xx_HAL_Driver/Src/stm32h7xx_ll_usb.c **** 
 2874              		.loc 1 1155 3 view .LVU950
1157:Drivers/STM32H7xx_HAL_Driver/Src/stm32h7xx_ll_usb.c ****   USBx_DEVICE->DCFG |= ((uint32_t)address << 4) & USB_OTG_DCFG_DAD;
 2875              		.loc 1 1157 3 view .LVU951
1157:Drivers/STM32H7xx_HAL_Driver/Src/stm32h7xx_ll_usb.c ****   USBx_DEVICE->DCFG |= ((uint32_t)address << 4) & USB_OTG_DCFG_DAD;
 2876              		.loc 1 1157 21 is_stmt 0 view .LVU952
 2877 0000 D0F80038 		ldr	r3, [r0, #2048]
 2878 0004 23F4FE63 		bic	r3, r3, #2032
 2879 0008 C0F80038 		str	r3, [r0, #2048]
1158:Drivers/STM32H7xx_HAL_Driver/Src/stm32h7xx_ll_usb.c **** 
 2880              		.loc 1 1158 3 is_stmt 1 view .LVU953
1158:Drivers/STM32H7xx_HAL_Driver/Src/stm32h7xx_ll_usb.c **** 
 2881              		.loc 1 1158 21 is_stmt 0 view .LVU954
 2882 000c D0F80038 		ldr	r3, [r0, #2048]
1158:Drivers/STM32H7xx_HAL_Driver/Src/stm32h7xx_ll_usb.c **** 
 2883              		.loc 1 1158 43 view .LVU955
 2884 0010 0901     		lsls	r1, r1, #4
 2885              	.LVL225:
1158:Drivers/STM32H7xx_HAL_Driver/Src/stm32h7xx_ll_usb.c **** 
 2886              		.loc 1 1158 49 view .LVU956
 2887 0012 01F4FE61 		and	r1, r1, #2032
ARM GAS  C:\Users\PgRick\AppData\Local\Temp\ccFebq6t.s 			page 92


1158:Drivers/STM32H7xx_HAL_Driver/Src/stm32h7xx_ll_usb.c **** 
 2888              		.loc 1 1158 21 view .LVU957
 2889 0016 1943     		orrs	r1, r1, r3
 2890 0018 C0F80018 		str	r1, [r0, #2048]
1160:Drivers/STM32H7xx_HAL_Driver/Src/stm32h7xx_ll_usb.c **** }
 2891              		.loc 1 1160 3 is_stmt 1 view .LVU958
1161:Drivers/STM32H7xx_HAL_Driver/Src/stm32h7xx_ll_usb.c **** 
 2892              		.loc 1 1161 1 is_stmt 0 view .LVU959
 2893 001c 0020     		movs	r0, #0
 2894              	.LVL226:
1161:Drivers/STM32H7xx_HAL_Driver/Src/stm32h7xx_ll_usb.c **** 
 2895              		.loc 1 1161 1 view .LVU960
 2896 001e 7047     		bx	lr
 2897              		.cfi_endproc
 2898              	.LFE165:
 2900              		.section	.text.USB_DevConnect,"ax",%progbits
 2901              		.align	1
 2902              		.global	USB_DevConnect
 2903              		.syntax unified
 2904              		.thumb
 2905              		.thumb_func
 2907              	USB_DevConnect:
 2908              	.LVL227:
 2909              	.LFB166:
1169:Drivers/STM32H7xx_HAL_Driver/Src/stm32h7xx_ll_usb.c ****   uint32_t USBx_BASE = (uint32_t)USBx;
 2910              		.loc 1 1169 1 is_stmt 1 view -0
 2911              		.cfi_startproc
 2912              		@ args = 0, pretend = 0, frame = 0
 2913              		@ frame_needed = 0, uses_anonymous_args = 0
 2914              		@ link register save eliminated.
1170:Drivers/STM32H7xx_HAL_Driver/Src/stm32h7xx_ll_usb.c **** 
 2915              		.loc 1 1170 3 view .LVU962
1173:Drivers/STM32H7xx_HAL_Driver/Src/stm32h7xx_ll_usb.c **** 
 2916              		.loc 1 1173 3 view .LVU963
1173:Drivers/STM32H7xx_HAL_Driver/Src/stm32h7xx_ll_usb.c **** 
 2917              		.loc 1 1173 16 is_stmt 0 view .LVU964
 2918 0000 D0F8003E 		ldr	r3, [r0, #3584]
 2919 0004 23F00303 		bic	r3, r3, #3
 2920 0008 C0F8003E 		str	r3, [r0, #3584]
1175:Drivers/STM32H7xx_HAL_Driver/Src/stm32h7xx_ll_usb.c **** 
 2921              		.loc 1 1175 3 is_stmt 1 view .LVU965
1175:Drivers/STM32H7xx_HAL_Driver/Src/stm32h7xx_ll_usb.c **** 
 2922              		.loc 1 1175 21 is_stmt 0 view .LVU966
 2923 000c D0F80438 		ldr	r3, [r0, #2052]
 2924 0010 23F00203 		bic	r3, r3, #2
 2925 0014 C0F80438 		str	r3, [r0, #2052]
1177:Drivers/STM32H7xx_HAL_Driver/Src/stm32h7xx_ll_usb.c **** }
 2926              		.loc 1 1177 3 is_stmt 1 view .LVU967
1178:Drivers/STM32H7xx_HAL_Driver/Src/stm32h7xx_ll_usb.c **** 
 2927              		.loc 1 1178 1 is_stmt 0 view .LVU968
 2928 0018 0020     		movs	r0, #0
 2929              	.LVL228:
1178:Drivers/STM32H7xx_HAL_Driver/Src/stm32h7xx_ll_usb.c **** 
 2930              		.loc 1 1178 1 view .LVU969
 2931 001a 7047     		bx	lr
 2932              		.cfi_endproc
 2933              	.LFE166:
ARM GAS  C:\Users\PgRick\AppData\Local\Temp\ccFebq6t.s 			page 93


 2935              		.section	.text.USB_DevDisconnect,"ax",%progbits
 2936              		.align	1
 2937              		.global	USB_DevDisconnect
 2938              		.syntax unified
 2939              		.thumb
 2940              		.thumb_func
 2942              	USB_DevDisconnect:
 2943              	.LVL229:
 2944              	.LFB167:
1186:Drivers/STM32H7xx_HAL_Driver/Src/stm32h7xx_ll_usb.c ****   uint32_t USBx_BASE = (uint32_t)USBx;
 2945              		.loc 1 1186 1 is_stmt 1 view -0
 2946              		.cfi_startproc
 2947              		@ args = 0, pretend = 0, frame = 0
 2948              		@ frame_needed = 0, uses_anonymous_args = 0
 2949              		@ link register save eliminated.
1187:Drivers/STM32H7xx_HAL_Driver/Src/stm32h7xx_ll_usb.c **** 
 2950              		.loc 1 1187 3 view .LVU971
1190:Drivers/STM32H7xx_HAL_Driver/Src/stm32h7xx_ll_usb.c **** 
 2951              		.loc 1 1190 3 view .LVU972
1190:Drivers/STM32H7xx_HAL_Driver/Src/stm32h7xx_ll_usb.c **** 
 2952              		.loc 1 1190 16 is_stmt 0 view .LVU973
 2953 0000 D0F8003E 		ldr	r3, [r0, #3584]
 2954 0004 23F00303 		bic	r3, r3, #3
 2955 0008 C0F8003E 		str	r3, [r0, #3584]
1192:Drivers/STM32H7xx_HAL_Driver/Src/stm32h7xx_ll_usb.c **** 
 2956              		.loc 1 1192 3 is_stmt 1 view .LVU974
1192:Drivers/STM32H7xx_HAL_Driver/Src/stm32h7xx_ll_usb.c **** 
 2957              		.loc 1 1192 21 is_stmt 0 view .LVU975
 2958 000c D0F80438 		ldr	r3, [r0, #2052]
 2959 0010 43F00203 		orr	r3, r3, #2
 2960 0014 C0F80438 		str	r3, [r0, #2052]
1194:Drivers/STM32H7xx_HAL_Driver/Src/stm32h7xx_ll_usb.c **** }
 2961              		.loc 1 1194 3 is_stmt 1 view .LVU976
1195:Drivers/STM32H7xx_HAL_Driver/Src/stm32h7xx_ll_usb.c **** 
 2962              		.loc 1 1195 1 is_stmt 0 view .LVU977
 2963 0018 0020     		movs	r0, #0
 2964              	.LVL230:
1195:Drivers/STM32H7xx_HAL_Driver/Src/stm32h7xx_ll_usb.c **** 
 2965              		.loc 1 1195 1 view .LVU978
 2966 001a 7047     		bx	lr
 2967              		.cfi_endproc
 2968              	.LFE167:
 2970              		.section	.text.USB_ReadInterrupts,"ax",%progbits
 2971              		.align	1
 2972              		.global	USB_ReadInterrupts
 2973              		.syntax unified
 2974              		.thumb
 2975              		.thumb_func
 2977              	USB_ReadInterrupts:
 2978              	.LVL231:
 2979              	.LFB168:
1203:Drivers/STM32H7xx_HAL_Driver/Src/stm32h7xx_ll_usb.c ****   uint32_t tmpreg;
 2980              		.loc 1 1203 1 is_stmt 1 view -0
 2981              		.cfi_startproc
 2982              		@ args = 0, pretend = 0, frame = 0
 2983              		@ frame_needed = 0, uses_anonymous_args = 0
 2984              		@ link register save eliminated.
ARM GAS  C:\Users\PgRick\AppData\Local\Temp\ccFebq6t.s 			page 94


1204:Drivers/STM32H7xx_HAL_Driver/Src/stm32h7xx_ll_usb.c **** 
 2985              		.loc 1 1204 3 view .LVU980
1206:Drivers/STM32H7xx_HAL_Driver/Src/stm32h7xx_ll_usb.c ****   tmpreg &= USBx->GINTMSK;
 2986              		.loc 1 1206 3 view .LVU981
1206:Drivers/STM32H7xx_HAL_Driver/Src/stm32h7xx_ll_usb.c ****   tmpreg &= USBx->GINTMSK;
 2987              		.loc 1 1206 10 is_stmt 0 view .LVU982
 2988 0000 4269     		ldr	r2, [r0, #20]
 2989              	.LVL232:
1207:Drivers/STM32H7xx_HAL_Driver/Src/stm32h7xx_ll_usb.c **** 
 2990              		.loc 1 1207 3 is_stmt 1 view .LVU983
1207:Drivers/STM32H7xx_HAL_Driver/Src/stm32h7xx_ll_usb.c **** 
 2991              		.loc 1 1207 17 is_stmt 0 view .LVU984
 2992 0002 8069     		ldr	r0, [r0, #24]
 2993              	.LVL233:
1209:Drivers/STM32H7xx_HAL_Driver/Src/stm32h7xx_ll_usb.c **** }
 2994              		.loc 1 1209 3 is_stmt 1 view .LVU985
1210:Drivers/STM32H7xx_HAL_Driver/Src/stm32h7xx_ll_usb.c **** 
 2995              		.loc 1 1210 1 is_stmt 0 view .LVU986
 2996 0004 1040     		ands	r0, r0, r2
 2997              	.LVL234:
1210:Drivers/STM32H7xx_HAL_Driver/Src/stm32h7xx_ll_usb.c **** 
 2998              		.loc 1 1210 1 view .LVU987
 2999 0006 7047     		bx	lr
 3000              		.cfi_endproc
 3001              	.LFE168:
 3003              		.section	.text.USB_ReadChInterrupts,"ax",%progbits
 3004              		.align	1
 3005              		.global	USB_ReadChInterrupts
 3006              		.syntax unified
 3007              		.thumb
 3008              		.thumb_func
 3010              	USB_ReadChInterrupts:
 3011              	.LVL235:
 3012              	.LFB169:
1219:Drivers/STM32H7xx_HAL_Driver/Src/stm32h7xx_ll_usb.c ****   uint32_t USBx_BASE = (uint32_t)USBx;
 3013              		.loc 1 1219 1 is_stmt 1 view -0
 3014              		.cfi_startproc
 3015              		@ args = 0, pretend = 0, frame = 0
 3016              		@ frame_needed = 0, uses_anonymous_args = 0
 3017              		@ link register save eliminated.
1220:Drivers/STM32H7xx_HAL_Driver/Src/stm32h7xx_ll_usb.c ****   uint32_t tmpreg;
 3018              		.loc 1 1220 3 view .LVU989
1221:Drivers/STM32H7xx_HAL_Driver/Src/stm32h7xx_ll_usb.c **** 
 3019              		.loc 1 1221 3 view .LVU990
1223:Drivers/STM32H7xx_HAL_Driver/Src/stm32h7xx_ll_usb.c ****   tmpreg &= USBx_HC(chnum)->HCINTMSK;
 3020              		.loc 1 1223 3 view .LVU991
1223:Drivers/STM32H7xx_HAL_Driver/Src/stm32h7xx_ll_usb.c ****   tmpreg &= USBx_HC(chnum)->HCINTMSK;
 3021              		.loc 1 1223 12 is_stmt 0 view .LVU992
 3022 0000 00EB4111 		add	r1, r0, r1, lsl #5
 3023              	.LVL236:
1223:Drivers/STM32H7xx_HAL_Driver/Src/stm32h7xx_ll_usb.c ****   tmpreg &= USBx_HC(chnum)->HCINTMSK;
 3024              		.loc 1 1223 10 view .LVU993
 3025 0004 D1F80805 		ldr	r0, [r1, #1288]
 3026              	.LVL237:
1224:Drivers/STM32H7xx_HAL_Driver/Src/stm32h7xx_ll_usb.c **** 
 3027              		.loc 1 1224 3 is_stmt 1 view .LVU994
1224:Drivers/STM32H7xx_HAL_Driver/Src/stm32h7xx_ll_usb.c **** 
ARM GAS  C:\Users\PgRick\AppData\Local\Temp\ccFebq6t.s 			page 95


 3028              		.loc 1 1224 27 is_stmt 0 view .LVU995
 3029 0008 D1F80C35 		ldr	r3, [r1, #1292]
 3030              	.LVL238:
1226:Drivers/STM32H7xx_HAL_Driver/Src/stm32h7xx_ll_usb.c **** }
 3031              		.loc 1 1226 3 is_stmt 1 view .LVU996
1227:Drivers/STM32H7xx_HAL_Driver/Src/stm32h7xx_ll_usb.c **** 
 3032              		.loc 1 1227 1 is_stmt 0 view .LVU997
 3033 000c 1840     		ands	r0, r0, r3
 3034              	.LVL239:
1227:Drivers/STM32H7xx_HAL_Driver/Src/stm32h7xx_ll_usb.c **** 
 3035              		.loc 1 1227 1 view .LVU998
 3036 000e 7047     		bx	lr
 3037              		.cfi_endproc
 3038              	.LFE169:
 3040              		.section	.text.USB_ReadDevAllOutEpInterrupt,"ax",%progbits
 3041              		.align	1
 3042              		.global	USB_ReadDevAllOutEpInterrupt
 3043              		.syntax unified
 3044              		.thumb
 3045              		.thumb_func
 3047              	USB_ReadDevAllOutEpInterrupt:
 3048              	.LVL240:
 3049              	.LFB170:
1235:Drivers/STM32H7xx_HAL_Driver/Src/stm32h7xx_ll_usb.c ****   uint32_t USBx_BASE = (uint32_t)USBx;
 3050              		.loc 1 1235 1 is_stmt 1 view -0
 3051              		.cfi_startproc
 3052              		@ args = 0, pretend = 0, frame = 0
 3053              		@ frame_needed = 0, uses_anonymous_args = 0
 3054              		@ link register save eliminated.
1236:Drivers/STM32H7xx_HAL_Driver/Src/stm32h7xx_ll_usb.c ****   uint32_t tmpreg;
 3055              		.loc 1 1236 3 view .LVU1000
1237:Drivers/STM32H7xx_HAL_Driver/Src/stm32h7xx_ll_usb.c **** 
 3056              		.loc 1 1237 3 view .LVU1001
1239:Drivers/STM32H7xx_HAL_Driver/Src/stm32h7xx_ll_usb.c ****   tmpreg &= USBx_DEVICE->DAINTMSK;
 3057              		.loc 1 1239 3 view .LVU1002
1239:Drivers/STM32H7xx_HAL_Driver/Src/stm32h7xx_ll_usb.c ****   tmpreg &= USBx_DEVICE->DAINTMSK;
 3058              		.loc 1 1239 11 is_stmt 0 view .LVU1003
 3059 0000 D0F81838 		ldr	r3, [r0, #2072]
1239:Drivers/STM32H7xx_HAL_Driver/Src/stm32h7xx_ll_usb.c ****   tmpreg &= USBx_DEVICE->DAINTMSK;
 3060              		.loc 1 1239 13 view .LVU1004
 3061 0004 00F50060 		add	r0, r0, #2048
 3062              	.LVL241:
1240:Drivers/STM32H7xx_HAL_Driver/Src/stm32h7xx_ll_usb.c **** 
 3063              		.loc 1 1240 3 is_stmt 1 view .LVU1005
1240:Drivers/STM32H7xx_HAL_Driver/Src/stm32h7xx_ll_usb.c **** 
 3064              		.loc 1 1240 24 is_stmt 0 view .LVU1006
 3065 0008 C069     		ldr	r0, [r0, #28]
 3066              	.LVL242:
1240:Drivers/STM32H7xx_HAL_Driver/Src/stm32h7xx_ll_usb.c **** 
 3067              		.loc 1 1240 10 view .LVU1007
 3068 000a 1840     		ands	r0, r0, r3
 3069              	.LVL243:
1242:Drivers/STM32H7xx_HAL_Driver/Src/stm32h7xx_ll_usb.c **** }
 3070              		.loc 1 1242 3 is_stmt 1 view .LVU1008
1243:Drivers/STM32H7xx_HAL_Driver/Src/stm32h7xx_ll_usb.c **** 
 3071              		.loc 1 1243 1 is_stmt 0 view .LVU1009
 3072 000c 000C     		lsrs	r0, r0, #16
ARM GAS  C:\Users\PgRick\AppData\Local\Temp\ccFebq6t.s 			page 96


 3073              	.LVL244:
1243:Drivers/STM32H7xx_HAL_Driver/Src/stm32h7xx_ll_usb.c **** 
 3074              		.loc 1 1243 1 view .LVU1010
 3075 000e 7047     		bx	lr
 3076              		.cfi_endproc
 3077              	.LFE170:
 3079              		.section	.text.USB_ReadDevAllInEpInterrupt,"ax",%progbits
 3080              		.align	1
 3081              		.global	USB_ReadDevAllInEpInterrupt
 3082              		.syntax unified
 3083              		.thumb
 3084              		.thumb_func
 3086              	USB_ReadDevAllInEpInterrupt:
 3087              	.LVL245:
 3088              	.LFB171:
1251:Drivers/STM32H7xx_HAL_Driver/Src/stm32h7xx_ll_usb.c ****   uint32_t USBx_BASE = (uint32_t)USBx;
 3089              		.loc 1 1251 1 is_stmt 1 view -0
 3090              		.cfi_startproc
 3091              		@ args = 0, pretend = 0, frame = 0
 3092              		@ frame_needed = 0, uses_anonymous_args = 0
 3093              		@ link register save eliminated.
1252:Drivers/STM32H7xx_HAL_Driver/Src/stm32h7xx_ll_usb.c ****   uint32_t tmpreg;
 3094              		.loc 1 1252 3 view .LVU1012
1253:Drivers/STM32H7xx_HAL_Driver/Src/stm32h7xx_ll_usb.c **** 
 3095              		.loc 1 1253 3 view .LVU1013
1255:Drivers/STM32H7xx_HAL_Driver/Src/stm32h7xx_ll_usb.c ****   tmpreg &= USBx_DEVICE->DAINTMSK;
 3096              		.loc 1 1255 3 view .LVU1014
1255:Drivers/STM32H7xx_HAL_Driver/Src/stm32h7xx_ll_usb.c ****   tmpreg &= USBx_DEVICE->DAINTMSK;
 3097              		.loc 1 1255 11 is_stmt 0 view .LVU1015
 3098 0000 D0F81838 		ldr	r3, [r0, #2072]
1255:Drivers/STM32H7xx_HAL_Driver/Src/stm32h7xx_ll_usb.c ****   tmpreg &= USBx_DEVICE->DAINTMSK;
 3099              		.loc 1 1255 13 view .LVU1016
 3100 0004 00F50060 		add	r0, r0, #2048
 3101              	.LVL246:
1256:Drivers/STM32H7xx_HAL_Driver/Src/stm32h7xx_ll_usb.c **** 
 3102              		.loc 1 1256 3 is_stmt 1 view .LVU1017
1256:Drivers/STM32H7xx_HAL_Driver/Src/stm32h7xx_ll_usb.c **** 
 3103              		.loc 1 1256 24 is_stmt 0 view .LVU1018
 3104 0008 C069     		ldr	r0, [r0, #28]
 3105              	.LVL247:
1256:Drivers/STM32H7xx_HAL_Driver/Src/stm32h7xx_ll_usb.c **** 
 3106              		.loc 1 1256 10 view .LVU1019
 3107 000a 1840     		ands	r0, r0, r3
 3108              	.LVL248:
1258:Drivers/STM32H7xx_HAL_Driver/Src/stm32h7xx_ll_usb.c **** }
 3109              		.loc 1 1258 3 is_stmt 1 view .LVU1020
1259:Drivers/STM32H7xx_HAL_Driver/Src/stm32h7xx_ll_usb.c **** 
 3110              		.loc 1 1259 1 is_stmt 0 view .LVU1021
 3111 000c 80B2     		uxth	r0, r0
 3112              	.LVL249:
1259:Drivers/STM32H7xx_HAL_Driver/Src/stm32h7xx_ll_usb.c **** 
 3113              		.loc 1 1259 1 view .LVU1022
 3114 000e 7047     		bx	lr
 3115              		.cfi_endproc
 3116              	.LFE171:
 3118              		.section	.text.USB_ReadDevOutEPInterrupt,"ax",%progbits
 3119              		.align	1
ARM GAS  C:\Users\PgRick\AppData\Local\Temp\ccFebq6t.s 			page 97


 3120              		.global	USB_ReadDevOutEPInterrupt
 3121              		.syntax unified
 3122              		.thumb
 3123              		.thumb_func
 3125              	USB_ReadDevOutEPInterrupt:
 3126              	.LVL250:
 3127              	.LFB172:
1269:Drivers/STM32H7xx_HAL_Driver/Src/stm32h7xx_ll_usb.c ****   uint32_t USBx_BASE = (uint32_t)USBx;
 3128              		.loc 1 1269 1 is_stmt 1 view -0
 3129              		.cfi_startproc
 3130              		@ args = 0, pretend = 0, frame = 0
 3131              		@ frame_needed = 0, uses_anonymous_args = 0
 3132              		@ link register save eliminated.
1270:Drivers/STM32H7xx_HAL_Driver/Src/stm32h7xx_ll_usb.c ****   uint32_t tmpreg;
 3133              		.loc 1 1270 3 view .LVU1024
1271:Drivers/STM32H7xx_HAL_Driver/Src/stm32h7xx_ll_usb.c **** 
 3134              		.loc 1 1271 3 view .LVU1025
1273:Drivers/STM32H7xx_HAL_Driver/Src/stm32h7xx_ll_usb.c ****   tmpreg &= USBx_DEVICE->DOEPMSK;
 3135              		.loc 1 1273 3 view .LVU1026
1273:Drivers/STM32H7xx_HAL_Driver/Src/stm32h7xx_ll_usb.c ****   tmpreg &= USBx_DEVICE->DOEPMSK;
 3136              		.loc 1 1273 13 is_stmt 0 view .LVU1027
 3137 0000 00EB4111 		add	r1, r0, r1, lsl #5
 3138              	.LVL251:
1273:Drivers/STM32H7xx_HAL_Driver/Src/stm32h7xx_ll_usb.c ****   tmpreg &= USBx_DEVICE->DOEPMSK;
 3139              		.loc 1 1273 11 view .LVU1028
 3140 0004 D1F8082B 		ldr	r2, [r1, #2824]
 3141              	.LVL252:
1274:Drivers/STM32H7xx_HAL_Driver/Src/stm32h7xx_ll_usb.c **** 
 3142              		.loc 1 1274 3 is_stmt 1 view .LVU1029
1274:Drivers/STM32H7xx_HAL_Driver/Src/stm32h7xx_ll_usb.c **** 
 3143              		.loc 1 1274 13 is_stmt 0 view .LVU1030
 3144 0008 00F50060 		add	r0, r0, #2048
 3145              	.LVL253:
1274:Drivers/STM32H7xx_HAL_Driver/Src/stm32h7xx_ll_usb.c **** 
 3146              		.loc 1 1274 24 view .LVU1031
 3147 000c 4069     		ldr	r0, [r0, #20]
 3148              	.LVL254:
1276:Drivers/STM32H7xx_HAL_Driver/Src/stm32h7xx_ll_usb.c **** }
 3149              		.loc 1 1276 3 is_stmt 1 view .LVU1032
1277:Drivers/STM32H7xx_HAL_Driver/Src/stm32h7xx_ll_usb.c **** 
 3150              		.loc 1 1277 1 is_stmt 0 view .LVU1033
 3151 000e 1040     		ands	r0, r0, r2
 3152              	.LVL255:
1277:Drivers/STM32H7xx_HAL_Driver/Src/stm32h7xx_ll_usb.c **** 
 3153              		.loc 1 1277 1 view .LVU1034
 3154 0010 7047     		bx	lr
 3155              		.cfi_endproc
 3156              	.LFE172:
 3158              		.section	.text.USB_ReadDevInEPInterrupt,"ax",%progbits
 3159              		.align	1
 3160              		.global	USB_ReadDevInEPInterrupt
 3161              		.syntax unified
 3162              		.thumb
 3163              		.thumb_func
 3165              	USB_ReadDevInEPInterrupt:
 3166              	.LVL256:
 3167              	.LFB173:
ARM GAS  C:\Users\PgRick\AppData\Local\Temp\ccFebq6t.s 			page 98


1287:Drivers/STM32H7xx_HAL_Driver/Src/stm32h7xx_ll_usb.c ****   uint32_t USBx_BASE = (uint32_t)USBx;
 3168              		.loc 1 1287 1 is_stmt 1 view -0
 3169              		.cfi_startproc
 3170              		@ args = 0, pretend = 0, frame = 0
 3171              		@ frame_needed = 0, uses_anonymous_args = 0
 3172              		@ link register save eliminated.
1287:Drivers/STM32H7xx_HAL_Driver/Src/stm32h7xx_ll_usb.c ****   uint32_t USBx_BASE = (uint32_t)USBx;
 3173              		.loc 1 1287 1 is_stmt 0 view .LVU1036
 3174 0000 10B4     		push	{r4}
 3175              	.LCFI40:
 3176              		.cfi_def_cfa_offset 4
 3177              		.cfi_offset 4, -4
1288:Drivers/STM32H7xx_HAL_Driver/Src/stm32h7xx_ll_usb.c ****   uint32_t tmpreg;
 3178              		.loc 1 1288 3 is_stmt 1 view .LVU1037
 3179              	.LVL257:
1289:Drivers/STM32H7xx_HAL_Driver/Src/stm32h7xx_ll_usb.c ****   uint32_t msk;
 3180              		.loc 1 1289 3 view .LVU1038
1290:Drivers/STM32H7xx_HAL_Driver/Src/stm32h7xx_ll_usb.c ****   uint32_t emp;
 3181              		.loc 1 1290 3 view .LVU1039
1291:Drivers/STM32H7xx_HAL_Driver/Src/stm32h7xx_ll_usb.c **** 
 3182              		.loc 1 1291 3 view .LVU1040
1293:Drivers/STM32H7xx_HAL_Driver/Src/stm32h7xx_ll_usb.c ****   emp = USBx_DEVICE->DIEPEMPMSK;
 3183              		.loc 1 1293 3 view .LVU1041
1293:Drivers/STM32H7xx_HAL_Driver/Src/stm32h7xx_ll_usb.c ****   emp = USBx_DEVICE->DIEPEMPMSK;
 3184              		.loc 1 1293 7 is_stmt 0 view .LVU1042
 3185 0002 D0F81048 		ldr	r4, [r0, #2064]
 3186              	.LVL258:
1294:Drivers/STM32H7xx_HAL_Driver/Src/stm32h7xx_ll_usb.c ****   msk |= ((emp >> (epnum & EP_ADDR_MSK)) & 0x1U) << 7;
 3187              		.loc 1 1294 3 is_stmt 1 view .LVU1043
1294:Drivers/STM32H7xx_HAL_Driver/Src/stm32h7xx_ll_usb.c ****   msk |= ((emp >> (epnum & EP_ADDR_MSK)) & 0x1U) << 7;
 3188              		.loc 1 1294 7 is_stmt 0 view .LVU1044
 3189 0006 D0F83438 		ldr	r3, [r0, #2100]
 3190              	.LVL259:
1295:Drivers/STM32H7xx_HAL_Driver/Src/stm32h7xx_ll_usb.c ****   tmpreg = USBx_INEP((uint32_t)epnum)->DIEPINT & msk;
 3191              		.loc 1 1295 3 is_stmt 1 view .LVU1045
1295:Drivers/STM32H7xx_HAL_Driver/Src/stm32h7xx_ll_usb.c ****   tmpreg = USBx_INEP((uint32_t)epnum)->DIEPINT & msk;
 3192              		.loc 1 1295 26 is_stmt 0 view .LVU1046
 3193 000a 01F00F02 		and	r2, r1, #15
1295:Drivers/STM32H7xx_HAL_Driver/Src/stm32h7xx_ll_usb.c ****   tmpreg = USBx_INEP((uint32_t)epnum)->DIEPINT & msk;
 3194              		.loc 1 1295 16 view .LVU1047
 3195 000e D340     		lsrs	r3, r3, r2
 3196              	.LVL260:
1295:Drivers/STM32H7xx_HAL_Driver/Src/stm32h7xx_ll_usb.c ****   tmpreg = USBx_INEP((uint32_t)epnum)->DIEPINT & msk;
 3197              		.loc 1 1295 50 view .LVU1048
 3198 0010 DB01     		lsls	r3, r3, #7
 3199 0012 DBB2     		uxtb	r3, r3
1295:Drivers/STM32H7xx_HAL_Driver/Src/stm32h7xx_ll_usb.c ****   tmpreg = USBx_INEP((uint32_t)epnum)->DIEPINT & msk;
 3200              		.loc 1 1295 7 view .LVU1049
 3201 0014 2343     		orrs	r3, r3, r4
 3202              	.LVL261:
1296:Drivers/STM32H7xx_HAL_Driver/Src/stm32h7xx_ll_usb.c **** 
 3203              		.loc 1 1296 3 is_stmt 1 view .LVU1050
1296:Drivers/STM32H7xx_HAL_Driver/Src/stm32h7xx_ll_usb.c **** 
 3204              		.loc 1 1296 12 is_stmt 0 view .LVU1051
 3205 0016 00EB4110 		add	r0, r0, r1, lsl #5
 3206              	.LVL262:
1296:Drivers/STM32H7xx_HAL_Driver/Src/stm32h7xx_ll_usb.c **** 
ARM GAS  C:\Users\PgRick\AppData\Local\Temp\ccFebq6t.s 			page 99


 3207              		.loc 1 1296 12 view .LVU1052
 3208 001a 00F51060 		add	r0, r0, #2304
1296:Drivers/STM32H7xx_HAL_Driver/Src/stm32h7xx_ll_usb.c **** 
 3209              		.loc 1 1296 38 view .LVU1053
 3210 001e 8068     		ldr	r0, [r0, #8]
 3211              	.LVL263:
1298:Drivers/STM32H7xx_HAL_Driver/Src/stm32h7xx_ll_usb.c **** }
 3212              		.loc 1 1298 3 is_stmt 1 view .LVU1054
1299:Drivers/STM32H7xx_HAL_Driver/Src/stm32h7xx_ll_usb.c **** 
 3213              		.loc 1 1299 1 is_stmt 0 view .LVU1055
 3214 0020 1840     		ands	r0, r0, r3
 3215              	.LVL264:
1299:Drivers/STM32H7xx_HAL_Driver/Src/stm32h7xx_ll_usb.c **** 
 3216              		.loc 1 1299 1 view .LVU1056
 3217 0022 5DF8044B 		ldr	r4, [sp], #4
 3218              	.LCFI41:
 3219              		.cfi_restore 4
 3220              		.cfi_def_cfa_offset 0
 3221 0026 7047     		bx	lr
 3222              		.cfi_endproc
 3223              	.LFE173:
 3225              		.section	.text.USB_ClearInterrupts,"ax",%progbits
 3226              		.align	1
 3227              		.global	USB_ClearInterrupts
 3228              		.syntax unified
 3229              		.thumb
 3230              		.thumb_func
 3232              	USB_ClearInterrupts:
 3233              	.LVL265:
 3234              	.LFB174:
1308:Drivers/STM32H7xx_HAL_Driver/Src/stm32h7xx_ll_usb.c ****   USBx->GINTSTS &= interrupt;
 3235              		.loc 1 1308 1 is_stmt 1 view -0
 3236              		.cfi_startproc
 3237              		@ args = 0, pretend = 0, frame = 0
 3238              		@ frame_needed = 0, uses_anonymous_args = 0
 3239              		@ link register save eliminated.
1309:Drivers/STM32H7xx_HAL_Driver/Src/stm32h7xx_ll_usb.c **** }
 3240              		.loc 1 1309 3 view .LVU1058
1309:Drivers/STM32H7xx_HAL_Driver/Src/stm32h7xx_ll_usb.c **** }
 3241              		.loc 1 1309 17 is_stmt 0 view .LVU1059
 3242 0000 4369     		ldr	r3, [r0, #20]
 3243 0002 0B40     		ands	r3, r3, r1
 3244 0004 4361     		str	r3, [r0, #20]
1310:Drivers/STM32H7xx_HAL_Driver/Src/stm32h7xx_ll_usb.c **** 
 3245              		.loc 1 1310 1 view .LVU1060
 3246 0006 7047     		bx	lr
 3247              		.cfi_endproc
 3248              	.LFE174:
 3250              		.section	.text.USB_GetMode,"ax",%progbits
 3251              		.align	1
 3252              		.global	USB_GetMode
 3253              		.syntax unified
 3254              		.thumb
 3255              		.thumb_func
 3257              	USB_GetMode:
 3258              	.LVL266:
 3259              	.LFB175:
ARM GAS  C:\Users\PgRick\AppData\Local\Temp\ccFebq6t.s 			page 100


1321:Drivers/STM32H7xx_HAL_Driver/Src/stm32h7xx_ll_usb.c ****   return ((USBx->GINTSTS) & 0x1U);
 3260              		.loc 1 1321 1 is_stmt 1 view -0
 3261              		.cfi_startproc
 3262              		@ args = 0, pretend = 0, frame = 0
 3263              		@ frame_needed = 0, uses_anonymous_args = 0
 3264              		@ link register save eliminated.
1322:Drivers/STM32H7xx_HAL_Driver/Src/stm32h7xx_ll_usb.c **** }
 3265              		.loc 1 1322 3 view .LVU1062
1322:Drivers/STM32H7xx_HAL_Driver/Src/stm32h7xx_ll_usb.c **** }
 3266              		.loc 1 1322 16 is_stmt 0 view .LVU1063
 3267 0000 4069     		ldr	r0, [r0, #20]
 3268              	.LVL267:
1323:Drivers/STM32H7xx_HAL_Driver/Src/stm32h7xx_ll_usb.c **** 
 3269              		.loc 1 1323 1 view .LVU1064
 3270 0002 00F00100 		and	r0, r0, #1
 3271 0006 7047     		bx	lr
 3272              		.cfi_endproc
 3273              	.LFE175:
 3275              		.section	.text.USB_SetCurrentMode,"ax",%progbits
 3276              		.align	1
 3277              		.global	USB_SetCurrentMode
 3278              		.syntax unified
 3279              		.thumb
 3280              		.thumb_func
 3282              	USB_SetCurrentMode:
 3283              	.LVL268:
 3284              	.LFB148:
 254:Drivers/STM32H7xx_HAL_Driver/Src/stm32h7xx_ll_usb.c ****   uint32_t ms = 0U;
 3285              		.loc 1 254 1 is_stmt 1 view -0
 3286              		.cfi_startproc
 3287              		@ args = 0, pretend = 0, frame = 0
 3288              		@ frame_needed = 0, uses_anonymous_args = 0
 254:Drivers/STM32H7xx_HAL_Driver/Src/stm32h7xx_ll_usb.c ****   uint32_t ms = 0U;
 3289              		.loc 1 254 1 is_stmt 0 view .LVU1066
 3290 0000 38B5     		push	{r3, r4, r5, lr}
 3291              	.LCFI42:
 3292              		.cfi_def_cfa_offset 16
 3293              		.cfi_offset 3, -16
 3294              		.cfi_offset 4, -12
 3295              		.cfi_offset 5, -8
 3296              		.cfi_offset 14, -4
 3297 0002 0546     		mov	r5, r0
 255:Drivers/STM32H7xx_HAL_Driver/Src/stm32h7xx_ll_usb.c **** 
 3298              		.loc 1 255 3 is_stmt 1 view .LVU1067
 3299              	.LVL269:
 257:Drivers/STM32H7xx_HAL_Driver/Src/stm32h7xx_ll_usb.c **** 
 3300              		.loc 1 257 3 view .LVU1068
 257:Drivers/STM32H7xx_HAL_Driver/Src/stm32h7xx_ll_usb.c **** 
 3301              		.loc 1 257 17 is_stmt 0 view .LVU1069
 3302 0004 C368     		ldr	r3, [r0, #12]
 3303 0006 23F0C043 		bic	r3, r3, #1610612736
 3304 000a C360     		str	r3, [r0, #12]
 259:Drivers/STM32H7xx_HAL_Driver/Src/stm32h7xx_ll_usb.c ****   {
 3305              		.loc 1 259 3 is_stmt 1 view .LVU1070
 259:Drivers/STM32H7xx_HAL_Driver/Src/stm32h7xx_ll_usb.c ****   {
 3306              		.loc 1 259 6 is_stmt 0 view .LVU1071
 3307 000c 0129     		cmp	r1, #1
ARM GAS  C:\Users\PgRick\AppData\Local\Temp\ccFebq6t.s 			page 101


 3308 000e 13D0     		beq	.L215
 269:Drivers/STM32H7xx_HAL_Driver/Src/stm32h7xx_ll_usb.c ****   {
 3309              		.loc 1 269 8 is_stmt 1 view .LVU1072
 269:Drivers/STM32H7xx_HAL_Driver/Src/stm32h7xx_ll_usb.c ****   {
 3310              		.loc 1 269 11 is_stmt 0 view .LVU1073
 3311 0010 19BB     		cbnz	r1, .L212
 271:Drivers/STM32H7xx_HAL_Driver/Src/stm32h7xx_ll_usb.c **** 
 3312              		.loc 1 271 5 is_stmt 1 view .LVU1074
 271:Drivers/STM32H7xx_HAL_Driver/Src/stm32h7xx_ll_usb.c **** 
 3313              		.loc 1 271 19 is_stmt 0 view .LVU1075
 3314 0012 C368     		ldr	r3, [r0, #12]
 3315 0014 43F08043 		orr	r3, r3, #1073741824
 3316 0018 C360     		str	r3, [r0, #12]
 255:Drivers/STM32H7xx_HAL_Driver/Src/stm32h7xx_ll_usb.c **** 
 3317              		.loc 1 255 12 view .LVU1076
 3318 001a 0024     		movs	r4, #0
 3319              	.LVL270:
 3320              	.L211:
 273:Drivers/STM32H7xx_HAL_Driver/Src/stm32h7xx_ll_usb.c ****     {
 3321              		.loc 1 273 5 is_stmt 1 discriminator 2 view .LVU1077
 275:Drivers/STM32H7xx_HAL_Driver/Src/stm32h7xx_ll_usb.c ****       ms += 10U;
 3322              		.loc 1 275 7 discriminator 2 view .LVU1078
 3323 001c 0A20     		movs	r0, #10
 3324 001e FFF7FEFF 		bl	HAL_Delay
 3325              	.LVL271:
 276:Drivers/STM32H7xx_HAL_Driver/Src/stm32h7xx_ll_usb.c ****     } while ((USB_GetMode(USBx) != (uint32_t)USB_DEVICE_MODE) && (ms < HAL_USB_CURRENT_MODE_MAX_DEL
 3326              		.loc 1 276 7 discriminator 2 view .LVU1079
 276:Drivers/STM32H7xx_HAL_Driver/Src/stm32h7xx_ll_usb.c ****     } while ((USB_GetMode(USBx) != (uint32_t)USB_DEVICE_MODE) && (ms < HAL_USB_CURRENT_MODE_MAX_DEL
 3327              		.loc 1 276 10 is_stmt 0 discriminator 2 view .LVU1080
 3328 0022 0A34     		adds	r4, r4, #10
 3329              	.LVL272:
 277:Drivers/STM32H7xx_HAL_Driver/Src/stm32h7xx_ll_usb.c ****   }
 3330              		.loc 1 277 13 is_stmt 1 discriminator 2 view .LVU1081
 277:Drivers/STM32H7xx_HAL_Driver/Src/stm32h7xx_ll_usb.c ****   }
 3331              		.loc 1 277 15 is_stmt 0 discriminator 2 view .LVU1082
 3332 0024 2846     		mov	r0, r5
 3333 0026 FFF7FEFF 		bl	USB_GetMode
 3334              	.LVL273:
 277:Drivers/STM32H7xx_HAL_Driver/Src/stm32h7xx_ll_usb.c ****   }
 3335              		.loc 1 277 5 discriminator 2 view .LVU1083
 3336 002a 08B1     		cbz	r0, .L208
 277:Drivers/STM32H7xx_HAL_Driver/Src/stm32h7xx_ll_usb.c ****   }
 3337              		.loc 1 277 63 discriminator 1 view .LVU1084
 3338 002c C72C     		cmp	r4, #199
 3339 002e F5D9     		bls	.L211
 3340              	.L208:
 284:Drivers/STM32H7xx_HAL_Driver/Src/stm32h7xx_ll_usb.c ****   {
 3341              		.loc 1 284 3 is_stmt 1 view .LVU1085
 284:Drivers/STM32H7xx_HAL_Driver/Src/stm32h7xx_ll_usb.c ****   {
 3342              		.loc 1 284 6 is_stmt 0 view .LVU1086
 3343 0030 C82C     		cmp	r4, #200
 3344 0032 14D0     		beq	.L213
 289:Drivers/STM32H7xx_HAL_Driver/Src/stm32h7xx_ll_usb.c **** }
 3345              		.loc 1 289 10 view .LVU1087
 3346 0034 0020     		movs	r0, #0
 3347              	.LVL274:
 3348              	.L210:
ARM GAS  C:\Users\PgRick\AppData\Local\Temp\ccFebq6t.s 			page 102


 290:Drivers/STM32H7xx_HAL_Driver/Src/stm32h7xx_ll_usb.c **** 
 3349              		.loc 1 290 1 view .LVU1088
 3350 0036 38BD     		pop	{r3, r4, r5, pc}
 3351              	.LVL275:
 3352              	.L215:
 261:Drivers/STM32H7xx_HAL_Driver/Src/stm32h7xx_ll_usb.c **** 
 3353              		.loc 1 261 5 is_stmt 1 view .LVU1089
 261:Drivers/STM32H7xx_HAL_Driver/Src/stm32h7xx_ll_usb.c **** 
 3354              		.loc 1 261 19 is_stmt 0 view .LVU1090
 3355 0038 C368     		ldr	r3, [r0, #12]
 3356 003a 43F00053 		orr	r3, r3, #536870912
 3357 003e C360     		str	r3, [r0, #12]
 255:Drivers/STM32H7xx_HAL_Driver/Src/stm32h7xx_ll_usb.c **** 
 3358              		.loc 1 255 12 view .LVU1091
 3359 0040 0024     		movs	r4, #0
 3360              	.LVL276:
 3361              	.L209:
 263:Drivers/STM32H7xx_HAL_Driver/Src/stm32h7xx_ll_usb.c ****     {
 3362              		.loc 1 263 5 is_stmt 1 discriminator 2 view .LVU1092
 265:Drivers/STM32H7xx_HAL_Driver/Src/stm32h7xx_ll_usb.c ****       ms += 10U;
 3363              		.loc 1 265 7 discriminator 2 view .LVU1093
 3364 0042 0A20     		movs	r0, #10
 3365 0044 FFF7FEFF 		bl	HAL_Delay
 3366              	.LVL277:
 266:Drivers/STM32H7xx_HAL_Driver/Src/stm32h7xx_ll_usb.c ****     } while ((USB_GetMode(USBx) != (uint32_t)USB_HOST_MODE) && (ms < HAL_USB_CURRENT_MODE_MAX_DELAY
 3367              		.loc 1 266 7 discriminator 2 view .LVU1094
 266:Drivers/STM32H7xx_HAL_Driver/Src/stm32h7xx_ll_usb.c ****     } while ((USB_GetMode(USBx) != (uint32_t)USB_HOST_MODE) && (ms < HAL_USB_CURRENT_MODE_MAX_DELAY
 3368              		.loc 1 266 10 is_stmt 0 discriminator 2 view .LVU1095
 3369 0048 0A34     		adds	r4, r4, #10
 3370              	.LVL278:
 267:Drivers/STM32H7xx_HAL_Driver/Src/stm32h7xx_ll_usb.c ****   }
 3371              		.loc 1 267 13 is_stmt 1 discriminator 2 view .LVU1096
 267:Drivers/STM32H7xx_HAL_Driver/Src/stm32h7xx_ll_usb.c ****   }
 3372              		.loc 1 267 15 is_stmt 0 discriminator 2 view .LVU1097
 3373 004a 2846     		mov	r0, r5
 3374 004c FFF7FEFF 		bl	USB_GetMode
 3375              	.LVL279:
 267:Drivers/STM32H7xx_HAL_Driver/Src/stm32h7xx_ll_usb.c ****   }
 3376              		.loc 1 267 5 discriminator 2 view .LVU1098
 3377 0050 0128     		cmp	r0, #1
 3378 0052 EDD0     		beq	.L208
 267:Drivers/STM32H7xx_HAL_Driver/Src/stm32h7xx_ll_usb.c ****   }
 3379              		.loc 1 267 61 discriminator 1 view .LVU1099
 3380 0054 C72C     		cmp	r4, #199
 3381 0056 F4D9     		bls	.L209
 3382 0058 EAE7     		b	.L208
 3383              	.LVL280:
 3384              	.L212:
 281:Drivers/STM32H7xx_HAL_Driver/Src/stm32h7xx_ll_usb.c ****   }
 3385              		.loc 1 281 12 view .LVU1100
 3386 005a 0120     		movs	r0, #1
 3387              	.LVL281:
 281:Drivers/STM32H7xx_HAL_Driver/Src/stm32h7xx_ll_usb.c ****   }
 3388              		.loc 1 281 12 view .LVU1101
 3389 005c EBE7     		b	.L210
 3390              	.LVL282:
 3391              	.L213:
ARM GAS  C:\Users\PgRick\AppData\Local\Temp\ccFebq6t.s 			page 103


 286:Drivers/STM32H7xx_HAL_Driver/Src/stm32h7xx_ll_usb.c ****   }
 3392              		.loc 1 286 12 view .LVU1102
 3393 005e 0120     		movs	r0, #1
 3394 0060 E9E7     		b	.L210
 3395              		.cfi_endproc
 3396              	.LFE148:
 3398              		.section	.text.USB_ActivateSetup,"ax",%progbits
 3399              		.align	1
 3400              		.global	USB_ActivateSetup
 3401              		.syntax unified
 3402              		.thumb
 3403              		.thumb_func
 3405              	USB_ActivateSetup:
 3406              	.LVL283:
 3407              	.LFB176:
1331:Drivers/STM32H7xx_HAL_Driver/Src/stm32h7xx_ll_usb.c ****   uint32_t USBx_BASE = (uint32_t)USBx;
 3408              		.loc 1 1331 1 is_stmt 1 view -0
 3409              		.cfi_startproc
 3410              		@ args = 0, pretend = 0, frame = 0
 3411              		@ frame_needed = 0, uses_anonymous_args = 0
 3412              		@ link register save eliminated.
1332:Drivers/STM32H7xx_HAL_Driver/Src/stm32h7xx_ll_usb.c **** 
 3413              		.loc 1 1332 3 view .LVU1104
1335:Drivers/STM32H7xx_HAL_Driver/Src/stm32h7xx_ll_usb.c **** 
 3414              		.loc 1 1335 3 view .LVU1105
1335:Drivers/STM32H7xx_HAL_Driver/Src/stm32h7xx_ll_usb.c **** 
 3415              		.loc 1 1335 26 is_stmt 0 view .LVU1106
 3416 0000 D0F80029 		ldr	r2, [r0, #2304]
 3417 0004 054B     		ldr	r3, .L217
 3418 0006 1340     		ands	r3, r3, r2
 3419 0008 C0F80039 		str	r3, [r0, #2304]
1337:Drivers/STM32H7xx_HAL_Driver/Src/stm32h7xx_ll_usb.c **** 
 3420              		.loc 1 1337 3 is_stmt 1 view .LVU1107
1337:Drivers/STM32H7xx_HAL_Driver/Src/stm32h7xx_ll_usb.c **** 
 3421              		.loc 1 1337 21 is_stmt 0 view .LVU1108
 3422 000c D0F80438 		ldr	r3, [r0, #2052]
 3423 0010 43F48073 		orr	r3, r3, #256
 3424 0014 C0F80438 		str	r3, [r0, #2052]
1339:Drivers/STM32H7xx_HAL_Driver/Src/stm32h7xx_ll_usb.c **** }
 3425              		.loc 1 1339 3 is_stmt 1 view .LVU1109
1340:Drivers/STM32H7xx_HAL_Driver/Src/stm32h7xx_ll_usb.c **** 
 3426              		.loc 1 1340 1 is_stmt 0 view .LVU1110
 3427 0018 0020     		movs	r0, #0
 3428              	.LVL284:
1340:Drivers/STM32H7xx_HAL_Driver/Src/stm32h7xx_ll_usb.c **** 
 3429              		.loc 1 1340 1 view .LVU1111
 3430 001a 7047     		bx	lr
 3431              	.L218:
 3432              		.align	2
 3433              	.L217:
 3434 001c 00F8FFFF 		.word	-2048
 3435              		.cfi_endproc
 3436              	.LFE176:
 3438              		.section	.text.USB_EP0_OutStart,"ax",%progbits
 3439              		.align	1
 3440              		.global	USB_EP0_OutStart
 3441              		.syntax unified
ARM GAS  C:\Users\PgRick\AppData\Local\Temp\ccFebq6t.s 			page 104


 3442              		.thumb
 3443              		.thumb_func
 3445              	USB_EP0_OutStart:
 3446              	.LVL285:
 3447              	.LFB177:
1353:Drivers/STM32H7xx_HAL_Driver/Src/stm32h7xx_ll_usb.c ****   uint32_t USBx_BASE = (uint32_t)USBx;
 3448              		.loc 1 1353 1 is_stmt 1 view -0
 3449              		.cfi_startproc
 3450              		@ args = 0, pretend = 0, frame = 0
 3451              		@ frame_needed = 0, uses_anonymous_args = 0
 3452              		@ link register save eliminated.
1353:Drivers/STM32H7xx_HAL_Driver/Src/stm32h7xx_ll_usb.c ****   uint32_t USBx_BASE = (uint32_t)USBx;
 3453              		.loc 1 1353 1 is_stmt 0 view .LVU1113
 3454 0000 10B4     		push	{r4}
 3455              	.LCFI43:
 3456              		.cfi_def_cfa_offset 4
 3457              		.cfi_offset 4, -4
1354:Drivers/STM32H7xx_HAL_Driver/Src/stm32h7xx_ll_usb.c ****   uint32_t gSNPSiD = *(__IO const uint32_t *)(&USBx->CID + 0x1U);
 3458              		.loc 1 1354 3 is_stmt 1 view .LVU1114
 3459              	.LVL286:
1355:Drivers/STM32H7xx_HAL_Driver/Src/stm32h7xx_ll_usb.c **** 
 3460              		.loc 1 1355 3 view .LVU1115
1355:Drivers/STM32H7xx_HAL_Driver/Src/stm32h7xx_ll_usb.c **** 
 3461              		.loc 1 1355 12 is_stmt 0 view .LVU1116
 3462 0002 046C     		ldr	r4, [r0, #64]
 3463              	.LVL287:
1357:Drivers/STM32H7xx_HAL_Driver/Src/stm32h7xx_ll_usb.c ****   {
 3464              		.loc 1 1357 3 is_stmt 1 view .LVU1117
1357:Drivers/STM32H7xx_HAL_Driver/Src/stm32h7xx_ll_usb.c ****   {
 3465              		.loc 1 1357 6 is_stmt 0 view .LVU1118
 3466 0004 154B     		ldr	r3, .L224
 3467 0006 9C42     		cmp	r4, r3
 3468 0008 03D9     		bls	.L220
1359:Drivers/STM32H7xx_HAL_Driver/Src/stm32h7xx_ll_usb.c ****     {
 3469              		.loc 1 1359 5 is_stmt 1 view .LVU1119
1359:Drivers/STM32H7xx_HAL_Driver/Src/stm32h7xx_ll_usb.c ****     {
 3470              		.loc 1 1359 24 is_stmt 0 view .LVU1120
 3471 000a D0F8003B 		ldr	r3, [r0, #2816]
1359:Drivers/STM32H7xx_HAL_Driver/Src/stm32h7xx_ll_usb.c ****     {
 3472              		.loc 1 1359 8 view .LVU1121
 3473 000e 002B     		cmp	r3, #0
 3474 0010 16DB     		blt	.L221
 3475              	.L220:
1365:Drivers/STM32H7xx_HAL_Driver/Src/stm32h7xx_ll_usb.c ****   USBx_OUTEP(0U)->DOEPTSIZ |= (USB_OTG_DOEPTSIZ_PKTCNT & (1U << 19));
 3476              		.loc 1 1365 3 is_stmt 1 view .LVU1122
1365:Drivers/STM32H7xx_HAL_Driver/Src/stm32h7xx_ll_usb.c ****   USBx_OUTEP(0U)->DOEPTSIZ |= (USB_OTG_DOEPTSIZ_PKTCNT & (1U << 19));
 3477              		.loc 1 1365 28 is_stmt 0 view .LVU1123
 3478 0012 0024     		movs	r4, #0
 3479              	.LVL288:
1365:Drivers/STM32H7xx_HAL_Driver/Src/stm32h7xx_ll_usb.c ****   USBx_OUTEP(0U)->DOEPTSIZ |= (USB_OTG_DOEPTSIZ_PKTCNT & (1U << 19));
 3480              		.loc 1 1365 28 view .LVU1124
 3481 0014 C0F8104B 		str	r4, [r0, #2832]
1366:Drivers/STM32H7xx_HAL_Driver/Src/stm32h7xx_ll_usb.c ****   USBx_OUTEP(0U)->DOEPTSIZ |= (3U * 8U);
 3482              		.loc 1 1366 3 is_stmt 1 view .LVU1125
1366:Drivers/STM32H7xx_HAL_Driver/Src/stm32h7xx_ll_usb.c ****   USBx_OUTEP(0U)->DOEPTSIZ |= (3U * 8U);
 3483              		.loc 1 1366 28 is_stmt 0 view .LVU1126
 3484 0018 D0F8104B 		ldr	r4, [r0, #2832]
ARM GAS  C:\Users\PgRick\AppData\Local\Temp\ccFebq6t.s 			page 105


 3485 001c 44F40024 		orr	r4, r4, #524288
 3486 0020 C0F8104B 		str	r4, [r0, #2832]
1367:Drivers/STM32H7xx_HAL_Driver/Src/stm32h7xx_ll_usb.c ****   USBx_OUTEP(0U)->DOEPTSIZ |=  USB_OTG_DOEPTSIZ_STUPCNT;
 3487              		.loc 1 1367 3 is_stmt 1 view .LVU1127
1367:Drivers/STM32H7xx_HAL_Driver/Src/stm32h7xx_ll_usb.c ****   USBx_OUTEP(0U)->DOEPTSIZ |=  USB_OTG_DOEPTSIZ_STUPCNT;
 3488              		.loc 1 1367 28 is_stmt 0 view .LVU1128
 3489 0024 D0F8104B 		ldr	r4, [r0, #2832]
 3490 0028 44F01804 		orr	r4, r4, #24
 3491 002c C0F8104B 		str	r4, [r0, #2832]
1368:Drivers/STM32H7xx_HAL_Driver/Src/stm32h7xx_ll_usb.c **** 
 3492              		.loc 1 1368 3 is_stmt 1 view .LVU1129
1368:Drivers/STM32H7xx_HAL_Driver/Src/stm32h7xx_ll_usb.c **** 
 3493              		.loc 1 1368 28 is_stmt 0 view .LVU1130
 3494 0030 D0F8104B 		ldr	r4, [r0, #2832]
 3495 0034 44F0C044 		orr	r4, r4, #1610612736
 3496 0038 C0F8104B 		str	r4, [r0, #2832]
1370:Drivers/STM32H7xx_HAL_Driver/Src/stm32h7xx_ll_usb.c ****   {
 3497              		.loc 1 1370 3 is_stmt 1 view .LVU1131
1370:Drivers/STM32H7xx_HAL_Driver/Src/stm32h7xx_ll_usb.c ****   {
 3498              		.loc 1 1370 6 is_stmt 0 view .LVU1132
 3499 003c 0129     		cmp	r1, #1
 3500 003e 03D0     		beq	.L223
 3501              	.L221:
1378:Drivers/STM32H7xx_HAL_Driver/Src/stm32h7xx_ll_usb.c **** 
 3502              		.loc 1 1378 1 view .LVU1133
 3503 0040 0020     		movs	r0, #0
 3504              	.LVL289:
1378:Drivers/STM32H7xx_HAL_Driver/Src/stm32h7xx_ll_usb.c **** 
 3505              		.loc 1 1378 1 view .LVU1134
 3506 0042 5DF8044B 		ldr	r4, [sp], #4
 3507              	.LCFI44:
 3508              		.cfi_remember_state
 3509              		.cfi_restore 4
 3510              		.cfi_def_cfa_offset 0
 3511 0046 7047     		bx	lr
 3512              	.LVL290:
 3513              	.L223:
 3514              	.LCFI45:
 3515              		.cfi_restore_state
1372:Drivers/STM32H7xx_HAL_Driver/Src/stm32h7xx_ll_usb.c ****     /* EP enable */
 3516              		.loc 1 1372 5 is_stmt 1 view .LVU1135
1372:Drivers/STM32H7xx_HAL_Driver/Src/stm32h7xx_ll_usb.c ****     /* EP enable */
 3517              		.loc 1 1372 29 is_stmt 0 view .LVU1136
 3518 0048 C0F8142B 		str	r2, [r0, #2836]
1374:Drivers/STM32H7xx_HAL_Driver/Src/stm32h7xx_ll_usb.c ****   }
 3519              		.loc 1 1374 5 is_stmt 1 view .LVU1137
1374:Drivers/STM32H7xx_HAL_Driver/Src/stm32h7xx_ll_usb.c ****   }
 3520              		.loc 1 1374 29 is_stmt 0 view .LVU1138
 3521 004c D0F8003B 		ldr	r3, [r0, #2816]
 3522 0050 43F08023 		orr	r3, r3, #-2147450880
 3523 0054 C0F8003B 		str	r3, [r0, #2816]
 3524 0058 F2E7     		b	.L221
 3525              	.L225:
 3526 005a 00BF     		.align	2
 3527              	.L224:
 3528 005c 0A30544F 		.word	1330917386
 3529              		.cfi_endproc
ARM GAS  C:\Users\PgRick\AppData\Local\Temp\ccFebq6t.s 			page 106


 3530              	.LFE177:
 3532              		.section	.text.USB_HostInit,"ax",%progbits
 3533              		.align	1
 3534              		.global	USB_HostInit
 3535              		.syntax unified
 3536              		.thumb
 3537              		.thumb_func
 3539              	USB_HostInit:
 3540              	.LVL291:
 3541              	.LFB179:
1416:Drivers/STM32H7xx_HAL_Driver/Src/stm32h7xx_ll_usb.c **** 
1417:Drivers/STM32H7xx_HAL_Driver/Src/stm32h7xx_ll_usb.c **** /**
1418:Drivers/STM32H7xx_HAL_Driver/Src/stm32h7xx_ll_usb.c ****   * @brief  USB_HostInit : Initializes the USB OTG controller registers
1419:Drivers/STM32H7xx_HAL_Driver/Src/stm32h7xx_ll_usb.c ****   *         for Host mode
1420:Drivers/STM32H7xx_HAL_Driver/Src/stm32h7xx_ll_usb.c ****   * @param  USBx  Selected device
1421:Drivers/STM32H7xx_HAL_Driver/Src/stm32h7xx_ll_usb.c ****   * @param  cfg   pointer to a USB_OTG_CfgTypeDef structure that contains
1422:Drivers/STM32H7xx_HAL_Driver/Src/stm32h7xx_ll_usb.c ****   *         the configuration information for the specified USBx peripheral.
1423:Drivers/STM32H7xx_HAL_Driver/Src/stm32h7xx_ll_usb.c ****   * @retval HAL status
1424:Drivers/STM32H7xx_HAL_Driver/Src/stm32h7xx_ll_usb.c ****   */
1425:Drivers/STM32H7xx_HAL_Driver/Src/stm32h7xx_ll_usb.c **** HAL_StatusTypeDef USB_HostInit(USB_OTG_GlobalTypeDef *USBx, USB_OTG_CfgTypeDef cfg)
1426:Drivers/STM32H7xx_HAL_Driver/Src/stm32h7xx_ll_usb.c **** {
 3542              		.loc 1 1426 1 is_stmt 1 view -0
 3543              		.cfi_startproc
 3544              		@ args = 20, pretend = 16, frame = 0
 3545              		@ frame_needed = 0, uses_anonymous_args = 0
 3546              		.loc 1 1426 1 is_stmt 0 view .LVU1140
 3547 0000 84B0     		sub	sp, sp, #16
 3548              	.LCFI46:
 3549              		.cfi_def_cfa_offset 16
 3550 0002 38B5     		push	{r3, r4, r5, lr}
 3551              	.LCFI47:
 3552              		.cfi_def_cfa_offset 32
 3553              		.cfi_offset 3, -32
 3554              		.cfi_offset 4, -28
 3555              		.cfi_offset 5, -24
 3556              		.cfi_offset 14, -20
 3557 0004 0446     		mov	r4, r0
 3558 0006 05A8     		add	r0, sp, #20
 3559 0008 80E80E00 		stm	r0, {r1, r2, r3}
1427:Drivers/STM32H7xx_HAL_Driver/Src/stm32h7xx_ll_usb.c ****   HAL_StatusTypeDef ret = HAL_OK;
 3560              		.loc 1 1427 3 is_stmt 1 view .LVU1141
 3561              	.LVL292:
1428:Drivers/STM32H7xx_HAL_Driver/Src/stm32h7xx_ll_usb.c ****   uint32_t USBx_BASE = (uint32_t)USBx;
 3562              		.loc 1 1428 3 view .LVU1142
1429:Drivers/STM32H7xx_HAL_Driver/Src/stm32h7xx_ll_usb.c ****   uint32_t i;
 3563              		.loc 1 1429 3 view .LVU1143
1430:Drivers/STM32H7xx_HAL_Driver/Src/stm32h7xx_ll_usb.c **** 
1431:Drivers/STM32H7xx_HAL_Driver/Src/stm32h7xx_ll_usb.c ****   /* Restart the Phy Clock */
1432:Drivers/STM32H7xx_HAL_Driver/Src/stm32h7xx_ll_usb.c ****   USBx_PCGCCTL = 0U;
 3564              		.loc 1 1432 3 view .LVU1144
 3565              		.loc 1 1432 16 is_stmt 0 view .LVU1145
 3566 000c 0023     		movs	r3, #0
 3567 000e C4F8003E 		str	r3, [r4, #3584]
1433:Drivers/STM32H7xx_HAL_Driver/Src/stm32h7xx_ll_usb.c **** 
1434:Drivers/STM32H7xx_HAL_Driver/Src/stm32h7xx_ll_usb.c ****   /* Disable VBUS sensing */
1435:Drivers/STM32H7xx_HAL_Driver/Src/stm32h7xx_ll_usb.c ****   USBx->GCCFG &= ~(USB_OTG_GCCFG_VBDEN);
 3568              		.loc 1 1435 3 is_stmt 1 view .LVU1146
ARM GAS  C:\Users\PgRick\AppData\Local\Temp\ccFebq6t.s 			page 107


 3569              		.loc 1 1435 15 is_stmt 0 view .LVU1147
 3570 0012 A36B     		ldr	r3, [r4, #56]
 3571 0014 23F40013 		bic	r3, r3, #2097152
 3572 0018 A363     		str	r3, [r4, #56]
1436:Drivers/STM32H7xx_HAL_Driver/Src/stm32h7xx_ll_usb.c **** 
1437:Drivers/STM32H7xx_HAL_Driver/Src/stm32h7xx_ll_usb.c ****   /* Disable Battery chargin detector */
1438:Drivers/STM32H7xx_HAL_Driver/Src/stm32h7xx_ll_usb.c ****   USBx->GCCFG &= ~(USB_OTG_GCCFG_BCDEN);
 3573              		.loc 1 1438 3 is_stmt 1 view .LVU1148
 3574              		.loc 1 1438 15 is_stmt 0 view .LVU1149
 3575 001a A36B     		ldr	r3, [r4, #56]
 3576 001c 23F40033 		bic	r3, r3, #131072
 3577 0020 A363     		str	r3, [r4, #56]
1439:Drivers/STM32H7xx_HAL_Driver/Src/stm32h7xx_ll_usb.c **** 
1440:Drivers/STM32H7xx_HAL_Driver/Src/stm32h7xx_ll_usb.c **** 
1441:Drivers/STM32H7xx_HAL_Driver/Src/stm32h7xx_ll_usb.c ****   if ((USBx->GUSBCFG & USB_OTG_GUSBCFG_PHYSEL) == 0U)
 3578              		.loc 1 1441 3 is_stmt 1 view .LVU1150
 3579              		.loc 1 1441 12 is_stmt 0 view .LVU1151
 3580 0022 E368     		ldr	r3, [r4, #12]
 3581              		.loc 1 1441 6 view .LVU1152
 3582 0024 13F0400F 		tst	r3, #64
 3583 0028 11D1     		bne	.L227
1442:Drivers/STM32H7xx_HAL_Driver/Src/stm32h7xx_ll_usb.c ****   {
1443:Drivers/STM32H7xx_HAL_Driver/Src/stm32h7xx_ll_usb.c ****     if (cfg.speed == USBH_FSLS_SPEED)
 3584              		.loc 1 1443 5 is_stmt 1 view .LVU1153
 3585              		.loc 1 1443 12 is_stmt 0 view .LVU1154
 3586 002a 9DF81730 		ldrb	r3, [sp, #23]	@ zero_extendqisi2
 3587              		.loc 1 1443 8 view .LVU1155
 3588 002e 012B     		cmp	r3, #1
 3589 0030 06D0     		beq	.L238
1444:Drivers/STM32H7xx_HAL_Driver/Src/stm32h7xx_ll_usb.c ****     {
1445:Drivers/STM32H7xx_HAL_Driver/Src/stm32h7xx_ll_usb.c ****       /* Force Device Enumeration to FS/LS mode only */
1446:Drivers/STM32H7xx_HAL_Driver/Src/stm32h7xx_ll_usb.c ****       USBx_HOST->HCFG |= USB_OTG_HCFG_FSLSS;
1447:Drivers/STM32H7xx_HAL_Driver/Src/stm32h7xx_ll_usb.c ****     }
1448:Drivers/STM32H7xx_HAL_Driver/Src/stm32h7xx_ll_usb.c ****     else
1449:Drivers/STM32H7xx_HAL_Driver/Src/stm32h7xx_ll_usb.c ****     {
1450:Drivers/STM32H7xx_HAL_Driver/Src/stm32h7xx_ll_usb.c ****       /* Set default Max speed support */
1451:Drivers/STM32H7xx_HAL_Driver/Src/stm32h7xx_ll_usb.c ****       USBx_HOST->HCFG &= ~(USB_OTG_HCFG_FSLSS);
 3590              		.loc 1 1451 7 is_stmt 1 view .LVU1156
 3591              		.loc 1 1451 23 is_stmt 0 view .LVU1157
 3592 0032 D4F80034 		ldr	r3, [r4, #1024]
 3593 0036 23F00403 		bic	r3, r3, #4
 3594 003a C4F80034 		str	r3, [r4, #1024]
 3595 003e 0CE0     		b	.L229
 3596              	.L238:
1446:Drivers/STM32H7xx_HAL_Driver/Src/stm32h7xx_ll_usb.c ****     }
 3597              		.loc 1 1446 7 is_stmt 1 view .LVU1158
1446:Drivers/STM32H7xx_HAL_Driver/Src/stm32h7xx_ll_usb.c ****     }
 3598              		.loc 1 1446 23 is_stmt 0 view .LVU1159
 3599 0040 D4F80034 		ldr	r3, [r4, #1024]
 3600 0044 43F00403 		orr	r3, r3, #4
 3601 0048 C4F80034 		str	r3, [r4, #1024]
 3602 004c 05E0     		b	.L229
 3603              	.L227:
1452:Drivers/STM32H7xx_HAL_Driver/Src/stm32h7xx_ll_usb.c ****     }
1453:Drivers/STM32H7xx_HAL_Driver/Src/stm32h7xx_ll_usb.c ****   }
1454:Drivers/STM32H7xx_HAL_Driver/Src/stm32h7xx_ll_usb.c ****   else
1455:Drivers/STM32H7xx_HAL_Driver/Src/stm32h7xx_ll_usb.c ****   {
ARM GAS  C:\Users\PgRick\AppData\Local\Temp\ccFebq6t.s 			page 108


1456:Drivers/STM32H7xx_HAL_Driver/Src/stm32h7xx_ll_usb.c ****     /* Set default Max speed support */
1457:Drivers/STM32H7xx_HAL_Driver/Src/stm32h7xx_ll_usb.c ****     USBx_HOST->HCFG &= ~(USB_OTG_HCFG_FSLSS);
 3604              		.loc 1 1457 5 is_stmt 1 view .LVU1160
 3605              		.loc 1 1457 21 is_stmt 0 view .LVU1161
 3606 004e D4F80034 		ldr	r3, [r4, #1024]
 3607 0052 23F00403 		bic	r3, r3, #4
 3608 0056 C4F80034 		str	r3, [r4, #1024]
 3609              	.L229:
1458:Drivers/STM32H7xx_HAL_Driver/Src/stm32h7xx_ll_usb.c ****   }
1459:Drivers/STM32H7xx_HAL_Driver/Src/stm32h7xx_ll_usb.c **** 
1460:Drivers/STM32H7xx_HAL_Driver/Src/stm32h7xx_ll_usb.c ****   /* Make sure the FIFOs are flushed. */
1461:Drivers/STM32H7xx_HAL_Driver/Src/stm32h7xx_ll_usb.c ****   if (USB_FlushTxFifo(USBx, 0x10U) != HAL_OK) /* all Tx FIFOs */
 3610              		.loc 1 1461 3 is_stmt 1 view .LVU1162
 3611              		.loc 1 1461 7 is_stmt 0 view .LVU1163
 3612 005a 1021     		movs	r1, #16
 3613 005c 2046     		mov	r0, r4
 3614              	.LVL293:
 3615              		.loc 1 1461 7 view .LVU1164
 3616 005e FFF7FEFF 		bl	USB_FlushTxFifo
 3617              	.LVL294:
 3618              		.loc 1 1461 6 view .LVU1165
 3619 0062 0546     		mov	r5, r0
 3620 0064 00B1     		cbz	r0, .L230
1462:Drivers/STM32H7xx_HAL_Driver/Src/stm32h7xx_ll_usb.c ****   {
1463:Drivers/STM32H7xx_HAL_Driver/Src/stm32h7xx_ll_usb.c ****     ret = HAL_ERROR;
 3621              		.loc 1 1463 9 view .LVU1166
 3622 0066 0125     		movs	r5, #1
 3623              	.L230:
 3624              	.LVL295:
1464:Drivers/STM32H7xx_HAL_Driver/Src/stm32h7xx_ll_usb.c ****   }
1465:Drivers/STM32H7xx_HAL_Driver/Src/stm32h7xx_ll_usb.c **** 
1466:Drivers/STM32H7xx_HAL_Driver/Src/stm32h7xx_ll_usb.c ****   if (USB_FlushRxFifo(USBx) != HAL_OK)
 3625              		.loc 1 1466 3 is_stmt 1 view .LVU1167
 3626              		.loc 1 1466 7 is_stmt 0 view .LVU1168
 3627 0068 2046     		mov	r0, r4
 3628 006a FFF7FEFF 		bl	USB_FlushRxFifo
 3629              	.LVL296:
 3630              		.loc 1 1466 6 view .LVU1169
 3631 006e 00B1     		cbz	r0, .L231
1467:Drivers/STM32H7xx_HAL_Driver/Src/stm32h7xx_ll_usb.c ****   {
1468:Drivers/STM32H7xx_HAL_Driver/Src/stm32h7xx_ll_usb.c ****     ret = HAL_ERROR;
 3632              		.loc 1 1468 9 view .LVU1170
 3633 0070 0125     		movs	r5, #1
 3634              	.LVL297:
 3635              	.L231:
1469:Drivers/STM32H7xx_HAL_Driver/Src/stm32h7xx_ll_usb.c ****   }
1470:Drivers/STM32H7xx_HAL_Driver/Src/stm32h7xx_ll_usb.c **** 
1471:Drivers/STM32H7xx_HAL_Driver/Src/stm32h7xx_ll_usb.c ****   /* Clear all pending HC Interrupts */
1472:Drivers/STM32H7xx_HAL_Driver/Src/stm32h7xx_ll_usb.c ****   for (i = 0U; i < cfg.Host_channels; i++)
 3636              		.loc 1 1472 3 is_stmt 1 view .LVU1171
 3637              		.loc 1 1472 10 is_stmt 0 view .LVU1172
 3638 0072 0022     		movs	r2, #0
 3639              		.loc 1 1472 3 view .LVU1173
 3640 0074 09E0     		b	.L232
 3641              	.LVL298:
 3642              	.L233:
1473:Drivers/STM32H7xx_HAL_Driver/Src/stm32h7xx_ll_usb.c ****   {
ARM GAS  C:\Users\PgRick\AppData\Local\Temp\ccFebq6t.s 			page 109


1474:Drivers/STM32H7xx_HAL_Driver/Src/stm32h7xx_ll_usb.c ****     USBx_HC(i)->HCINT = CLEAR_INTERRUPT_MASK;
 3643              		.loc 1 1474 5 is_stmt 1 discriminator 3 view .LVU1174
 3644 0076 04EB4213 		add	r3, r4, r2, lsl #5
 3645              		.loc 1 1474 23 is_stmt 0 discriminator 3 view .LVU1175
 3646 007a 4FF0FF31 		mov	r1, #-1
 3647 007e C3F80815 		str	r1, [r3, #1288]
1475:Drivers/STM32H7xx_HAL_Driver/Src/stm32h7xx_ll_usb.c ****     USBx_HC(i)->HCINTMSK = 0U;
 3648              		.loc 1 1475 5 is_stmt 1 discriminator 3 view .LVU1176
 3649              		.loc 1 1475 26 is_stmt 0 discriminator 3 view .LVU1177
 3650 0082 0021     		movs	r1, #0
 3651 0084 C3F80C15 		str	r1, [r3, #1292]
1472:Drivers/STM32H7xx_HAL_Driver/Src/stm32h7xx_ll_usb.c ****   {
 3652              		.loc 1 1472 39 is_stmt 1 discriminator 3 view .LVU1178
1472:Drivers/STM32H7xx_HAL_Driver/Src/stm32h7xx_ll_usb.c ****   {
 3653              		.loc 1 1472 40 is_stmt 0 discriminator 3 view .LVU1179
 3654 0088 0132     		adds	r2, r2, #1
 3655              	.LVL299:
 3656              	.L232:
1472:Drivers/STM32H7xx_HAL_Driver/Src/stm32h7xx_ll_usb.c ****   {
 3657              		.loc 1 1472 16 is_stmt 1 discriminator 1 view .LVU1180
1472:Drivers/STM32H7xx_HAL_Driver/Src/stm32h7xx_ll_usb.c ****   {
 3658              		.loc 1 1472 23 is_stmt 0 discriminator 1 view .LVU1181
 3659 008a 9DF81530 		ldrb	r3, [sp, #21]	@ zero_extendqisi2
1472:Drivers/STM32H7xx_HAL_Driver/Src/stm32h7xx_ll_usb.c ****   {
 3660              		.loc 1 1472 3 discriminator 1 view .LVU1182
 3661 008e 9342     		cmp	r3, r2
 3662 0090 F1D8     		bhi	.L233
1476:Drivers/STM32H7xx_HAL_Driver/Src/stm32h7xx_ll_usb.c ****   }
1477:Drivers/STM32H7xx_HAL_Driver/Src/stm32h7xx_ll_usb.c **** 
1478:Drivers/STM32H7xx_HAL_Driver/Src/stm32h7xx_ll_usb.c ****   /* Disable all interrupts. */
1479:Drivers/STM32H7xx_HAL_Driver/Src/stm32h7xx_ll_usb.c ****   USBx->GINTMSK = 0U;
 3663              		.loc 1 1479 3 is_stmt 1 view .LVU1183
 3664              		.loc 1 1479 17 is_stmt 0 view .LVU1184
 3665 0092 0023     		movs	r3, #0
 3666 0094 A361     		str	r3, [r4, #24]
1480:Drivers/STM32H7xx_HAL_Driver/Src/stm32h7xx_ll_usb.c **** 
1481:Drivers/STM32H7xx_HAL_Driver/Src/stm32h7xx_ll_usb.c ****   /* Clear any pending interrupts */
1482:Drivers/STM32H7xx_HAL_Driver/Src/stm32h7xx_ll_usb.c ****   USBx->GINTSTS = CLEAR_INTERRUPT_MASK;
 3667              		.loc 1 1482 3 is_stmt 1 view .LVU1185
 3668              		.loc 1 1482 17 is_stmt 0 view .LVU1186
 3669 0096 4FF0FF33 		mov	r3, #-1
 3670 009a 6361     		str	r3, [r4, #20]
1483:Drivers/STM32H7xx_HAL_Driver/Src/stm32h7xx_ll_usb.c ****   /* set Rx FIFO size */
1484:Drivers/STM32H7xx_HAL_Driver/Src/stm32h7xx_ll_usb.c ****   USBx->GRXFSIZ  = 0x200U;
 3671              		.loc 1 1484 3 is_stmt 1 view .LVU1187
 3672              		.loc 1 1484 18 is_stmt 0 view .LVU1188
 3673 009c 4FF40073 		mov	r3, #512
 3674 00a0 6362     		str	r3, [r4, #36]
1485:Drivers/STM32H7xx_HAL_Driver/Src/stm32h7xx_ll_usb.c ****   USBx->DIEPTXF0_HNPTXFSIZ = (uint32_t)(((0x100U << 16) & USB_OTG_NPTXFD) | 0x200U);
 3675              		.loc 1 1485 3 is_stmt 1 view .LVU1189
 3676              		.loc 1 1485 28 is_stmt 0 view .LVU1190
 3677 00a2 03F18073 		add	r3, r3, #16777216
 3678 00a6 A362     		str	r3, [r4, #40]
1486:Drivers/STM32H7xx_HAL_Driver/Src/stm32h7xx_ll_usb.c ****   USBx->HPTXFSIZ = (uint32_t)(((0xE0U << 16) & USB_OTG_HPTXFSIZ_PTXFD) | 0x300U);
 3679              		.loc 1 1486 3 is_stmt 1 view .LVU1191
 3680              		.loc 1 1486 18 is_stmt 0 view .LVU1192
 3681 00a8 094B     		ldr	r3, .L239
ARM GAS  C:\Users\PgRick\AppData\Local\Temp\ccFebq6t.s 			page 110


 3682 00aa C4F80031 		str	r3, [r4, #256]
1487:Drivers/STM32H7xx_HAL_Driver/Src/stm32h7xx_ll_usb.c **** 
1488:Drivers/STM32H7xx_HAL_Driver/Src/stm32h7xx_ll_usb.c ****   /* Enable the common interrupts */
1489:Drivers/STM32H7xx_HAL_Driver/Src/stm32h7xx_ll_usb.c ****   if (cfg.dma_enable == 0U)
 3683              		.loc 1 1489 3 is_stmt 1 view .LVU1193
 3684              		.loc 1 1489 10 is_stmt 0 view .LVU1194
 3685 00ae 9DF81630 		ldrb	r3, [sp, #22]	@ zero_extendqisi2
 3686              		.loc 1 1489 6 view .LVU1195
 3687 00b2 1BB9     		cbnz	r3, .L234
1490:Drivers/STM32H7xx_HAL_Driver/Src/stm32h7xx_ll_usb.c ****   {
1491:Drivers/STM32H7xx_HAL_Driver/Src/stm32h7xx_ll_usb.c ****     USBx->GINTMSK |= USB_OTG_GINTMSK_RXFLVLM;
 3688              		.loc 1 1491 5 is_stmt 1 view .LVU1196
 3689              		.loc 1 1491 19 is_stmt 0 view .LVU1197
 3690 00b4 A369     		ldr	r3, [r4, #24]
 3691 00b6 43F01003 		orr	r3, r3, #16
 3692 00ba A361     		str	r3, [r4, #24]
 3693              	.L234:
1492:Drivers/STM32H7xx_HAL_Driver/Src/stm32h7xx_ll_usb.c ****   }
1493:Drivers/STM32H7xx_HAL_Driver/Src/stm32h7xx_ll_usb.c **** 
1494:Drivers/STM32H7xx_HAL_Driver/Src/stm32h7xx_ll_usb.c ****   /* Enable interrupts matching to the Host mode ONLY */
1495:Drivers/STM32H7xx_HAL_Driver/Src/stm32h7xx_ll_usb.c ****   USBx->GINTMSK |= (USB_OTG_GINTMSK_PRTIM            | USB_OTG_GINTMSK_HCIM | \
 3694              		.loc 1 1495 3 is_stmt 1 view .LVU1198
 3695              		.loc 1 1495 17 is_stmt 0 view .LVU1199
 3696 00bc A269     		ldr	r2, [r4, #24]
 3697              	.LVL300:
 3698              		.loc 1 1495 17 view .LVU1200
 3699 00be 054B     		ldr	r3, .L239+4
 3700 00c0 1343     		orrs	r3, r3, r2
 3701 00c2 A361     		str	r3, [r4, #24]
1496:Drivers/STM32H7xx_HAL_Driver/Src/stm32h7xx_ll_usb.c ****                     USB_OTG_GINTMSK_SOFM             | USB_OTG_GINTSTS_DISCINT | \
1497:Drivers/STM32H7xx_HAL_Driver/Src/stm32h7xx_ll_usb.c ****                     USB_OTG_GINTMSK_PXFRM_IISOOXFRM  | USB_OTG_GINTMSK_WUIM);
1498:Drivers/STM32H7xx_HAL_Driver/Src/stm32h7xx_ll_usb.c **** 
1499:Drivers/STM32H7xx_HAL_Driver/Src/stm32h7xx_ll_usb.c ****   return ret;
 3702              		.loc 1 1499 3 is_stmt 1 view .LVU1201
1500:Drivers/STM32H7xx_HAL_Driver/Src/stm32h7xx_ll_usb.c **** }
 3703              		.loc 1 1500 1 is_stmt 0 view .LVU1202
 3704 00c4 2846     		mov	r0, r5
 3705 00c6 BDE83840 		pop	{r3, r4, r5, lr}
 3706              	.LCFI48:
 3707              		.cfi_restore 14
 3708              		.cfi_restore 5
 3709              		.cfi_restore 4
 3710              		.cfi_restore 3
 3711              		.cfi_def_cfa_offset 16
 3712              	.LVL301:
 3713              		.loc 1 1500 1 view .LVU1203
 3714 00ca 04B0     		add	sp, sp, #16
 3715              	.LCFI49:
 3716              		.cfi_def_cfa_offset 0
 3717 00cc 7047     		bx	lr
 3718              	.L240:
 3719 00ce 00BF     		.align	2
 3720              	.L239:
 3721 00d0 0003E000 		.word	14680832
 3722 00d4 080020A3 		.word	-1558183928
 3723              		.cfi_endproc
 3724              	.LFE179:
ARM GAS  C:\Users\PgRick\AppData\Local\Temp\ccFebq6t.s 			page 111


 3726              		.section	.text.USB_InitFSLSPClkSel,"ax",%progbits
 3727              		.align	1
 3728              		.global	USB_InitFSLSPClkSel
 3729              		.syntax unified
 3730              		.thumb
 3731              		.thumb_func
 3733              	USB_InitFSLSPClkSel:
 3734              	.LVL302:
 3735              	.LFB180:
1501:Drivers/STM32H7xx_HAL_Driver/Src/stm32h7xx_ll_usb.c **** 
1502:Drivers/STM32H7xx_HAL_Driver/Src/stm32h7xx_ll_usb.c **** /**
1503:Drivers/STM32H7xx_HAL_Driver/Src/stm32h7xx_ll_usb.c ****   * @brief  USB_InitFSLSPClkSel : Initializes the FSLSPClkSel field of the
1504:Drivers/STM32H7xx_HAL_Driver/Src/stm32h7xx_ll_usb.c ****   *         HCFG register on the PHY type and set the right frame interval
1505:Drivers/STM32H7xx_HAL_Driver/Src/stm32h7xx_ll_usb.c ****   * @param  USBx  Selected device
1506:Drivers/STM32H7xx_HAL_Driver/Src/stm32h7xx_ll_usb.c ****   * @param  freq  clock frequency
1507:Drivers/STM32H7xx_HAL_Driver/Src/stm32h7xx_ll_usb.c ****   *          This parameter can be one of these values:
1508:Drivers/STM32H7xx_HAL_Driver/Src/stm32h7xx_ll_usb.c ****   *           HCFG_48_MHZ : Full Speed 48 MHz Clock
1509:Drivers/STM32H7xx_HAL_Driver/Src/stm32h7xx_ll_usb.c ****   *           HCFG_6_MHZ : Low Speed 6 MHz Clock
1510:Drivers/STM32H7xx_HAL_Driver/Src/stm32h7xx_ll_usb.c ****   * @retval HAL status
1511:Drivers/STM32H7xx_HAL_Driver/Src/stm32h7xx_ll_usb.c ****   */
1512:Drivers/STM32H7xx_HAL_Driver/Src/stm32h7xx_ll_usb.c **** HAL_StatusTypeDef USB_InitFSLSPClkSel(const USB_OTG_GlobalTypeDef *USBx, uint8_t freq)
1513:Drivers/STM32H7xx_HAL_Driver/Src/stm32h7xx_ll_usb.c **** {
 3736              		.loc 1 1513 1 is_stmt 1 view -0
 3737              		.cfi_startproc
 3738              		@ args = 0, pretend = 0, frame = 0
 3739              		@ frame_needed = 0, uses_anonymous_args = 0
 3740              		@ link register save eliminated.
1514:Drivers/STM32H7xx_HAL_Driver/Src/stm32h7xx_ll_usb.c ****   uint32_t USBx_BASE = (uint32_t)USBx;
 3741              		.loc 1 1514 3 view .LVU1205
1515:Drivers/STM32H7xx_HAL_Driver/Src/stm32h7xx_ll_usb.c **** 
1516:Drivers/STM32H7xx_HAL_Driver/Src/stm32h7xx_ll_usb.c ****   USBx_HOST->HCFG &= ~(USB_OTG_HCFG_FSLSPCS);
 3742              		.loc 1 1516 3 view .LVU1206
 3743              		.loc 1 1516 19 is_stmt 0 view .LVU1207
 3744 0000 00F5806C 		add	ip, r0, #1024
 3745 0004 D0F80034 		ldr	r3, [r0, #1024]
 3746 0008 23F00303 		bic	r3, r3, #3
 3747 000c C0F80034 		str	r3, [r0, #1024]
1517:Drivers/STM32H7xx_HAL_Driver/Src/stm32h7xx_ll_usb.c ****   USBx_HOST->HCFG |= (uint32_t)freq & USB_OTG_HCFG_FSLSPCS;
 3748              		.loc 1 1517 3 is_stmt 1 view .LVU1208
 3749              		.loc 1 1517 19 is_stmt 0 view .LVU1209
 3750 0010 D0F80034 		ldr	r3, [r0, #1024]
 3751              		.loc 1 1517 37 view .LVU1210
 3752 0014 01F00302 		and	r2, r1, #3
 3753              		.loc 1 1517 19 view .LVU1211
 3754 0018 1343     		orrs	r3, r3, r2
 3755 001a C0F80034 		str	r3, [r0, #1024]
1518:Drivers/STM32H7xx_HAL_Driver/Src/stm32h7xx_ll_usb.c **** 
1519:Drivers/STM32H7xx_HAL_Driver/Src/stm32h7xx_ll_usb.c ****   if (freq == HCFG_48_MHZ)
 3756              		.loc 1 1519 3 is_stmt 1 view .LVU1212
 3757              		.loc 1 1519 6 is_stmt 0 view .LVU1213
 3758 001e 0129     		cmp	r1, #1
 3759 0020 07D0     		beq	.L245
1520:Drivers/STM32H7xx_HAL_Driver/Src/stm32h7xx_ll_usb.c ****   {
1521:Drivers/STM32H7xx_HAL_Driver/Src/stm32h7xx_ll_usb.c ****     USBx_HOST->HFIR = HFIR_48_MHZ;
1522:Drivers/STM32H7xx_HAL_Driver/Src/stm32h7xx_ll_usb.c ****   }
1523:Drivers/STM32H7xx_HAL_Driver/Src/stm32h7xx_ll_usb.c ****   else if (freq == HCFG_6_MHZ)
 3760              		.loc 1 1523 8 is_stmt 1 view .LVU1214
ARM GAS  C:\Users\PgRick\AppData\Local\Temp\ccFebq6t.s 			page 112


 3761              		.loc 1 1523 11 is_stmt 0 view .LVU1215
 3762 0022 0229     		cmp	r1, #2
 3763 0024 0BD1     		bne	.L244
1524:Drivers/STM32H7xx_HAL_Driver/Src/stm32h7xx_ll_usb.c ****   {
1525:Drivers/STM32H7xx_HAL_Driver/Src/stm32h7xx_ll_usb.c ****     USBx_HOST->HFIR = HFIR_6_MHZ;
 3764              		.loc 1 1525 5 is_stmt 1 view .LVU1216
 3765              		.loc 1 1525 21 is_stmt 0 view .LVU1217
 3766 0026 41F27073 		movw	r3, #6000
 3767 002a CCF80430 		str	r3, [ip, #4]
1526:Drivers/STM32H7xx_HAL_Driver/Src/stm32h7xx_ll_usb.c ****   }
1527:Drivers/STM32H7xx_HAL_Driver/Src/stm32h7xx_ll_usb.c ****   else
1528:Drivers/STM32H7xx_HAL_Driver/Src/stm32h7xx_ll_usb.c ****   {
1529:Drivers/STM32H7xx_HAL_Driver/Src/stm32h7xx_ll_usb.c ****     return HAL_ERROR;
1530:Drivers/STM32H7xx_HAL_Driver/Src/stm32h7xx_ll_usb.c ****   }
1531:Drivers/STM32H7xx_HAL_Driver/Src/stm32h7xx_ll_usb.c **** 
1532:Drivers/STM32H7xx_HAL_Driver/Src/stm32h7xx_ll_usb.c ****   return HAL_OK;
 3768              		.loc 1 1532 10 view .LVU1218
 3769 002e 0020     		movs	r0, #0
 3770              	.LVL303:
 3771              		.loc 1 1532 10 view .LVU1219
 3772 0030 7047     		bx	lr
 3773              	.LVL304:
 3774              	.L245:
1521:Drivers/STM32H7xx_HAL_Driver/Src/stm32h7xx_ll_usb.c ****   }
 3775              		.loc 1 1521 5 is_stmt 1 view .LVU1220
1521:Drivers/STM32H7xx_HAL_Driver/Src/stm32h7xx_ll_usb.c ****   }
 3776              		.loc 1 1521 21 is_stmt 0 view .LVU1221
 3777 0032 4BF68033 		movw	r3, #48000
 3778 0036 CCF80430 		str	r3, [ip, #4]
 3779              		.loc 1 1532 10 view .LVU1222
 3780 003a 0020     		movs	r0, #0
 3781              	.LVL305:
 3782              		.loc 1 1532 10 view .LVU1223
 3783 003c 7047     		bx	lr
 3784              	.LVL306:
 3785              	.L244:
1529:Drivers/STM32H7xx_HAL_Driver/Src/stm32h7xx_ll_usb.c ****   }
 3786              		.loc 1 1529 12 view .LVU1224
 3787 003e 0120     		movs	r0, #1
 3788              	.LVL307:
1533:Drivers/STM32H7xx_HAL_Driver/Src/stm32h7xx_ll_usb.c **** }
 3789              		.loc 1 1533 1 view .LVU1225
 3790 0040 7047     		bx	lr
 3791              		.cfi_endproc
 3792              	.LFE180:
 3794              		.section	.text.USB_ResetPort,"ax",%progbits
 3795              		.align	1
 3796              		.global	USB_ResetPort
 3797              		.syntax unified
 3798              		.thumb
 3799              		.thumb_func
 3801              	USB_ResetPort:
 3802              	.LVL308:
 3803              	.LFB181:
1534:Drivers/STM32H7xx_HAL_Driver/Src/stm32h7xx_ll_usb.c **** 
1535:Drivers/STM32H7xx_HAL_Driver/Src/stm32h7xx_ll_usb.c **** /**
1536:Drivers/STM32H7xx_HAL_Driver/Src/stm32h7xx_ll_usb.c ****   * @brief  USB_OTG_ResetPort : Reset Host Port
ARM GAS  C:\Users\PgRick\AppData\Local\Temp\ccFebq6t.s 			page 113


1537:Drivers/STM32H7xx_HAL_Driver/Src/stm32h7xx_ll_usb.c ****   * @param  USBx  Selected device
1538:Drivers/STM32H7xx_HAL_Driver/Src/stm32h7xx_ll_usb.c ****   * @retval HAL status
1539:Drivers/STM32H7xx_HAL_Driver/Src/stm32h7xx_ll_usb.c ****   * @note (1)The application must wait at least 10 ms
1540:Drivers/STM32H7xx_HAL_Driver/Src/stm32h7xx_ll_usb.c ****   *   before clearing the reset bit.
1541:Drivers/STM32H7xx_HAL_Driver/Src/stm32h7xx_ll_usb.c ****   */
1542:Drivers/STM32H7xx_HAL_Driver/Src/stm32h7xx_ll_usb.c **** HAL_StatusTypeDef USB_ResetPort(const USB_OTG_GlobalTypeDef *USBx)
1543:Drivers/STM32H7xx_HAL_Driver/Src/stm32h7xx_ll_usb.c **** {
 3804              		.loc 1 1543 1 is_stmt 1 view -0
 3805              		.cfi_startproc
 3806              		@ args = 0, pretend = 0, frame = 8
 3807              		@ frame_needed = 0, uses_anonymous_args = 0
 3808              		.loc 1 1543 1 is_stmt 0 view .LVU1227
 3809 0000 30B5     		push	{r4, r5, lr}
 3810              	.LCFI50:
 3811              		.cfi_def_cfa_offset 12
 3812              		.cfi_offset 4, -12
 3813              		.cfi_offset 5, -8
 3814              		.cfi_offset 14, -4
 3815 0002 83B0     		sub	sp, sp, #12
 3816              	.LCFI51:
 3817              		.cfi_def_cfa_offset 24
 3818 0004 0446     		mov	r4, r0
1544:Drivers/STM32H7xx_HAL_Driver/Src/stm32h7xx_ll_usb.c ****   uint32_t USBx_BASE = (uint32_t)USBx;
 3819              		.loc 1 1544 3 is_stmt 1 view .LVU1228
 3820              	.LVL309:
1545:Drivers/STM32H7xx_HAL_Driver/Src/stm32h7xx_ll_usb.c **** 
1546:Drivers/STM32H7xx_HAL_Driver/Src/stm32h7xx_ll_usb.c ****   __IO uint32_t hprt0 = 0U;
 3821              		.loc 1 1546 3 view .LVU1229
 3822              		.loc 1 1546 17 is_stmt 0 view .LVU1230
 3823 0006 0025     		movs	r5, #0
 3824 0008 0195     		str	r5, [sp, #4]
1547:Drivers/STM32H7xx_HAL_Driver/Src/stm32h7xx_ll_usb.c **** 
1548:Drivers/STM32H7xx_HAL_Driver/Src/stm32h7xx_ll_usb.c ****   hprt0 = USBx_HPRT0;
 3825              		.loc 1 1548 3 is_stmt 1 view .LVU1231
 3826              		.loc 1 1548 11 is_stmt 0 view .LVU1232
 3827 000a D0F84034 		ldr	r3, [r0, #1088]
 3828              		.loc 1 1548 9 view .LVU1233
 3829 000e 0193     		str	r3, [sp, #4]
1549:Drivers/STM32H7xx_HAL_Driver/Src/stm32h7xx_ll_usb.c **** 
1550:Drivers/STM32H7xx_HAL_Driver/Src/stm32h7xx_ll_usb.c ****   hprt0 &= ~(USB_OTG_HPRT_PENA | USB_OTG_HPRT_PCDET |
 3830              		.loc 1 1550 3 is_stmt 1 view .LVU1234
 3831              		.loc 1 1550 9 is_stmt 0 view .LVU1235
 3832 0010 019B     		ldr	r3, [sp, #4]
 3833 0012 23F02E03 		bic	r3, r3, #46
 3834 0016 0193     		str	r3, [sp, #4]
1551:Drivers/STM32H7xx_HAL_Driver/Src/stm32h7xx_ll_usb.c ****              USB_OTG_HPRT_PENCHNG | USB_OTG_HPRT_POCCHNG);
1552:Drivers/STM32H7xx_HAL_Driver/Src/stm32h7xx_ll_usb.c **** 
1553:Drivers/STM32H7xx_HAL_Driver/Src/stm32h7xx_ll_usb.c ****   USBx_HPRT0 = (USB_OTG_HPRT_PRST | hprt0);
 3835              		.loc 1 1553 3 is_stmt 1 view .LVU1236
 3836              		.loc 1 1553 35 is_stmt 0 view .LVU1237
 3837 0018 019B     		ldr	r3, [sp, #4]
 3838 001a 43F48073 		orr	r3, r3, #256
 3839              		.loc 1 1553 14 view .LVU1238
 3840 001e C0F84034 		str	r3, [r0, #1088]
1554:Drivers/STM32H7xx_HAL_Driver/Src/stm32h7xx_ll_usb.c ****   HAL_Delay(100U);                                 /* See Note #1 */
 3841              		.loc 1 1554 3 is_stmt 1 view .LVU1239
 3842 0022 6420     		movs	r0, #100
ARM GAS  C:\Users\PgRick\AppData\Local\Temp\ccFebq6t.s 			page 114


 3843              	.LVL310:
 3844              		.loc 1 1554 3 is_stmt 0 view .LVU1240
 3845 0024 FFF7FEFF 		bl	HAL_Delay
 3846              	.LVL311:
1555:Drivers/STM32H7xx_HAL_Driver/Src/stm32h7xx_ll_usb.c ****   USBx_HPRT0 = ((~USB_OTG_HPRT_PRST) & hprt0);
 3847              		.loc 1 1555 3 is_stmt 1 view .LVU1241
 3848              		.loc 1 1555 38 is_stmt 0 view .LVU1242
 3849 0028 019B     		ldr	r3, [sp, #4]
 3850 002a 23F48073 		bic	r3, r3, #256
 3851              		.loc 1 1555 14 view .LVU1243
 3852 002e C4F84034 		str	r3, [r4, #1088]
1556:Drivers/STM32H7xx_HAL_Driver/Src/stm32h7xx_ll_usb.c ****   HAL_Delay(10U);
 3853              		.loc 1 1556 3 is_stmt 1 view .LVU1244
 3854 0032 0A20     		movs	r0, #10
 3855 0034 FFF7FEFF 		bl	HAL_Delay
 3856              	.LVL312:
1557:Drivers/STM32H7xx_HAL_Driver/Src/stm32h7xx_ll_usb.c **** 
1558:Drivers/STM32H7xx_HAL_Driver/Src/stm32h7xx_ll_usb.c ****   return HAL_OK;
 3857              		.loc 1 1558 3 view .LVU1245
1559:Drivers/STM32H7xx_HAL_Driver/Src/stm32h7xx_ll_usb.c **** }
 3858              		.loc 1 1559 1 is_stmt 0 view .LVU1246
 3859 0038 2846     		mov	r0, r5
 3860 003a 03B0     		add	sp, sp, #12
 3861              	.LCFI52:
 3862              		.cfi_def_cfa_offset 12
 3863              		@ sp needed
 3864 003c 30BD     		pop	{r4, r5, pc}
 3865              		.loc 1 1559 1 view .LVU1247
 3866              		.cfi_endproc
 3867              	.LFE181:
 3869              		.section	.text.USB_DriveVbus,"ax",%progbits
 3870              		.align	1
 3871              		.global	USB_DriveVbus
 3872              		.syntax unified
 3873              		.thumb
 3874              		.thumb_func
 3876              	USB_DriveVbus:
 3877              	.LVL313:
 3878              	.LFB182:
1560:Drivers/STM32H7xx_HAL_Driver/Src/stm32h7xx_ll_usb.c **** 
1561:Drivers/STM32H7xx_HAL_Driver/Src/stm32h7xx_ll_usb.c **** /**
1562:Drivers/STM32H7xx_HAL_Driver/Src/stm32h7xx_ll_usb.c ****   * @brief  USB_DriveVbus : activate or de-activate vbus
1563:Drivers/STM32H7xx_HAL_Driver/Src/stm32h7xx_ll_usb.c ****   * @param  state  VBUS state
1564:Drivers/STM32H7xx_HAL_Driver/Src/stm32h7xx_ll_usb.c ****   *          This parameter can be one of these values:
1565:Drivers/STM32H7xx_HAL_Driver/Src/stm32h7xx_ll_usb.c ****   *           0 : Deactivate VBUS
1566:Drivers/STM32H7xx_HAL_Driver/Src/stm32h7xx_ll_usb.c ****   *           1 : Activate VBUS
1567:Drivers/STM32H7xx_HAL_Driver/Src/stm32h7xx_ll_usb.c ****   * @retval HAL status
1568:Drivers/STM32H7xx_HAL_Driver/Src/stm32h7xx_ll_usb.c ****   */
1569:Drivers/STM32H7xx_HAL_Driver/Src/stm32h7xx_ll_usb.c **** HAL_StatusTypeDef USB_DriveVbus(const USB_OTG_GlobalTypeDef *USBx, uint8_t state)
1570:Drivers/STM32H7xx_HAL_Driver/Src/stm32h7xx_ll_usb.c **** {
 3879              		.loc 1 1570 1 is_stmt 1 view -0
 3880              		.cfi_startproc
 3881              		@ args = 0, pretend = 0, frame = 8
 3882              		@ frame_needed = 0, uses_anonymous_args = 0
 3883              		@ link register save eliminated.
 3884              		.loc 1 1570 1 is_stmt 0 view .LVU1249
 3885 0000 82B0     		sub	sp, sp, #8
ARM GAS  C:\Users\PgRick\AppData\Local\Temp\ccFebq6t.s 			page 115


 3886              	.LCFI53:
 3887              		.cfi_def_cfa_offset 8
1571:Drivers/STM32H7xx_HAL_Driver/Src/stm32h7xx_ll_usb.c ****   uint32_t USBx_BASE = (uint32_t)USBx;
 3888              		.loc 1 1571 3 is_stmt 1 view .LVU1250
 3889              	.LVL314:
1572:Drivers/STM32H7xx_HAL_Driver/Src/stm32h7xx_ll_usb.c ****   __IO uint32_t hprt0 = 0U;
 3890              		.loc 1 1572 3 view .LVU1251
 3891              		.loc 1 1572 17 is_stmt 0 view .LVU1252
 3892 0002 0023     		movs	r3, #0
 3893 0004 0193     		str	r3, [sp, #4]
1573:Drivers/STM32H7xx_HAL_Driver/Src/stm32h7xx_ll_usb.c **** 
1574:Drivers/STM32H7xx_HAL_Driver/Src/stm32h7xx_ll_usb.c ****   hprt0 = USBx_HPRT0;
 3894              		.loc 1 1574 3 is_stmt 1 view .LVU1253
 3895              		.loc 1 1574 11 is_stmt 0 view .LVU1254
 3896 0006 D0F84034 		ldr	r3, [r0, #1088]
 3897              		.loc 1 1574 9 view .LVU1255
 3898 000a 0193     		str	r3, [sp, #4]
1575:Drivers/STM32H7xx_HAL_Driver/Src/stm32h7xx_ll_usb.c **** 
1576:Drivers/STM32H7xx_HAL_Driver/Src/stm32h7xx_ll_usb.c ****   hprt0 &= ~(USB_OTG_HPRT_PENA | USB_OTG_HPRT_PCDET |
 3899              		.loc 1 1576 3 is_stmt 1 view .LVU1256
 3900              		.loc 1 1576 9 is_stmt 0 view .LVU1257
 3901 000c 019B     		ldr	r3, [sp, #4]
 3902 000e 23F02E03 		bic	r3, r3, #46
 3903 0012 0193     		str	r3, [sp, #4]
1577:Drivers/STM32H7xx_HAL_Driver/Src/stm32h7xx_ll_usb.c ****              USB_OTG_HPRT_PENCHNG | USB_OTG_HPRT_POCCHNG);
1578:Drivers/STM32H7xx_HAL_Driver/Src/stm32h7xx_ll_usb.c **** 
1579:Drivers/STM32H7xx_HAL_Driver/Src/stm32h7xx_ll_usb.c ****   if (((hprt0 & USB_OTG_HPRT_PPWR) == 0U) && (state == 1U))
 3904              		.loc 1 1579 3 is_stmt 1 view .LVU1258
 3905              		.loc 1 1579 15 is_stmt 0 view .LVU1259
 3906 0014 019B     		ldr	r3, [sp, #4]
 3907              		.loc 1 1579 6 view .LVU1260
 3908 0016 13F4805F 		tst	r3, #4096
 3909 001a 01D1     		bne	.L249
 3910              		.loc 1 1579 43 discriminator 1 view .LVU1261
 3911 001c 0129     		cmp	r1, #1
 3912 001e 0CD0     		beq	.L252
 3913              	.L249:
1580:Drivers/STM32H7xx_HAL_Driver/Src/stm32h7xx_ll_usb.c ****   {
1581:Drivers/STM32H7xx_HAL_Driver/Src/stm32h7xx_ll_usb.c ****     USBx_HPRT0 = (USB_OTG_HPRT_PPWR | hprt0);
1582:Drivers/STM32H7xx_HAL_Driver/Src/stm32h7xx_ll_usb.c ****   }
1583:Drivers/STM32H7xx_HAL_Driver/Src/stm32h7xx_ll_usb.c ****   if (((hprt0 & USB_OTG_HPRT_PPWR) == USB_OTG_HPRT_PPWR) && (state == 0U))
 3914              		.loc 1 1583 3 is_stmt 1 view .LVU1262
 3915              		.loc 1 1583 15 is_stmt 0 view .LVU1263
 3916 0020 019B     		ldr	r3, [sp, #4]
 3917              		.loc 1 1583 6 view .LVU1264
 3918 0022 13F4805F 		tst	r3, #4096
 3919 0026 05D0     		beq	.L250
 3920              		.loc 1 1583 58 discriminator 1 view .LVU1265
 3921 0028 21B9     		cbnz	r1, .L250
1584:Drivers/STM32H7xx_HAL_Driver/Src/stm32h7xx_ll_usb.c ****   {
1585:Drivers/STM32H7xx_HAL_Driver/Src/stm32h7xx_ll_usb.c ****     USBx_HPRT0 = ((~USB_OTG_HPRT_PPWR) & hprt0);
 3922              		.loc 1 1585 5 is_stmt 1 view .LVU1266
 3923              		.loc 1 1585 40 is_stmt 0 view .LVU1267
 3924 002a 019B     		ldr	r3, [sp, #4]
 3925 002c 23F48053 		bic	r3, r3, #4096
 3926              		.loc 1 1585 16 view .LVU1268
 3927 0030 C0F84034 		str	r3, [r0, #1088]
ARM GAS  C:\Users\PgRick\AppData\Local\Temp\ccFebq6t.s 			page 116


 3928              	.L250:
1586:Drivers/STM32H7xx_HAL_Driver/Src/stm32h7xx_ll_usb.c ****   }
1587:Drivers/STM32H7xx_HAL_Driver/Src/stm32h7xx_ll_usb.c ****   return HAL_OK;
 3929              		.loc 1 1587 3 is_stmt 1 view .LVU1269
1588:Drivers/STM32H7xx_HAL_Driver/Src/stm32h7xx_ll_usb.c **** }
 3930              		.loc 1 1588 1 is_stmt 0 view .LVU1270
 3931 0034 0020     		movs	r0, #0
 3932              	.LVL315:
 3933              		.loc 1 1588 1 view .LVU1271
 3934 0036 02B0     		add	sp, sp, #8
 3935              	.LCFI54:
 3936              		.cfi_remember_state
 3937              		.cfi_def_cfa_offset 0
 3938              		@ sp needed
 3939 0038 7047     		bx	lr
 3940              	.LVL316:
 3941              	.L252:
 3942              	.LCFI55:
 3943              		.cfi_restore_state
1581:Drivers/STM32H7xx_HAL_Driver/Src/stm32h7xx_ll_usb.c ****   }
 3944              		.loc 1 1581 5 is_stmt 1 view .LVU1272
1581:Drivers/STM32H7xx_HAL_Driver/Src/stm32h7xx_ll_usb.c ****   }
 3945              		.loc 1 1581 37 is_stmt 0 view .LVU1273
 3946 003a 019B     		ldr	r3, [sp, #4]
 3947 003c 43F48053 		orr	r3, r3, #4096
1581:Drivers/STM32H7xx_HAL_Driver/Src/stm32h7xx_ll_usb.c ****   }
 3948              		.loc 1 1581 16 view .LVU1274
 3949 0040 C0F84034 		str	r3, [r0, #1088]
 3950 0044 ECE7     		b	.L249
 3951              		.cfi_endproc
 3952              	.LFE182:
 3954              		.section	.text.USB_GetHostSpeed,"ax",%progbits
 3955              		.align	1
 3956              		.global	USB_GetHostSpeed
 3957              		.syntax unified
 3958              		.thumb
 3959              		.thumb_func
 3961              	USB_GetHostSpeed:
 3962              	.LVL317:
 3963              	.LFB183:
1589:Drivers/STM32H7xx_HAL_Driver/Src/stm32h7xx_ll_usb.c **** 
1590:Drivers/STM32H7xx_HAL_Driver/Src/stm32h7xx_ll_usb.c **** /**
1591:Drivers/STM32H7xx_HAL_Driver/Src/stm32h7xx_ll_usb.c ****   * @brief  Return Host Core speed
1592:Drivers/STM32H7xx_HAL_Driver/Src/stm32h7xx_ll_usb.c ****   * @param  USBx  Selected device
1593:Drivers/STM32H7xx_HAL_Driver/Src/stm32h7xx_ll_usb.c ****   * @retval speed : Host speed
1594:Drivers/STM32H7xx_HAL_Driver/Src/stm32h7xx_ll_usb.c ****   *          This parameter can be one of these values:
1595:Drivers/STM32H7xx_HAL_Driver/Src/stm32h7xx_ll_usb.c ****   *            @arg HCD_SPEED_HIGH: High speed mode
1596:Drivers/STM32H7xx_HAL_Driver/Src/stm32h7xx_ll_usb.c ****   *            @arg HCD_SPEED_FULL: Full speed mode
1597:Drivers/STM32H7xx_HAL_Driver/Src/stm32h7xx_ll_usb.c ****   *            @arg HCD_SPEED_LOW: Low speed mode
1598:Drivers/STM32H7xx_HAL_Driver/Src/stm32h7xx_ll_usb.c ****   */
1599:Drivers/STM32H7xx_HAL_Driver/Src/stm32h7xx_ll_usb.c **** uint32_t USB_GetHostSpeed(USB_OTG_GlobalTypeDef const *USBx)
1600:Drivers/STM32H7xx_HAL_Driver/Src/stm32h7xx_ll_usb.c **** {
 3964              		.loc 1 1600 1 is_stmt 1 view -0
 3965              		.cfi_startproc
 3966              		@ args = 0, pretend = 0, frame = 8
 3967              		@ frame_needed = 0, uses_anonymous_args = 0
 3968              		@ link register save eliminated.
ARM GAS  C:\Users\PgRick\AppData\Local\Temp\ccFebq6t.s 			page 117


 3969              		.loc 1 1600 1 is_stmt 0 view .LVU1276
 3970 0000 82B0     		sub	sp, sp, #8
 3971              	.LCFI56:
 3972              		.cfi_def_cfa_offset 8
1601:Drivers/STM32H7xx_HAL_Driver/Src/stm32h7xx_ll_usb.c ****   uint32_t USBx_BASE = (uint32_t)USBx;
 3973              		.loc 1 1601 3 is_stmt 1 view .LVU1277
 3974              	.LVL318:
1602:Drivers/STM32H7xx_HAL_Driver/Src/stm32h7xx_ll_usb.c ****   __IO uint32_t hprt0 = 0U;
 3975              		.loc 1 1602 3 view .LVU1278
 3976              		.loc 1 1602 17 is_stmt 0 view .LVU1279
 3977 0002 0023     		movs	r3, #0
 3978 0004 0193     		str	r3, [sp, #4]
1603:Drivers/STM32H7xx_HAL_Driver/Src/stm32h7xx_ll_usb.c **** 
1604:Drivers/STM32H7xx_HAL_Driver/Src/stm32h7xx_ll_usb.c ****   hprt0 = USBx_HPRT0;
 3979              		.loc 1 1604 3 is_stmt 1 view .LVU1280
 3980              		.loc 1 1604 11 is_stmt 0 view .LVU1281
 3981 0006 D0F84034 		ldr	r3, [r0, #1088]
 3982              		.loc 1 1604 9 view .LVU1282
 3983 000a 0193     		str	r3, [sp, #4]
1605:Drivers/STM32H7xx_HAL_Driver/Src/stm32h7xx_ll_usb.c ****   return ((hprt0 & USB_OTG_HPRT_PSPD) >> 17);
 3984              		.loc 1 1605 3 is_stmt 1 view .LVU1283
 3985              		.loc 1 1605 39 is_stmt 0 view .LVU1284
 3986 000c 0198     		ldr	r0, [sp, #4]
 3987              	.LVL319:
1606:Drivers/STM32H7xx_HAL_Driver/Src/stm32h7xx_ll_usb.c **** }
 3988              		.loc 1 1606 1 view .LVU1285
 3989 000e C0F34140 		ubfx	r0, r0, #17, #2
 3990 0012 02B0     		add	sp, sp, #8
 3991              	.LCFI57:
 3992              		.cfi_def_cfa_offset 0
 3993              		@ sp needed
 3994 0014 7047     		bx	lr
 3995              		.cfi_endproc
 3996              	.LFE183:
 3998              		.section	.text.USB_GetCurrentFrame,"ax",%progbits
 3999              		.align	1
 4000              		.global	USB_GetCurrentFrame
 4001              		.syntax unified
 4002              		.thumb
 4003              		.thumb_func
 4005              	USB_GetCurrentFrame:
 4006              	.LVL320:
 4007              	.LFB184:
1607:Drivers/STM32H7xx_HAL_Driver/Src/stm32h7xx_ll_usb.c **** 
1608:Drivers/STM32H7xx_HAL_Driver/Src/stm32h7xx_ll_usb.c **** /**
1609:Drivers/STM32H7xx_HAL_Driver/Src/stm32h7xx_ll_usb.c ****   * @brief  Return Host Current Frame number
1610:Drivers/STM32H7xx_HAL_Driver/Src/stm32h7xx_ll_usb.c ****   * @param  USBx  Selected device
1611:Drivers/STM32H7xx_HAL_Driver/Src/stm32h7xx_ll_usb.c ****   * @retval current frame number
1612:Drivers/STM32H7xx_HAL_Driver/Src/stm32h7xx_ll_usb.c ****   */
1613:Drivers/STM32H7xx_HAL_Driver/Src/stm32h7xx_ll_usb.c **** uint32_t USB_GetCurrentFrame(USB_OTG_GlobalTypeDef const *USBx)
1614:Drivers/STM32H7xx_HAL_Driver/Src/stm32h7xx_ll_usb.c **** {
 4008              		.loc 1 1614 1 is_stmt 1 view -0
 4009              		.cfi_startproc
 4010              		@ args = 0, pretend = 0, frame = 0
 4011              		@ frame_needed = 0, uses_anonymous_args = 0
 4012              		@ link register save eliminated.
1615:Drivers/STM32H7xx_HAL_Driver/Src/stm32h7xx_ll_usb.c ****   uint32_t USBx_BASE = (uint32_t)USBx;
ARM GAS  C:\Users\PgRick\AppData\Local\Temp\ccFebq6t.s 			page 118


 4013              		.loc 1 1615 3 view .LVU1287
1616:Drivers/STM32H7xx_HAL_Driver/Src/stm32h7xx_ll_usb.c **** 
1617:Drivers/STM32H7xx_HAL_Driver/Src/stm32h7xx_ll_usb.c ****   return (USBx_HOST->HFNUM & USB_OTG_HFNUM_FRNUM);
 4014              		.loc 1 1617 3 view .LVU1288
 4015              		.loc 1 1617 11 is_stmt 0 view .LVU1289
 4016 0000 00F58060 		add	r0, r0, #1024
 4017              	.LVL321:
 4018              		.loc 1 1617 20 view .LVU1290
 4019 0004 8068     		ldr	r0, [r0, #8]
 4020              	.LVL322:
1618:Drivers/STM32H7xx_HAL_Driver/Src/stm32h7xx_ll_usb.c **** }
 4021              		.loc 1 1618 1 view .LVU1291
 4022 0006 80B2     		uxth	r0, r0
 4023 0008 7047     		bx	lr
 4024              		.cfi_endproc
 4025              	.LFE184:
 4027              		.section	.text.USB_HC_Init,"ax",%progbits
 4028              		.align	1
 4029              		.global	USB_HC_Init
 4030              		.syntax unified
 4031              		.thumb
 4032              		.thumb_func
 4034              	USB_HC_Init:
 4035              	.LVL323:
 4036              	.LFB185:
1619:Drivers/STM32H7xx_HAL_Driver/Src/stm32h7xx_ll_usb.c **** 
1620:Drivers/STM32H7xx_HAL_Driver/Src/stm32h7xx_ll_usb.c **** /**
1621:Drivers/STM32H7xx_HAL_Driver/Src/stm32h7xx_ll_usb.c ****   * @brief  Initialize a host channel
1622:Drivers/STM32H7xx_HAL_Driver/Src/stm32h7xx_ll_usb.c ****   * @param  USBx  Selected device
1623:Drivers/STM32H7xx_HAL_Driver/Src/stm32h7xx_ll_usb.c ****   * @param  ch_num  Channel number
1624:Drivers/STM32H7xx_HAL_Driver/Src/stm32h7xx_ll_usb.c ****   *         This parameter can be a value from 1 to 15
1625:Drivers/STM32H7xx_HAL_Driver/Src/stm32h7xx_ll_usb.c ****   * @param  epnum  Endpoint number
1626:Drivers/STM32H7xx_HAL_Driver/Src/stm32h7xx_ll_usb.c ****   *          This parameter can be a value from 1 to 15
1627:Drivers/STM32H7xx_HAL_Driver/Src/stm32h7xx_ll_usb.c ****   * @param  dev_address  Current device address
1628:Drivers/STM32H7xx_HAL_Driver/Src/stm32h7xx_ll_usb.c ****   *          This parameter can be a value from 0 to 255
1629:Drivers/STM32H7xx_HAL_Driver/Src/stm32h7xx_ll_usb.c ****   * @param  speed  Current device speed
1630:Drivers/STM32H7xx_HAL_Driver/Src/stm32h7xx_ll_usb.c ****   *          This parameter can be one of these values:
1631:Drivers/STM32H7xx_HAL_Driver/Src/stm32h7xx_ll_usb.c ****   *            @arg USB_OTG_SPEED_HIGH: High speed mode
1632:Drivers/STM32H7xx_HAL_Driver/Src/stm32h7xx_ll_usb.c ****   *            @arg USB_OTG_SPEED_FULL: Full speed mode
1633:Drivers/STM32H7xx_HAL_Driver/Src/stm32h7xx_ll_usb.c ****   *            @arg USB_OTG_SPEED_LOW: Low speed mode
1634:Drivers/STM32H7xx_HAL_Driver/Src/stm32h7xx_ll_usb.c ****   * @param  ep_type  Endpoint Type
1635:Drivers/STM32H7xx_HAL_Driver/Src/stm32h7xx_ll_usb.c ****   *          This parameter can be one of these values:
1636:Drivers/STM32H7xx_HAL_Driver/Src/stm32h7xx_ll_usb.c ****   *            @arg EP_TYPE_CTRL: Control type
1637:Drivers/STM32H7xx_HAL_Driver/Src/stm32h7xx_ll_usb.c ****   *            @arg EP_TYPE_ISOC: Isochronous type
1638:Drivers/STM32H7xx_HAL_Driver/Src/stm32h7xx_ll_usb.c ****   *            @arg EP_TYPE_BULK: Bulk type
1639:Drivers/STM32H7xx_HAL_Driver/Src/stm32h7xx_ll_usb.c ****   *            @arg EP_TYPE_INTR: Interrupt type
1640:Drivers/STM32H7xx_HAL_Driver/Src/stm32h7xx_ll_usb.c ****   * @param  mps  Max Packet Size
1641:Drivers/STM32H7xx_HAL_Driver/Src/stm32h7xx_ll_usb.c ****   *          This parameter can be a value from 0 to 32K
1642:Drivers/STM32H7xx_HAL_Driver/Src/stm32h7xx_ll_usb.c ****   * @retval HAL state
1643:Drivers/STM32H7xx_HAL_Driver/Src/stm32h7xx_ll_usb.c ****   */
1644:Drivers/STM32H7xx_HAL_Driver/Src/stm32h7xx_ll_usb.c **** HAL_StatusTypeDef USB_HC_Init(USB_OTG_GlobalTypeDef *USBx, uint8_t ch_num,
1645:Drivers/STM32H7xx_HAL_Driver/Src/stm32h7xx_ll_usb.c ****                               uint8_t epnum, uint8_t dev_address, uint8_t speed,
1646:Drivers/STM32H7xx_HAL_Driver/Src/stm32h7xx_ll_usb.c ****                               uint8_t ep_type, uint16_t mps)
1647:Drivers/STM32H7xx_HAL_Driver/Src/stm32h7xx_ll_usb.c **** {
 4037              		.loc 1 1647 1 is_stmt 1 view -0
 4038              		.cfi_startproc
 4039              		@ args = 12, pretend = 0, frame = 0
ARM GAS  C:\Users\PgRick\AppData\Local\Temp\ccFebq6t.s 			page 119


 4040              		@ frame_needed = 0, uses_anonymous_args = 0
 4041              		.loc 1 1647 1 is_stmt 0 view .LVU1293
 4042 0000 2DE9F843 		push	{r3, r4, r5, r6, r7, r8, r9, lr}
 4043              	.LCFI58:
 4044              		.cfi_def_cfa_offset 32
 4045              		.cfi_offset 3, -32
 4046              		.cfi_offset 4, -28
 4047              		.cfi_offset 5, -24
 4048              		.cfi_offset 6, -20
 4049              		.cfi_offset 7, -16
 4050              		.cfi_offset 8, -12
 4051              		.cfi_offset 9, -8
 4052              		.cfi_offset 14, -4
 4053 0004 9146     		mov	r9, r2
 4054 0006 1C46     		mov	r4, r3
 4055 0008 9DF82450 		ldrb	r5, [sp, #36]	@ zero_extendqisi2
1648:Drivers/STM32H7xx_HAL_Driver/Src/stm32h7xx_ll_usb.c ****   HAL_StatusTypeDef ret = HAL_OK;
 4056              		.loc 1 1648 3 is_stmt 1 view .LVU1294
 4057              	.LVL324:
1649:Drivers/STM32H7xx_HAL_Driver/Src/stm32h7xx_ll_usb.c ****   uint32_t USBx_BASE = (uint32_t)USBx;
 4058              		.loc 1 1649 3 view .LVU1295
1650:Drivers/STM32H7xx_HAL_Driver/Src/stm32h7xx_ll_usb.c ****   uint32_t HCcharEpDir;
 4059              		.loc 1 1650 3 view .LVU1296
1651:Drivers/STM32H7xx_HAL_Driver/Src/stm32h7xx_ll_usb.c ****   uint32_t HCcharLowSpeed;
 4060              		.loc 1 1651 3 view .LVU1297
1652:Drivers/STM32H7xx_HAL_Driver/Src/stm32h7xx_ll_usb.c ****   uint32_t HostCoreSpeed;
 4061              		.loc 1 1652 3 view .LVU1298
1653:Drivers/STM32H7xx_HAL_Driver/Src/stm32h7xx_ll_usb.c **** 
1654:Drivers/STM32H7xx_HAL_Driver/Src/stm32h7xx_ll_usb.c ****   /* Clear old interrupt conditions for this host channel. */
1655:Drivers/STM32H7xx_HAL_Driver/Src/stm32h7xx_ll_usb.c ****   USBx_HC((uint32_t)ch_num)->HCINT = CLEAR_INTERRUPT_MASK;
 4062              		.loc 1 1655 3 view .LVU1299
 4063 000c 00EB4116 		add	r6, r0, r1, lsl #5
 4064 0010 06F5A063 		add	r3, r6, #1280
 4065              	.LVL325:
 4066              		.loc 1 1655 36 is_stmt 0 view .LVU1300
 4067 0014 4FF0FF32 		mov	r2, #-1
 4068              	.LVL326:
 4069              		.loc 1 1655 36 view .LVU1301
 4070 0018 9A60     		str	r2, [r3, #8]
1656:Drivers/STM32H7xx_HAL_Driver/Src/stm32h7xx_ll_usb.c **** 
1657:Drivers/STM32H7xx_HAL_Driver/Src/stm32h7xx_ll_usb.c ****   /* Enable channel interrupts required for this transfer. */
1658:Drivers/STM32H7xx_HAL_Driver/Src/stm32h7xx_ll_usb.c ****   switch (ep_type)
 4071              		.loc 1 1658 3 is_stmt 1 view .LVU1302
 4072 001a 032D     		cmp	r5, #3
 4073 001c 7ED8     		bhi	.L266
 4074 001e DFE805F0 		tbb	[pc, r5]
 4075              	.L259:
 4076 0022 02       		.byte	(.L260-.L259)/2
 4077 0023 6F       		.byte	(.L261-.L259)/2
 4078 0024 02       		.byte	(.L260-.L259)/2
 4079 0025 61       		.byte	(.L258-.L259)/2
 4080              		.p2align 1
 4081              	.L260:
1659:Drivers/STM32H7xx_HAL_Driver/Src/stm32h7xx_ll_usb.c ****   {
1660:Drivers/STM32H7xx_HAL_Driver/Src/stm32h7xx_ll_usb.c ****     case EP_TYPE_CTRL:
1661:Drivers/STM32H7xx_HAL_Driver/Src/stm32h7xx_ll_usb.c ****     case EP_TYPE_BULK:
1662:Drivers/STM32H7xx_HAL_Driver/Src/stm32h7xx_ll_usb.c ****       USBx_HC((uint32_t)ch_num)->HCINTMSK = USB_OTG_HCINTMSK_XFRCM  |
ARM GAS  C:\Users\PgRick\AppData\Local\Temp\ccFebq6t.s 			page 120


 4082              		.loc 1 1662 7 view .LVU1303
 4083              		.loc 1 1662 43 is_stmt 0 view .LVU1304
 4084 0026 40F29D42 		movw	r2, #1181
 4085 002a DA60     		str	r2, [r3, #12]
1663:Drivers/STM32H7xx_HAL_Driver/Src/stm32h7xx_ll_usb.c ****                                             USB_OTG_HCINTMSK_STALLM |
1664:Drivers/STM32H7xx_HAL_Driver/Src/stm32h7xx_ll_usb.c ****                                             USB_OTG_HCINTMSK_TXERRM |
1665:Drivers/STM32H7xx_HAL_Driver/Src/stm32h7xx_ll_usb.c ****                                             USB_OTG_HCINTMSK_DTERRM |
1666:Drivers/STM32H7xx_HAL_Driver/Src/stm32h7xx_ll_usb.c ****                                             USB_OTG_HCINTMSK_AHBERR |
1667:Drivers/STM32H7xx_HAL_Driver/Src/stm32h7xx_ll_usb.c ****                                             USB_OTG_HCINTMSK_NAKM;
1668:Drivers/STM32H7xx_HAL_Driver/Src/stm32h7xx_ll_usb.c **** 
1669:Drivers/STM32H7xx_HAL_Driver/Src/stm32h7xx_ll_usb.c ****       if ((epnum & 0x80U) == 0x80U)
 4086              		.loc 1 1669 7 is_stmt 1 view .LVU1305
 4087              		.loc 1 1669 10 is_stmt 0 view .LVU1306
 4088 002c 19F0800F 		tst	r9, #128
 4089 0030 52D1     		bne	.L272
1670:Drivers/STM32H7xx_HAL_Driver/Src/stm32h7xx_ll_usb.c ****       {
1671:Drivers/STM32H7xx_HAL_Driver/Src/stm32h7xx_ll_usb.c ****         USBx_HC((uint32_t)ch_num)->HCINTMSK |= USB_OTG_HCINTMSK_BBERRM;
1672:Drivers/STM32H7xx_HAL_Driver/Src/stm32h7xx_ll_usb.c ****       }
1673:Drivers/STM32H7xx_HAL_Driver/Src/stm32h7xx_ll_usb.c ****       else
1674:Drivers/STM32H7xx_HAL_Driver/Src/stm32h7xx_ll_usb.c ****       {
1675:Drivers/STM32H7xx_HAL_Driver/Src/stm32h7xx_ll_usb.c ****         USBx_HC((uint32_t)ch_num)->HCINTMSK |= USB_OTG_HCINTMSK_NYET |
 4090              		.loc 1 1675 9 is_stmt 1 view .LVU1307
 4091              		.loc 1 1675 45 is_stmt 0 view .LVU1308
 4092 0032 DA68     		ldr	r2, [r3, #12]
 4093 0034 42F06002 		orr	r2, r2, #96
 4094 0038 DA60     		str	r2, [r3, #12]
1648:Drivers/STM32H7xx_HAL_Driver/Src/stm32h7xx_ll_usb.c ****   uint32_t USBx_BASE = (uint32_t)USBx;
 4095              		.loc 1 1648 21 view .LVU1309
 4096 003a 0027     		movs	r7, #0
 4097              	.L257:
 4098              	.LVL327:
1676:Drivers/STM32H7xx_HAL_Driver/Src/stm32h7xx_ll_usb.c ****                                                USB_OTG_HCINTMSK_ACKM;
1677:Drivers/STM32H7xx_HAL_Driver/Src/stm32h7xx_ll_usb.c ****       }
1678:Drivers/STM32H7xx_HAL_Driver/Src/stm32h7xx_ll_usb.c ****       break;
1679:Drivers/STM32H7xx_HAL_Driver/Src/stm32h7xx_ll_usb.c **** 
1680:Drivers/STM32H7xx_HAL_Driver/Src/stm32h7xx_ll_usb.c ****     case EP_TYPE_INTR:
1681:Drivers/STM32H7xx_HAL_Driver/Src/stm32h7xx_ll_usb.c ****       USBx_HC((uint32_t)ch_num)->HCINTMSK = USB_OTG_HCINTMSK_XFRCM  |
1682:Drivers/STM32H7xx_HAL_Driver/Src/stm32h7xx_ll_usb.c ****                                             USB_OTG_HCINTMSK_STALLM |
1683:Drivers/STM32H7xx_HAL_Driver/Src/stm32h7xx_ll_usb.c ****                                             USB_OTG_HCINTMSK_TXERRM |
1684:Drivers/STM32H7xx_HAL_Driver/Src/stm32h7xx_ll_usb.c ****                                             USB_OTG_HCINTMSK_DTERRM |
1685:Drivers/STM32H7xx_HAL_Driver/Src/stm32h7xx_ll_usb.c ****                                             USB_OTG_HCINTMSK_NAKM   |
1686:Drivers/STM32H7xx_HAL_Driver/Src/stm32h7xx_ll_usb.c ****                                             USB_OTG_HCINTMSK_AHBERR |
1687:Drivers/STM32H7xx_HAL_Driver/Src/stm32h7xx_ll_usb.c ****                                             USB_OTG_HCINTMSK_FRMORM;
1688:Drivers/STM32H7xx_HAL_Driver/Src/stm32h7xx_ll_usb.c **** 
1689:Drivers/STM32H7xx_HAL_Driver/Src/stm32h7xx_ll_usb.c ****       if ((epnum & 0x80U) == 0x80U)
1690:Drivers/STM32H7xx_HAL_Driver/Src/stm32h7xx_ll_usb.c ****       {
1691:Drivers/STM32H7xx_HAL_Driver/Src/stm32h7xx_ll_usb.c ****         USBx_HC((uint32_t)ch_num)->HCINTMSK |= USB_OTG_HCINTMSK_BBERRM;
1692:Drivers/STM32H7xx_HAL_Driver/Src/stm32h7xx_ll_usb.c ****       }
1693:Drivers/STM32H7xx_HAL_Driver/Src/stm32h7xx_ll_usb.c **** 
1694:Drivers/STM32H7xx_HAL_Driver/Src/stm32h7xx_ll_usb.c ****       break;
1695:Drivers/STM32H7xx_HAL_Driver/Src/stm32h7xx_ll_usb.c **** 
1696:Drivers/STM32H7xx_HAL_Driver/Src/stm32h7xx_ll_usb.c ****     case EP_TYPE_ISOC:
1697:Drivers/STM32H7xx_HAL_Driver/Src/stm32h7xx_ll_usb.c ****       USBx_HC((uint32_t)ch_num)->HCINTMSK = USB_OTG_HCINTMSK_XFRCM  |
1698:Drivers/STM32H7xx_HAL_Driver/Src/stm32h7xx_ll_usb.c ****                                             USB_OTG_HCINTMSK_ACKM   |
1699:Drivers/STM32H7xx_HAL_Driver/Src/stm32h7xx_ll_usb.c ****                                             USB_OTG_HCINTMSK_AHBERR |
1700:Drivers/STM32H7xx_HAL_Driver/Src/stm32h7xx_ll_usb.c ****                                             USB_OTG_HCINTMSK_FRMORM;
1701:Drivers/STM32H7xx_HAL_Driver/Src/stm32h7xx_ll_usb.c **** 
ARM GAS  C:\Users\PgRick\AppData\Local\Temp\ccFebq6t.s 			page 121


1702:Drivers/STM32H7xx_HAL_Driver/Src/stm32h7xx_ll_usb.c ****       if ((epnum & 0x80U) == 0x80U)
1703:Drivers/STM32H7xx_HAL_Driver/Src/stm32h7xx_ll_usb.c ****       {
1704:Drivers/STM32H7xx_HAL_Driver/Src/stm32h7xx_ll_usb.c ****         USBx_HC((uint32_t)ch_num)->HCINTMSK |= (USB_OTG_HCINTMSK_TXERRM | USB_OTG_HCINTMSK_BBERRM);
1705:Drivers/STM32H7xx_HAL_Driver/Src/stm32h7xx_ll_usb.c ****       }
1706:Drivers/STM32H7xx_HAL_Driver/Src/stm32h7xx_ll_usb.c ****       break;
1707:Drivers/STM32H7xx_HAL_Driver/Src/stm32h7xx_ll_usb.c **** 
1708:Drivers/STM32H7xx_HAL_Driver/Src/stm32h7xx_ll_usb.c ****     default:
1709:Drivers/STM32H7xx_HAL_Driver/Src/stm32h7xx_ll_usb.c ****       ret = HAL_ERROR;
1710:Drivers/STM32H7xx_HAL_Driver/Src/stm32h7xx_ll_usb.c ****       break;
1711:Drivers/STM32H7xx_HAL_Driver/Src/stm32h7xx_ll_usb.c ****   }
1712:Drivers/STM32H7xx_HAL_Driver/Src/stm32h7xx_ll_usb.c **** 
1713:Drivers/STM32H7xx_HAL_Driver/Src/stm32h7xx_ll_usb.c ****   /* Clear Hub Start Split transaction */
1714:Drivers/STM32H7xx_HAL_Driver/Src/stm32h7xx_ll_usb.c ****   USBx_HC((uint32_t)ch_num)->HCSPLT = 0U;
 4099              		.loc 1 1714 3 is_stmt 1 view .LVU1310
 4100              		.loc 1 1714 37 is_stmt 0 view .LVU1311
 4101 003c 0022     		movs	r2, #0
 4102 003e 5A60     		str	r2, [r3, #4]
1715:Drivers/STM32H7xx_HAL_Driver/Src/stm32h7xx_ll_usb.c **** 
1716:Drivers/STM32H7xx_HAL_Driver/Src/stm32h7xx_ll_usb.c ****   /* Enable host channel Halt interrupt */
1717:Drivers/STM32H7xx_HAL_Driver/Src/stm32h7xx_ll_usb.c ****   USBx_HC((uint32_t)ch_num)->HCINTMSK |= USB_OTG_HCINTMSK_CHHM;
 4103              		.loc 1 1717 3 is_stmt 1 view .LVU1312
 4104              		.loc 1 1717 39 is_stmt 0 view .LVU1313
 4105 0040 DA68     		ldr	r2, [r3, #12]
 4106 0042 42F00202 		orr	r2, r2, #2
 4107 0046 DA60     		str	r2, [r3, #12]
1718:Drivers/STM32H7xx_HAL_Driver/Src/stm32h7xx_ll_usb.c **** 
1719:Drivers/STM32H7xx_HAL_Driver/Src/stm32h7xx_ll_usb.c ****   /* Enable the top level host channel interrupt. */
1720:Drivers/STM32H7xx_HAL_Driver/Src/stm32h7xx_ll_usb.c ****   USBx_HOST->HAINTMSK |= 1UL << (ch_num & 0xFU);
 4108              		.loc 1 1720 3 is_stmt 1 view .LVU1314
 4109              		.loc 1 1720 23 is_stmt 0 view .LVU1315
 4110 0048 D0F81834 		ldr	r3, [r0, #1048]
 4111              		.loc 1 1720 41 view .LVU1316
 4112 004c 01F00F01 		and	r1, r1, #15
 4113              	.LVL328:
 4114              		.loc 1 1720 30 view .LVU1317
 4115 0050 0122     		movs	r2, #1
 4116 0052 02FA01F1 		lsl	r1, r2, r1
 4117              		.loc 1 1720 23 view .LVU1318
 4118 0056 1943     		orrs	r1, r1, r3
 4119 0058 C0F81814 		str	r1, [r0, #1048]
1721:Drivers/STM32H7xx_HAL_Driver/Src/stm32h7xx_ll_usb.c **** 
1722:Drivers/STM32H7xx_HAL_Driver/Src/stm32h7xx_ll_usb.c ****   /* Make sure host channel interrupts are enabled. */
1723:Drivers/STM32H7xx_HAL_Driver/Src/stm32h7xx_ll_usb.c ****   USBx->GINTMSK |= USB_OTG_GINTMSK_HCIM;
 4120              		.loc 1 1723 3 is_stmt 1 view .LVU1319
 4121              		.loc 1 1723 17 is_stmt 0 view .LVU1320
 4122 005c 8369     		ldr	r3, [r0, #24]
 4123 005e 43F00073 		orr	r3, r3, #33554432
 4124 0062 8361     		str	r3, [r0, #24]
1724:Drivers/STM32H7xx_HAL_Driver/Src/stm32h7xx_ll_usb.c **** 
1725:Drivers/STM32H7xx_HAL_Driver/Src/stm32h7xx_ll_usb.c ****   /* Program the HCCHAR register */
1726:Drivers/STM32H7xx_HAL_Driver/Src/stm32h7xx_ll_usb.c ****   if ((epnum & 0x80U) == 0x80U)
 4125              		.loc 1 1726 3 is_stmt 1 view .LVU1321
 4126              		.loc 1 1726 6 is_stmt 0 view .LVU1322
 4127 0064 19F0800F 		tst	r9, #128
 4128 0068 5AD1     		bne	.L273
1727:Drivers/STM32H7xx_HAL_Driver/Src/stm32h7xx_ll_usb.c ****   {
1728:Drivers/STM32H7xx_HAL_Driver/Src/stm32h7xx_ll_usb.c ****     HCcharEpDir = (0x1U << 15) & USB_OTG_HCCHAR_EPDIR;
ARM GAS  C:\Users\PgRick\AppData\Local\Temp\ccFebq6t.s 			page 122


1729:Drivers/STM32H7xx_HAL_Driver/Src/stm32h7xx_ll_usb.c ****   }
1730:Drivers/STM32H7xx_HAL_Driver/Src/stm32h7xx_ll_usb.c ****   else
1731:Drivers/STM32H7xx_HAL_Driver/Src/stm32h7xx_ll_usb.c ****   {
1732:Drivers/STM32H7xx_HAL_Driver/Src/stm32h7xx_ll_usb.c ****     HCcharEpDir = 0U;
 4129              		.loc 1 1732 17 view .LVU1323
 4130 006a 4FF00008 		mov	r8, #0
 4131              	.L263:
 4132              	.LVL329:
1733:Drivers/STM32H7xx_HAL_Driver/Src/stm32h7xx_ll_usb.c ****   }
1734:Drivers/STM32H7xx_HAL_Driver/Src/stm32h7xx_ll_usb.c **** 
1735:Drivers/STM32H7xx_HAL_Driver/Src/stm32h7xx_ll_usb.c ****   HostCoreSpeed = USB_GetHostSpeed(USBx);
 4133              		.loc 1 1735 3 is_stmt 1 view .LVU1324
 4134              		.loc 1 1735 19 is_stmt 0 view .LVU1325
 4135 006e FFF7FEFF 		bl	USB_GetHostSpeed
 4136              	.LVL330:
1736:Drivers/STM32H7xx_HAL_Driver/Src/stm32h7xx_ll_usb.c **** 
1737:Drivers/STM32H7xx_HAL_Driver/Src/stm32h7xx_ll_usb.c ****   /* LS device plugged to HUB */
1738:Drivers/STM32H7xx_HAL_Driver/Src/stm32h7xx_ll_usb.c ****   if ((speed == HPRT0_PRTSPD_LOW_SPEED) && (HostCoreSpeed != HPRT0_PRTSPD_LOW_SPEED))
 4137              		.loc 1 1738 3 is_stmt 1 view .LVU1326
 4138              		.loc 1 1738 41 is_stmt 0 view .LVU1327
 4139 0072 9DF82030 		ldrb	r3, [sp, #32]	@ zero_extendqisi2
 4140 0076 022B     		cmp	r3, #2
 4141 0078 14BF     		ite	ne
 4142 007a 0023     		movne	r3, #0
 4143 007c 0123     		moveq	r3, #1
 4144 007e 0228     		cmp	r0, #2
 4145 0080 08BF     		it	eq
 4146 0082 0023     		moveq	r3, #0
 4147              		.loc 1 1738 6 view .LVU1328
 4148 0084 002B     		cmp	r3, #0
 4149 0086 4ED0     		beq	.L270
1739:Drivers/STM32H7xx_HAL_Driver/Src/stm32h7xx_ll_usb.c ****   {
1740:Drivers/STM32H7xx_HAL_Driver/Src/stm32h7xx_ll_usb.c ****     HCcharLowSpeed = (0x1U << 17) & USB_OTG_HCCHAR_LSDEV;
 4150              		.loc 1 1740 20 view .LVU1329
 4151 0088 4FF40031 		mov	r1, #131072
 4152              	.L264:
 4153              	.LVL331:
1741:Drivers/STM32H7xx_HAL_Driver/Src/stm32h7xx_ll_usb.c ****   }
1742:Drivers/STM32H7xx_HAL_Driver/Src/stm32h7xx_ll_usb.c ****   else
1743:Drivers/STM32H7xx_HAL_Driver/Src/stm32h7xx_ll_usb.c ****   {
1744:Drivers/STM32H7xx_HAL_Driver/Src/stm32h7xx_ll_usb.c ****     HCcharLowSpeed = 0U;
1745:Drivers/STM32H7xx_HAL_Driver/Src/stm32h7xx_ll_usb.c ****   }
1746:Drivers/STM32H7xx_HAL_Driver/Src/stm32h7xx_ll_usb.c **** 
1747:Drivers/STM32H7xx_HAL_Driver/Src/stm32h7xx_ll_usb.c ****   USBx_HC((uint32_t)ch_num)->HCCHAR = (((uint32_t)dev_address << 22) & USB_OTG_HCCHAR_DAD) |
 4154              		.loc 1 1747 3 is_stmt 1 view .LVU1330
 4155              		.loc 1 1747 63 is_stmt 0 view .LVU1331
 4156 008c A305     		lsls	r3, r4, #22
 4157              		.loc 1 1747 70 view .LVU1332
 4158 008e 03F0FE53 		and	r3, r3, #532676608
1748:Drivers/STM32H7xx_HAL_Driver/Src/stm32h7xx_ll_usb.c ****                                       ((((uint32_t)epnum & 0x7FU) << 11) & USB_OTG_HCCHAR_EPNUM) |
 4159              		.loc 1 1748 67 view .LVU1333
 4160 0092 4FEAC929 		lsl	r9, r9, #11
 4161              		.loc 1 1748 74 view .LVU1334
 4162 0096 09F4F049 		and	r9, r9, #30720
1747:Drivers/STM32H7xx_HAL_Driver/Src/stm32h7xx_ll_usb.c ****                                       ((((uint32_t)epnum & 0x7FU) << 11) & USB_OTG_HCCHAR_EPNUM) |
 4163              		.loc 1 1747 92 view .LVU1335
 4164 009a 43EA0903 		orr	r3, r3, r9
ARM GAS  C:\Users\PgRick\AppData\Local\Temp\ccFebq6t.s 			page 123


1749:Drivers/STM32H7xx_HAL_Driver/Src/stm32h7xx_ll_usb.c ****                                       (((uint32_t)ep_type << 18) & USB_OTG_HCCHAR_EPTYP) |
 4165              		.loc 1 1749 59 view .LVU1336
 4166 009e AC04     		lsls	r4, r5, #18
 4167              		.loc 1 1749 66 view .LVU1337
 4168 00a0 04F44024 		and	r4, r4, #786432
1748:Drivers/STM32H7xx_HAL_Driver/Src/stm32h7xx_ll_usb.c ****                                       ((((uint32_t)epnum & 0x7FU) << 11) & USB_OTG_HCCHAR_EPNUM) |
 4169              		.loc 1 1748 98 view .LVU1338
 4170 00a4 2343     		orrs	r3, r3, r4
1750:Drivers/STM32H7xx_HAL_Driver/Src/stm32h7xx_ll_usb.c ****                                       ((uint32_t)mps & USB_OTG_HCCHAR_MPSIZ) |
 4171              		.loc 1 1750 54 view .LVU1339
 4172 00a6 BDF82820 		ldrh	r2, [sp, #40]
 4173 00aa C2F30A02 		ubfx	r2, r2, #0, #11
1749:Drivers/STM32H7xx_HAL_Driver/Src/stm32h7xx_ll_usb.c ****                                       (((uint32_t)ep_type << 18) & USB_OTG_HCCHAR_EPTYP) |
 4174              		.loc 1 1749 90 view .LVU1340
 4175 00ae 1343     		orrs	r3, r3, r2
1751:Drivers/STM32H7xx_HAL_Driver/Src/stm32h7xx_ll_usb.c ****                                       USB_OTG_HCCHAR_MC_0 | HCcharEpDir | HCcharLowSpeed;
 4176              		.loc 1 1751 59 view .LVU1341
 4177 00b0 43EA0803 		orr	r3, r3, r8
 4178              		.loc 1 1751 73 view .LVU1342
 4179 00b4 0B43     		orrs	r3, r3, r1
 4180 00b6 43F48013 		orr	r3, r3, #1048576
1747:Drivers/STM32H7xx_HAL_Driver/Src/stm32h7xx_ll_usb.c ****                                       ((((uint32_t)epnum & 0x7FU) << 11) & USB_OTG_HCCHAR_EPNUM) |
 4181              		.loc 1 1747 37 view .LVU1343
 4182 00ba C6F80035 		str	r3, [r6, #1280]
1752:Drivers/STM32H7xx_HAL_Driver/Src/stm32h7xx_ll_usb.c **** 
1753:Drivers/STM32H7xx_HAL_Driver/Src/stm32h7xx_ll_usb.c ****   if ((ep_type == EP_TYPE_INTR) || (ep_type == EP_TYPE_ISOC))
 4183              		.loc 1 1753 3 is_stmt 1 view .LVU1344
 4184              		.loc 1 1753 6 is_stmt 0 view .LVU1345
 4185 00be 012D     		cmp	r5, #1
 4186 00c0 18BF     		it	ne
 4187 00c2 032D     		cmpne	r5, #3
 4188 00c4 05D1     		bne	.L265
1754:Drivers/STM32H7xx_HAL_Driver/Src/stm32h7xx_ll_usb.c ****   {
1755:Drivers/STM32H7xx_HAL_Driver/Src/stm32h7xx_ll_usb.c ****     USBx_HC((uint32_t)ch_num)->HCCHAR |= USB_OTG_HCCHAR_ODDFRM;
 4189              		.loc 1 1755 5 is_stmt 1 view .LVU1346
 4190              		.loc 1 1755 39 is_stmt 0 view .LVU1347
 4191 00c6 D6F80035 		ldr	r3, [r6, #1280]
 4192 00ca 43F00053 		orr	r3, r3, #536870912
 4193 00ce C6F80035 		str	r3, [r6, #1280]
 4194              	.L265:
1756:Drivers/STM32H7xx_HAL_Driver/Src/stm32h7xx_ll_usb.c ****   }
1757:Drivers/STM32H7xx_HAL_Driver/Src/stm32h7xx_ll_usb.c **** 
1758:Drivers/STM32H7xx_HAL_Driver/Src/stm32h7xx_ll_usb.c ****   return ret;
 4195              		.loc 1 1758 3 is_stmt 1 view .LVU1348
1759:Drivers/STM32H7xx_HAL_Driver/Src/stm32h7xx_ll_usb.c **** }
 4196              		.loc 1 1759 1 is_stmt 0 view .LVU1349
 4197 00d2 3846     		mov	r0, r7
 4198              	.LVL332:
 4199              		.loc 1 1759 1 view .LVU1350
 4200 00d4 BDE8F883 		pop	{r3, r4, r5, r6, r7, r8, r9, pc}
 4201              	.LVL333:
 4202              	.L272:
1671:Drivers/STM32H7xx_HAL_Driver/Src/stm32h7xx_ll_usb.c ****       }
 4203              		.loc 1 1671 9 is_stmt 1 view .LVU1351
1671:Drivers/STM32H7xx_HAL_Driver/Src/stm32h7xx_ll_usb.c ****       }
 4204              		.loc 1 1671 45 is_stmt 0 view .LVU1352
 4205 00d8 DA68     		ldr	r2, [r3, #12]
ARM GAS  C:\Users\PgRick\AppData\Local\Temp\ccFebq6t.s 			page 124


 4206 00da 42F48072 		orr	r2, r2, #256
 4207 00de DA60     		str	r2, [r3, #12]
1648:Drivers/STM32H7xx_HAL_Driver/Src/stm32h7xx_ll_usb.c ****   uint32_t USBx_BASE = (uint32_t)USBx;
 4208              		.loc 1 1648 21 view .LVU1353
 4209 00e0 0027     		movs	r7, #0
 4210 00e2 ABE7     		b	.L257
 4211              	.L258:
1681:Drivers/STM32H7xx_HAL_Driver/Src/stm32h7xx_ll_usb.c ****                                             USB_OTG_HCINTMSK_STALLM |
 4212              		.loc 1 1681 7 is_stmt 1 view .LVU1354
1681:Drivers/STM32H7xx_HAL_Driver/Src/stm32h7xx_ll_usb.c ****                                             USB_OTG_HCINTMSK_STALLM |
 4213              		.loc 1 1681 43 is_stmt 0 view .LVU1355
 4214 00e4 40F29D62 		movw	r2, #1693
 4215 00e8 DA60     		str	r2, [r3, #12]
1689:Drivers/STM32H7xx_HAL_Driver/Src/stm32h7xx_ll_usb.c ****       {
 4216              		.loc 1 1689 7 is_stmt 1 view .LVU1356
1689:Drivers/STM32H7xx_HAL_Driver/Src/stm32h7xx_ll_usb.c ****       {
 4217              		.loc 1 1689 10 is_stmt 0 view .LVU1357
 4218 00ea 19F0800F 		tst	r9, #128
 4219 00ee 01D1     		bne	.L274
1648:Drivers/STM32H7xx_HAL_Driver/Src/stm32h7xx_ll_usb.c ****   uint32_t USBx_BASE = (uint32_t)USBx;
 4220              		.loc 1 1648 21 view .LVU1358
 4221 00f0 0027     		movs	r7, #0
 4222 00f2 A3E7     		b	.L257
 4223              	.L274:
1691:Drivers/STM32H7xx_HAL_Driver/Src/stm32h7xx_ll_usb.c ****       }
 4224              		.loc 1 1691 9 is_stmt 1 view .LVU1359
1691:Drivers/STM32H7xx_HAL_Driver/Src/stm32h7xx_ll_usb.c ****       }
 4225              		.loc 1 1691 45 is_stmt 0 view .LVU1360
 4226 00f4 DA68     		ldr	r2, [r3, #12]
 4227 00f6 42F48072 		orr	r2, r2, #256
 4228 00fa DA60     		str	r2, [r3, #12]
1648:Drivers/STM32H7xx_HAL_Driver/Src/stm32h7xx_ll_usb.c ****   uint32_t USBx_BASE = (uint32_t)USBx;
 4229              		.loc 1 1648 21 view .LVU1361
 4230 00fc 0027     		movs	r7, #0
 4231 00fe 9DE7     		b	.L257
 4232              	.L261:
1697:Drivers/STM32H7xx_HAL_Driver/Src/stm32h7xx_ll_usb.c ****                                             USB_OTG_HCINTMSK_ACKM   |
 4233              		.loc 1 1697 7 is_stmt 1 view .LVU1362
1697:Drivers/STM32H7xx_HAL_Driver/Src/stm32h7xx_ll_usb.c ****                                             USB_OTG_HCINTMSK_ACKM   |
 4234              		.loc 1 1697 43 is_stmt 0 view .LVU1363
 4235 0100 40F22522 		movw	r2, #549
 4236 0104 DA60     		str	r2, [r3, #12]
1702:Drivers/STM32H7xx_HAL_Driver/Src/stm32h7xx_ll_usb.c ****       {
 4237              		.loc 1 1702 7 is_stmt 1 view .LVU1364
1702:Drivers/STM32H7xx_HAL_Driver/Src/stm32h7xx_ll_usb.c ****       {
 4238              		.loc 1 1702 10 is_stmt 0 view .LVU1365
 4239 0106 19F0800F 		tst	r9, #128
 4240 010a 01D1     		bne	.L275
1648:Drivers/STM32H7xx_HAL_Driver/Src/stm32h7xx_ll_usb.c ****   uint32_t USBx_BASE = (uint32_t)USBx;
 4241              		.loc 1 1648 21 view .LVU1366
 4242 010c 0027     		movs	r7, #0
 4243 010e 95E7     		b	.L257
 4244              	.L275:
1704:Drivers/STM32H7xx_HAL_Driver/Src/stm32h7xx_ll_usb.c ****       }
 4245              		.loc 1 1704 9 is_stmt 1 view .LVU1367
1704:Drivers/STM32H7xx_HAL_Driver/Src/stm32h7xx_ll_usb.c ****       }
 4246              		.loc 1 1704 45 is_stmt 0 view .LVU1368
ARM GAS  C:\Users\PgRick\AppData\Local\Temp\ccFebq6t.s 			page 125


 4247 0110 DA68     		ldr	r2, [r3, #12]
 4248 0112 42F4C072 		orr	r2, r2, #384
 4249 0116 DA60     		str	r2, [r3, #12]
1648:Drivers/STM32H7xx_HAL_Driver/Src/stm32h7xx_ll_usb.c ****   uint32_t USBx_BASE = (uint32_t)USBx;
 4250              		.loc 1 1648 21 view .LVU1369
 4251 0118 0027     		movs	r7, #0
 4252 011a 8FE7     		b	.L257
 4253              	.L266:
1658:Drivers/STM32H7xx_HAL_Driver/Src/stm32h7xx_ll_usb.c ****   {
 4254              		.loc 1 1658 3 view .LVU1370
 4255 011c 0127     		movs	r7, #1
 4256 011e 8DE7     		b	.L257
 4257              	.LVL334:
 4258              	.L273:
1728:Drivers/STM32H7xx_HAL_Driver/Src/stm32h7xx_ll_usb.c ****   }
 4259              		.loc 1 1728 17 view .LVU1371
 4260 0120 4FF40048 		mov	r8, #32768
 4261 0124 A3E7     		b	.L263
 4262              	.LVL335:
 4263              	.L270:
1744:Drivers/STM32H7xx_HAL_Driver/Src/stm32h7xx_ll_usb.c ****   }
 4264              		.loc 1 1744 20 view .LVU1372
 4265 0126 0021     		movs	r1, #0
 4266 0128 B0E7     		b	.L264
 4267              		.cfi_endproc
 4268              	.LFE185:
 4270              		.section	.text.USB_HC_ReadInterrupt,"ax",%progbits
 4271              		.align	1
 4272              		.global	USB_HC_ReadInterrupt
 4273              		.syntax unified
 4274              		.thumb
 4275              		.thumb_func
 4277              	USB_HC_ReadInterrupt:
 4278              	.LVL336:
 4279              	.LFB187:
1760:Drivers/STM32H7xx_HAL_Driver/Src/stm32h7xx_ll_usb.c **** 
1761:Drivers/STM32H7xx_HAL_Driver/Src/stm32h7xx_ll_usb.c **** /**
1762:Drivers/STM32H7xx_HAL_Driver/Src/stm32h7xx_ll_usb.c ****   * @brief  Start a transfer over a host channel
1763:Drivers/STM32H7xx_HAL_Driver/Src/stm32h7xx_ll_usb.c ****   * @param  USBx  Selected device
1764:Drivers/STM32H7xx_HAL_Driver/Src/stm32h7xx_ll_usb.c ****   * @param  hc  pointer to host channel structure
1765:Drivers/STM32H7xx_HAL_Driver/Src/stm32h7xx_ll_usb.c ****   * @param  dma USB dma enabled or disabled
1766:Drivers/STM32H7xx_HAL_Driver/Src/stm32h7xx_ll_usb.c ****   *          This parameter can be one of these values:
1767:Drivers/STM32H7xx_HAL_Driver/Src/stm32h7xx_ll_usb.c ****   *           0 : DMA feature not used
1768:Drivers/STM32H7xx_HAL_Driver/Src/stm32h7xx_ll_usb.c ****   *           1 : DMA feature used
1769:Drivers/STM32H7xx_HAL_Driver/Src/stm32h7xx_ll_usb.c ****   * @retval HAL state
1770:Drivers/STM32H7xx_HAL_Driver/Src/stm32h7xx_ll_usb.c ****   */
1771:Drivers/STM32H7xx_HAL_Driver/Src/stm32h7xx_ll_usb.c **** HAL_StatusTypeDef USB_HC_StartXfer(USB_OTG_GlobalTypeDef *USBx, USB_OTG_HCTypeDef *hc, uint8_t dma)
1772:Drivers/STM32H7xx_HAL_Driver/Src/stm32h7xx_ll_usb.c **** {
1773:Drivers/STM32H7xx_HAL_Driver/Src/stm32h7xx_ll_usb.c ****   uint32_t USBx_BASE = (uint32_t)USBx;
1774:Drivers/STM32H7xx_HAL_Driver/Src/stm32h7xx_ll_usb.c ****   uint32_t ch_num = (uint32_t)hc->ch_num;
1775:Drivers/STM32H7xx_HAL_Driver/Src/stm32h7xx_ll_usb.c ****   __IO uint32_t tmpreg;
1776:Drivers/STM32H7xx_HAL_Driver/Src/stm32h7xx_ll_usb.c ****   uint8_t  is_oddframe;
1777:Drivers/STM32H7xx_HAL_Driver/Src/stm32h7xx_ll_usb.c ****   uint16_t len_words;
1778:Drivers/STM32H7xx_HAL_Driver/Src/stm32h7xx_ll_usb.c ****   uint16_t num_packets;
1779:Drivers/STM32H7xx_HAL_Driver/Src/stm32h7xx_ll_usb.c ****   uint16_t max_hc_pkt_count = HC_MAX_PKT_CNT;
1780:Drivers/STM32H7xx_HAL_Driver/Src/stm32h7xx_ll_usb.c **** 
1781:Drivers/STM32H7xx_HAL_Driver/Src/stm32h7xx_ll_usb.c ****   /* in DMA mode host Core automatically issues ping in case of NYET/NAK */
ARM GAS  C:\Users\PgRick\AppData\Local\Temp\ccFebq6t.s 			page 126


1782:Drivers/STM32H7xx_HAL_Driver/Src/stm32h7xx_ll_usb.c ****   if (dma == 1U)
1783:Drivers/STM32H7xx_HAL_Driver/Src/stm32h7xx_ll_usb.c ****   {
1784:Drivers/STM32H7xx_HAL_Driver/Src/stm32h7xx_ll_usb.c ****     if ((hc->ep_type == EP_TYPE_CTRL) || (hc->ep_type == EP_TYPE_BULK))
1785:Drivers/STM32H7xx_HAL_Driver/Src/stm32h7xx_ll_usb.c ****     {
1786:Drivers/STM32H7xx_HAL_Driver/Src/stm32h7xx_ll_usb.c **** 
1787:Drivers/STM32H7xx_HAL_Driver/Src/stm32h7xx_ll_usb.c ****       USBx_HC((uint32_t)ch_num)->HCINTMSK &= ~(USB_OTG_HCINTMSK_NYET |
1788:Drivers/STM32H7xx_HAL_Driver/Src/stm32h7xx_ll_usb.c ****                                                USB_OTG_HCINTMSK_ACKM |
1789:Drivers/STM32H7xx_HAL_Driver/Src/stm32h7xx_ll_usb.c ****                                                USB_OTG_HCINTMSK_NAKM);
1790:Drivers/STM32H7xx_HAL_Driver/Src/stm32h7xx_ll_usb.c ****     }
1791:Drivers/STM32H7xx_HAL_Driver/Src/stm32h7xx_ll_usb.c ****   }
1792:Drivers/STM32H7xx_HAL_Driver/Src/stm32h7xx_ll_usb.c ****   else
1793:Drivers/STM32H7xx_HAL_Driver/Src/stm32h7xx_ll_usb.c ****   {
1794:Drivers/STM32H7xx_HAL_Driver/Src/stm32h7xx_ll_usb.c ****     if ((hc->speed == USBH_HS_SPEED) && (hc->do_ping == 1U))
1795:Drivers/STM32H7xx_HAL_Driver/Src/stm32h7xx_ll_usb.c ****     {
1796:Drivers/STM32H7xx_HAL_Driver/Src/stm32h7xx_ll_usb.c ****       (void)USB_DoPing(USBx, hc->ch_num);
1797:Drivers/STM32H7xx_HAL_Driver/Src/stm32h7xx_ll_usb.c ****       return HAL_OK;
1798:Drivers/STM32H7xx_HAL_Driver/Src/stm32h7xx_ll_usb.c ****     }
1799:Drivers/STM32H7xx_HAL_Driver/Src/stm32h7xx_ll_usb.c ****   }
1800:Drivers/STM32H7xx_HAL_Driver/Src/stm32h7xx_ll_usb.c **** 
1801:Drivers/STM32H7xx_HAL_Driver/Src/stm32h7xx_ll_usb.c ****   if (hc->do_ssplit == 1U)
1802:Drivers/STM32H7xx_HAL_Driver/Src/stm32h7xx_ll_usb.c ****   {
1803:Drivers/STM32H7xx_HAL_Driver/Src/stm32h7xx_ll_usb.c ****     /* Set number of packet to 1 for Split transaction */
1804:Drivers/STM32H7xx_HAL_Driver/Src/stm32h7xx_ll_usb.c ****     num_packets = 1U;
1805:Drivers/STM32H7xx_HAL_Driver/Src/stm32h7xx_ll_usb.c **** 
1806:Drivers/STM32H7xx_HAL_Driver/Src/stm32h7xx_ll_usb.c ****     if (hc->ep_is_in != 0U)
1807:Drivers/STM32H7xx_HAL_Driver/Src/stm32h7xx_ll_usb.c ****     {
1808:Drivers/STM32H7xx_HAL_Driver/Src/stm32h7xx_ll_usb.c ****       hc->XferSize = (uint32_t)num_packets * hc->max_packet;
1809:Drivers/STM32H7xx_HAL_Driver/Src/stm32h7xx_ll_usb.c ****     }
1810:Drivers/STM32H7xx_HAL_Driver/Src/stm32h7xx_ll_usb.c ****     else
1811:Drivers/STM32H7xx_HAL_Driver/Src/stm32h7xx_ll_usb.c ****     {
1812:Drivers/STM32H7xx_HAL_Driver/Src/stm32h7xx_ll_usb.c ****       if (hc->ep_type == EP_TYPE_ISOC)
1813:Drivers/STM32H7xx_HAL_Driver/Src/stm32h7xx_ll_usb.c ****       {
1814:Drivers/STM32H7xx_HAL_Driver/Src/stm32h7xx_ll_usb.c ****         if (hc->xfer_len > ISO_SPLT_MPS)
1815:Drivers/STM32H7xx_HAL_Driver/Src/stm32h7xx_ll_usb.c ****         {
1816:Drivers/STM32H7xx_HAL_Driver/Src/stm32h7xx_ll_usb.c ****           /* Isochrone Max Packet Size for Split mode */
1817:Drivers/STM32H7xx_HAL_Driver/Src/stm32h7xx_ll_usb.c ****           hc->XferSize = hc->max_packet;
1818:Drivers/STM32H7xx_HAL_Driver/Src/stm32h7xx_ll_usb.c ****           hc->xfer_len = hc->XferSize;
1819:Drivers/STM32H7xx_HAL_Driver/Src/stm32h7xx_ll_usb.c **** 
1820:Drivers/STM32H7xx_HAL_Driver/Src/stm32h7xx_ll_usb.c ****           if ((hc->iso_splt_xactPos == HCSPLT_BEGIN) || (hc->iso_splt_xactPos == HCSPLT_MIDDLE))
1821:Drivers/STM32H7xx_HAL_Driver/Src/stm32h7xx_ll_usb.c ****           {
1822:Drivers/STM32H7xx_HAL_Driver/Src/stm32h7xx_ll_usb.c ****             hc->iso_splt_xactPos = HCSPLT_MIDDLE;
1823:Drivers/STM32H7xx_HAL_Driver/Src/stm32h7xx_ll_usb.c ****           }
1824:Drivers/STM32H7xx_HAL_Driver/Src/stm32h7xx_ll_usb.c ****           else
1825:Drivers/STM32H7xx_HAL_Driver/Src/stm32h7xx_ll_usb.c ****           {
1826:Drivers/STM32H7xx_HAL_Driver/Src/stm32h7xx_ll_usb.c ****             hc->iso_splt_xactPos = HCSPLT_BEGIN;
1827:Drivers/STM32H7xx_HAL_Driver/Src/stm32h7xx_ll_usb.c ****           }
1828:Drivers/STM32H7xx_HAL_Driver/Src/stm32h7xx_ll_usb.c ****         }
1829:Drivers/STM32H7xx_HAL_Driver/Src/stm32h7xx_ll_usb.c ****         else
1830:Drivers/STM32H7xx_HAL_Driver/Src/stm32h7xx_ll_usb.c ****         {
1831:Drivers/STM32H7xx_HAL_Driver/Src/stm32h7xx_ll_usb.c ****           hc->XferSize = hc->xfer_len;
1832:Drivers/STM32H7xx_HAL_Driver/Src/stm32h7xx_ll_usb.c **** 
1833:Drivers/STM32H7xx_HAL_Driver/Src/stm32h7xx_ll_usb.c ****           if ((hc->iso_splt_xactPos != HCSPLT_BEGIN) && (hc->iso_splt_xactPos != HCSPLT_MIDDLE))
1834:Drivers/STM32H7xx_HAL_Driver/Src/stm32h7xx_ll_usb.c ****           {
1835:Drivers/STM32H7xx_HAL_Driver/Src/stm32h7xx_ll_usb.c ****             hc->iso_splt_xactPos = HCSPLT_FULL;
1836:Drivers/STM32H7xx_HAL_Driver/Src/stm32h7xx_ll_usb.c ****           }
1837:Drivers/STM32H7xx_HAL_Driver/Src/stm32h7xx_ll_usb.c ****           else
1838:Drivers/STM32H7xx_HAL_Driver/Src/stm32h7xx_ll_usb.c ****           {
ARM GAS  C:\Users\PgRick\AppData\Local\Temp\ccFebq6t.s 			page 127


1839:Drivers/STM32H7xx_HAL_Driver/Src/stm32h7xx_ll_usb.c ****             hc->iso_splt_xactPos = HCSPLT_END;
1840:Drivers/STM32H7xx_HAL_Driver/Src/stm32h7xx_ll_usb.c ****           }
1841:Drivers/STM32H7xx_HAL_Driver/Src/stm32h7xx_ll_usb.c ****         }
1842:Drivers/STM32H7xx_HAL_Driver/Src/stm32h7xx_ll_usb.c ****       }
1843:Drivers/STM32H7xx_HAL_Driver/Src/stm32h7xx_ll_usb.c ****       else
1844:Drivers/STM32H7xx_HAL_Driver/Src/stm32h7xx_ll_usb.c ****       {
1845:Drivers/STM32H7xx_HAL_Driver/Src/stm32h7xx_ll_usb.c ****         if ((dma == 1U) && (hc->xfer_len > hc->max_packet))
1846:Drivers/STM32H7xx_HAL_Driver/Src/stm32h7xx_ll_usb.c ****         {
1847:Drivers/STM32H7xx_HAL_Driver/Src/stm32h7xx_ll_usb.c ****           hc->XferSize = (uint32_t)num_packets * hc->max_packet;
1848:Drivers/STM32H7xx_HAL_Driver/Src/stm32h7xx_ll_usb.c ****         }
1849:Drivers/STM32H7xx_HAL_Driver/Src/stm32h7xx_ll_usb.c ****         else
1850:Drivers/STM32H7xx_HAL_Driver/Src/stm32h7xx_ll_usb.c ****         {
1851:Drivers/STM32H7xx_HAL_Driver/Src/stm32h7xx_ll_usb.c ****           hc->XferSize = hc->xfer_len;
1852:Drivers/STM32H7xx_HAL_Driver/Src/stm32h7xx_ll_usb.c ****         }
1853:Drivers/STM32H7xx_HAL_Driver/Src/stm32h7xx_ll_usb.c ****       }
1854:Drivers/STM32H7xx_HAL_Driver/Src/stm32h7xx_ll_usb.c ****     }
1855:Drivers/STM32H7xx_HAL_Driver/Src/stm32h7xx_ll_usb.c ****   }
1856:Drivers/STM32H7xx_HAL_Driver/Src/stm32h7xx_ll_usb.c ****   else
1857:Drivers/STM32H7xx_HAL_Driver/Src/stm32h7xx_ll_usb.c ****   {
1858:Drivers/STM32H7xx_HAL_Driver/Src/stm32h7xx_ll_usb.c ****     /* Compute the expected number of packets associated to the transfer */
1859:Drivers/STM32H7xx_HAL_Driver/Src/stm32h7xx_ll_usb.c ****     if (hc->xfer_len > 0U)
1860:Drivers/STM32H7xx_HAL_Driver/Src/stm32h7xx_ll_usb.c ****     {
1861:Drivers/STM32H7xx_HAL_Driver/Src/stm32h7xx_ll_usb.c ****       num_packets = (uint16_t)((hc->xfer_len + hc->max_packet - 1U) / hc->max_packet);
1862:Drivers/STM32H7xx_HAL_Driver/Src/stm32h7xx_ll_usb.c **** 
1863:Drivers/STM32H7xx_HAL_Driver/Src/stm32h7xx_ll_usb.c ****       if (num_packets > max_hc_pkt_count)
1864:Drivers/STM32H7xx_HAL_Driver/Src/stm32h7xx_ll_usb.c ****       {
1865:Drivers/STM32H7xx_HAL_Driver/Src/stm32h7xx_ll_usb.c ****         num_packets = max_hc_pkt_count;
1866:Drivers/STM32H7xx_HAL_Driver/Src/stm32h7xx_ll_usb.c ****         hc->XferSize = (uint32_t)num_packets * hc->max_packet;
1867:Drivers/STM32H7xx_HAL_Driver/Src/stm32h7xx_ll_usb.c ****       }
1868:Drivers/STM32H7xx_HAL_Driver/Src/stm32h7xx_ll_usb.c ****     }
1869:Drivers/STM32H7xx_HAL_Driver/Src/stm32h7xx_ll_usb.c ****     else
1870:Drivers/STM32H7xx_HAL_Driver/Src/stm32h7xx_ll_usb.c ****     {
1871:Drivers/STM32H7xx_HAL_Driver/Src/stm32h7xx_ll_usb.c ****       num_packets = 1U;
1872:Drivers/STM32H7xx_HAL_Driver/Src/stm32h7xx_ll_usb.c ****     }
1873:Drivers/STM32H7xx_HAL_Driver/Src/stm32h7xx_ll_usb.c **** 
1874:Drivers/STM32H7xx_HAL_Driver/Src/stm32h7xx_ll_usb.c ****     /*
1875:Drivers/STM32H7xx_HAL_Driver/Src/stm32h7xx_ll_usb.c ****     * For IN channel HCTSIZ.XferSize is expected to be an integer multiple of
1876:Drivers/STM32H7xx_HAL_Driver/Src/stm32h7xx_ll_usb.c ****     * max_packet size.
1877:Drivers/STM32H7xx_HAL_Driver/Src/stm32h7xx_ll_usb.c ****     */
1878:Drivers/STM32H7xx_HAL_Driver/Src/stm32h7xx_ll_usb.c ****     if (hc->ep_is_in != 0U)
1879:Drivers/STM32H7xx_HAL_Driver/Src/stm32h7xx_ll_usb.c ****     {
1880:Drivers/STM32H7xx_HAL_Driver/Src/stm32h7xx_ll_usb.c ****       hc->XferSize = (uint32_t)num_packets * hc->max_packet;
1881:Drivers/STM32H7xx_HAL_Driver/Src/stm32h7xx_ll_usb.c ****     }
1882:Drivers/STM32H7xx_HAL_Driver/Src/stm32h7xx_ll_usb.c ****     else
1883:Drivers/STM32H7xx_HAL_Driver/Src/stm32h7xx_ll_usb.c ****     {
1884:Drivers/STM32H7xx_HAL_Driver/Src/stm32h7xx_ll_usb.c ****       hc->XferSize = hc->xfer_len;
1885:Drivers/STM32H7xx_HAL_Driver/Src/stm32h7xx_ll_usb.c ****     }
1886:Drivers/STM32H7xx_HAL_Driver/Src/stm32h7xx_ll_usb.c ****   }
1887:Drivers/STM32H7xx_HAL_Driver/Src/stm32h7xx_ll_usb.c **** 
1888:Drivers/STM32H7xx_HAL_Driver/Src/stm32h7xx_ll_usb.c ****   /* Initialize the HCTSIZn register */
1889:Drivers/STM32H7xx_HAL_Driver/Src/stm32h7xx_ll_usb.c ****   USBx_HC(ch_num)->HCTSIZ = (hc->XferSize & USB_OTG_HCTSIZ_XFRSIZ) |
1890:Drivers/STM32H7xx_HAL_Driver/Src/stm32h7xx_ll_usb.c ****                             (((uint32_t)num_packets << 19) & USB_OTG_HCTSIZ_PKTCNT) |
1891:Drivers/STM32H7xx_HAL_Driver/Src/stm32h7xx_ll_usb.c ****                             (((uint32_t)hc->data_pid << 29) & USB_OTG_HCTSIZ_DPID);
1892:Drivers/STM32H7xx_HAL_Driver/Src/stm32h7xx_ll_usb.c **** 
1893:Drivers/STM32H7xx_HAL_Driver/Src/stm32h7xx_ll_usb.c ****   if (dma != 0U)
1894:Drivers/STM32H7xx_HAL_Driver/Src/stm32h7xx_ll_usb.c ****   {
1895:Drivers/STM32H7xx_HAL_Driver/Src/stm32h7xx_ll_usb.c ****     /* xfer_buff MUST be 32-bits aligned */
ARM GAS  C:\Users\PgRick\AppData\Local\Temp\ccFebq6t.s 			page 128


1896:Drivers/STM32H7xx_HAL_Driver/Src/stm32h7xx_ll_usb.c ****     USBx_HC(ch_num)->HCDMA = (uint32_t)hc->xfer_buff;
1897:Drivers/STM32H7xx_HAL_Driver/Src/stm32h7xx_ll_usb.c ****   }
1898:Drivers/STM32H7xx_HAL_Driver/Src/stm32h7xx_ll_usb.c **** 
1899:Drivers/STM32H7xx_HAL_Driver/Src/stm32h7xx_ll_usb.c ****   is_oddframe = (((uint32_t)USBx_HOST->HFNUM & 0x01U) != 0U) ? 0U : 1U;
1900:Drivers/STM32H7xx_HAL_Driver/Src/stm32h7xx_ll_usb.c ****   USBx_HC(ch_num)->HCCHAR &= ~USB_OTG_HCCHAR_ODDFRM;
1901:Drivers/STM32H7xx_HAL_Driver/Src/stm32h7xx_ll_usb.c ****   USBx_HC(ch_num)->HCCHAR |= (uint32_t)is_oddframe << 29;
1902:Drivers/STM32H7xx_HAL_Driver/Src/stm32h7xx_ll_usb.c **** 
1903:Drivers/STM32H7xx_HAL_Driver/Src/stm32h7xx_ll_usb.c ****   if (hc->do_ssplit == 1U)
1904:Drivers/STM32H7xx_HAL_Driver/Src/stm32h7xx_ll_usb.c ****   {
1905:Drivers/STM32H7xx_HAL_Driver/Src/stm32h7xx_ll_usb.c ****     /* Set Hub start Split transaction */
1906:Drivers/STM32H7xx_HAL_Driver/Src/stm32h7xx_ll_usb.c ****     USBx_HC((uint32_t)ch_num)->HCSPLT = ((uint32_t)hc->hub_addr << USB_OTG_HCSPLT_HUBADDR_Pos) |
1907:Drivers/STM32H7xx_HAL_Driver/Src/stm32h7xx_ll_usb.c ****                                         (uint32_t)hc->hub_port_nbr | USB_OTG_HCSPLT_SPLITEN;
1908:Drivers/STM32H7xx_HAL_Driver/Src/stm32h7xx_ll_usb.c **** 
1909:Drivers/STM32H7xx_HAL_Driver/Src/stm32h7xx_ll_usb.c ****     /* unmask ack & nyet for IN/OUT transactions */
1910:Drivers/STM32H7xx_HAL_Driver/Src/stm32h7xx_ll_usb.c ****     USBx_HC((uint32_t)ch_num)->HCINTMSK |= (USB_OTG_HCINTMSK_ACKM |
1911:Drivers/STM32H7xx_HAL_Driver/Src/stm32h7xx_ll_usb.c ****                                             USB_OTG_HCINTMSK_NYET);
1912:Drivers/STM32H7xx_HAL_Driver/Src/stm32h7xx_ll_usb.c **** 
1913:Drivers/STM32H7xx_HAL_Driver/Src/stm32h7xx_ll_usb.c ****     if ((hc->do_csplit == 1U) && (hc->ep_is_in == 0U))
1914:Drivers/STM32H7xx_HAL_Driver/Src/stm32h7xx_ll_usb.c ****     {
1915:Drivers/STM32H7xx_HAL_Driver/Src/stm32h7xx_ll_usb.c ****       USBx_HC((uint32_t)ch_num)->HCSPLT |= USB_OTG_HCSPLT_COMPLSPLT;
1916:Drivers/STM32H7xx_HAL_Driver/Src/stm32h7xx_ll_usb.c ****       USBx_HC((uint32_t)ch_num)->HCINTMSK |= USB_OTG_HCINTMSK_NYET;
1917:Drivers/STM32H7xx_HAL_Driver/Src/stm32h7xx_ll_usb.c ****     }
1918:Drivers/STM32H7xx_HAL_Driver/Src/stm32h7xx_ll_usb.c **** 
1919:Drivers/STM32H7xx_HAL_Driver/Src/stm32h7xx_ll_usb.c ****     if (((hc->ep_type == EP_TYPE_ISOC) || (hc->ep_type == EP_TYPE_INTR)) &&
1920:Drivers/STM32H7xx_HAL_Driver/Src/stm32h7xx_ll_usb.c ****         (hc->do_csplit == 1U) && (hc->ep_is_in == 1U))
1921:Drivers/STM32H7xx_HAL_Driver/Src/stm32h7xx_ll_usb.c ****     {
1922:Drivers/STM32H7xx_HAL_Driver/Src/stm32h7xx_ll_usb.c ****       USBx_HC((uint32_t)ch_num)->HCSPLT |= USB_OTG_HCSPLT_COMPLSPLT;
1923:Drivers/STM32H7xx_HAL_Driver/Src/stm32h7xx_ll_usb.c ****     }
1924:Drivers/STM32H7xx_HAL_Driver/Src/stm32h7xx_ll_usb.c **** 
1925:Drivers/STM32H7xx_HAL_Driver/Src/stm32h7xx_ll_usb.c ****     /* Position management for iso out transaction on split mode */
1926:Drivers/STM32H7xx_HAL_Driver/Src/stm32h7xx_ll_usb.c ****     if ((hc->ep_type == EP_TYPE_ISOC) && (hc->ep_is_in == 0U))
1927:Drivers/STM32H7xx_HAL_Driver/Src/stm32h7xx_ll_usb.c ****     {
1928:Drivers/STM32H7xx_HAL_Driver/Src/stm32h7xx_ll_usb.c ****       /* Set data payload position */
1929:Drivers/STM32H7xx_HAL_Driver/Src/stm32h7xx_ll_usb.c ****       switch (hc->iso_splt_xactPos)
1930:Drivers/STM32H7xx_HAL_Driver/Src/stm32h7xx_ll_usb.c ****       {
1931:Drivers/STM32H7xx_HAL_Driver/Src/stm32h7xx_ll_usb.c ****         case HCSPLT_BEGIN:
1932:Drivers/STM32H7xx_HAL_Driver/Src/stm32h7xx_ll_usb.c ****           /* First data payload for OUT Transaction */
1933:Drivers/STM32H7xx_HAL_Driver/Src/stm32h7xx_ll_usb.c ****           USBx_HC((uint32_t)ch_num)->HCSPLT |= USB_OTG_HCSPLT_XACTPOS_1;
1934:Drivers/STM32H7xx_HAL_Driver/Src/stm32h7xx_ll_usb.c ****           break;
1935:Drivers/STM32H7xx_HAL_Driver/Src/stm32h7xx_ll_usb.c **** 
1936:Drivers/STM32H7xx_HAL_Driver/Src/stm32h7xx_ll_usb.c ****         case HCSPLT_MIDDLE:
1937:Drivers/STM32H7xx_HAL_Driver/Src/stm32h7xx_ll_usb.c ****           /* Middle data payload for OUT Transaction */
1938:Drivers/STM32H7xx_HAL_Driver/Src/stm32h7xx_ll_usb.c ****           USBx_HC((uint32_t)ch_num)->HCSPLT |= USB_OTG_HCSPLT_XACTPOS_Pos;
1939:Drivers/STM32H7xx_HAL_Driver/Src/stm32h7xx_ll_usb.c ****           break;
1940:Drivers/STM32H7xx_HAL_Driver/Src/stm32h7xx_ll_usb.c **** 
1941:Drivers/STM32H7xx_HAL_Driver/Src/stm32h7xx_ll_usb.c ****         case HCSPLT_END:
1942:Drivers/STM32H7xx_HAL_Driver/Src/stm32h7xx_ll_usb.c ****           /* End data payload for OUT Transaction */
1943:Drivers/STM32H7xx_HAL_Driver/Src/stm32h7xx_ll_usb.c ****           USBx_HC((uint32_t)ch_num)->HCSPLT |= USB_OTG_HCSPLT_XACTPOS_0;
1944:Drivers/STM32H7xx_HAL_Driver/Src/stm32h7xx_ll_usb.c ****           break;
1945:Drivers/STM32H7xx_HAL_Driver/Src/stm32h7xx_ll_usb.c **** 
1946:Drivers/STM32H7xx_HAL_Driver/Src/stm32h7xx_ll_usb.c ****         case HCSPLT_FULL:
1947:Drivers/STM32H7xx_HAL_Driver/Src/stm32h7xx_ll_usb.c ****           /* Entire data payload for OUT Transaction */
1948:Drivers/STM32H7xx_HAL_Driver/Src/stm32h7xx_ll_usb.c ****           USBx_HC((uint32_t)ch_num)->HCSPLT |= USB_OTG_HCSPLT_XACTPOS;
1949:Drivers/STM32H7xx_HAL_Driver/Src/stm32h7xx_ll_usb.c ****           break;
1950:Drivers/STM32H7xx_HAL_Driver/Src/stm32h7xx_ll_usb.c **** 
1951:Drivers/STM32H7xx_HAL_Driver/Src/stm32h7xx_ll_usb.c ****         default:
1952:Drivers/STM32H7xx_HAL_Driver/Src/stm32h7xx_ll_usb.c ****           break;
ARM GAS  C:\Users\PgRick\AppData\Local\Temp\ccFebq6t.s 			page 129


1953:Drivers/STM32H7xx_HAL_Driver/Src/stm32h7xx_ll_usb.c ****       }
1954:Drivers/STM32H7xx_HAL_Driver/Src/stm32h7xx_ll_usb.c ****     }
1955:Drivers/STM32H7xx_HAL_Driver/Src/stm32h7xx_ll_usb.c ****   }
1956:Drivers/STM32H7xx_HAL_Driver/Src/stm32h7xx_ll_usb.c ****   else
1957:Drivers/STM32H7xx_HAL_Driver/Src/stm32h7xx_ll_usb.c ****   {
1958:Drivers/STM32H7xx_HAL_Driver/Src/stm32h7xx_ll_usb.c ****     /* Clear Hub Start Split transaction */
1959:Drivers/STM32H7xx_HAL_Driver/Src/stm32h7xx_ll_usb.c ****     USBx_HC((uint32_t)ch_num)->HCSPLT = 0U;
1960:Drivers/STM32H7xx_HAL_Driver/Src/stm32h7xx_ll_usb.c ****   }
1961:Drivers/STM32H7xx_HAL_Driver/Src/stm32h7xx_ll_usb.c **** 
1962:Drivers/STM32H7xx_HAL_Driver/Src/stm32h7xx_ll_usb.c ****   /* Set host channel enable */
1963:Drivers/STM32H7xx_HAL_Driver/Src/stm32h7xx_ll_usb.c ****   tmpreg = USBx_HC(ch_num)->HCCHAR;
1964:Drivers/STM32H7xx_HAL_Driver/Src/stm32h7xx_ll_usb.c ****   tmpreg &= ~USB_OTG_HCCHAR_CHDIS;
1965:Drivers/STM32H7xx_HAL_Driver/Src/stm32h7xx_ll_usb.c **** 
1966:Drivers/STM32H7xx_HAL_Driver/Src/stm32h7xx_ll_usb.c ****   /* make sure to set the correct ep direction */
1967:Drivers/STM32H7xx_HAL_Driver/Src/stm32h7xx_ll_usb.c ****   if (hc->ep_is_in != 0U)
1968:Drivers/STM32H7xx_HAL_Driver/Src/stm32h7xx_ll_usb.c ****   {
1969:Drivers/STM32H7xx_HAL_Driver/Src/stm32h7xx_ll_usb.c ****     tmpreg |= USB_OTG_HCCHAR_EPDIR;
1970:Drivers/STM32H7xx_HAL_Driver/Src/stm32h7xx_ll_usb.c ****   }
1971:Drivers/STM32H7xx_HAL_Driver/Src/stm32h7xx_ll_usb.c ****   else
1972:Drivers/STM32H7xx_HAL_Driver/Src/stm32h7xx_ll_usb.c ****   {
1973:Drivers/STM32H7xx_HAL_Driver/Src/stm32h7xx_ll_usb.c ****     tmpreg &= ~USB_OTG_HCCHAR_EPDIR;
1974:Drivers/STM32H7xx_HAL_Driver/Src/stm32h7xx_ll_usb.c ****   }
1975:Drivers/STM32H7xx_HAL_Driver/Src/stm32h7xx_ll_usb.c ****   tmpreg |= USB_OTG_HCCHAR_CHENA;
1976:Drivers/STM32H7xx_HAL_Driver/Src/stm32h7xx_ll_usb.c ****   USBx_HC(ch_num)->HCCHAR = tmpreg;
1977:Drivers/STM32H7xx_HAL_Driver/Src/stm32h7xx_ll_usb.c **** 
1978:Drivers/STM32H7xx_HAL_Driver/Src/stm32h7xx_ll_usb.c ****   if (dma != 0U) /* dma mode */
1979:Drivers/STM32H7xx_HAL_Driver/Src/stm32h7xx_ll_usb.c ****   {
1980:Drivers/STM32H7xx_HAL_Driver/Src/stm32h7xx_ll_usb.c ****     return HAL_OK;
1981:Drivers/STM32H7xx_HAL_Driver/Src/stm32h7xx_ll_usb.c ****   }
1982:Drivers/STM32H7xx_HAL_Driver/Src/stm32h7xx_ll_usb.c **** 
1983:Drivers/STM32H7xx_HAL_Driver/Src/stm32h7xx_ll_usb.c ****   if ((hc->ep_is_in == 0U) && (hc->xfer_len > 0U) && (hc->do_csplit == 0U))
1984:Drivers/STM32H7xx_HAL_Driver/Src/stm32h7xx_ll_usb.c ****   {
1985:Drivers/STM32H7xx_HAL_Driver/Src/stm32h7xx_ll_usb.c ****     switch (hc->ep_type)
1986:Drivers/STM32H7xx_HAL_Driver/Src/stm32h7xx_ll_usb.c ****     {
1987:Drivers/STM32H7xx_HAL_Driver/Src/stm32h7xx_ll_usb.c ****       /* Non periodic transfer */
1988:Drivers/STM32H7xx_HAL_Driver/Src/stm32h7xx_ll_usb.c ****       case EP_TYPE_CTRL:
1989:Drivers/STM32H7xx_HAL_Driver/Src/stm32h7xx_ll_usb.c ****       case EP_TYPE_BULK:
1990:Drivers/STM32H7xx_HAL_Driver/Src/stm32h7xx_ll_usb.c **** 
1991:Drivers/STM32H7xx_HAL_Driver/Src/stm32h7xx_ll_usb.c ****         len_words = (uint16_t)((hc->xfer_len + 3U) / 4U);
1992:Drivers/STM32H7xx_HAL_Driver/Src/stm32h7xx_ll_usb.c **** 
1993:Drivers/STM32H7xx_HAL_Driver/Src/stm32h7xx_ll_usb.c ****         /* check if there is enough space in FIFO space */
1994:Drivers/STM32H7xx_HAL_Driver/Src/stm32h7xx_ll_usb.c ****         if (len_words > (USBx->HNPTXSTS & 0xFFFFU))
1995:Drivers/STM32H7xx_HAL_Driver/Src/stm32h7xx_ll_usb.c ****         {
1996:Drivers/STM32H7xx_HAL_Driver/Src/stm32h7xx_ll_usb.c ****           /* need to process data in nptxfempty interrupt */
1997:Drivers/STM32H7xx_HAL_Driver/Src/stm32h7xx_ll_usb.c ****           USBx->GINTMSK |= USB_OTG_GINTMSK_NPTXFEM;
1998:Drivers/STM32H7xx_HAL_Driver/Src/stm32h7xx_ll_usb.c ****         }
1999:Drivers/STM32H7xx_HAL_Driver/Src/stm32h7xx_ll_usb.c ****         break;
2000:Drivers/STM32H7xx_HAL_Driver/Src/stm32h7xx_ll_usb.c **** 
2001:Drivers/STM32H7xx_HAL_Driver/Src/stm32h7xx_ll_usb.c ****       /* Periodic transfer */
2002:Drivers/STM32H7xx_HAL_Driver/Src/stm32h7xx_ll_usb.c ****       case EP_TYPE_INTR:
2003:Drivers/STM32H7xx_HAL_Driver/Src/stm32h7xx_ll_usb.c ****       case EP_TYPE_ISOC:
2004:Drivers/STM32H7xx_HAL_Driver/Src/stm32h7xx_ll_usb.c ****         len_words = (uint16_t)((hc->xfer_len + 3U) / 4U);
2005:Drivers/STM32H7xx_HAL_Driver/Src/stm32h7xx_ll_usb.c ****         /* check if there is enough space in FIFO space */
2006:Drivers/STM32H7xx_HAL_Driver/Src/stm32h7xx_ll_usb.c ****         if (len_words > (USBx_HOST->HPTXSTS & 0xFFFFU)) /* split the transfer */
2007:Drivers/STM32H7xx_HAL_Driver/Src/stm32h7xx_ll_usb.c ****         {
2008:Drivers/STM32H7xx_HAL_Driver/Src/stm32h7xx_ll_usb.c ****           /* need to process data in ptxfempty interrupt */
2009:Drivers/STM32H7xx_HAL_Driver/Src/stm32h7xx_ll_usb.c ****           USBx->GINTMSK |= USB_OTG_GINTMSK_PTXFEM;
ARM GAS  C:\Users\PgRick\AppData\Local\Temp\ccFebq6t.s 			page 130


2010:Drivers/STM32H7xx_HAL_Driver/Src/stm32h7xx_ll_usb.c ****         }
2011:Drivers/STM32H7xx_HAL_Driver/Src/stm32h7xx_ll_usb.c ****         break;
2012:Drivers/STM32H7xx_HAL_Driver/Src/stm32h7xx_ll_usb.c **** 
2013:Drivers/STM32H7xx_HAL_Driver/Src/stm32h7xx_ll_usb.c ****       default:
2014:Drivers/STM32H7xx_HAL_Driver/Src/stm32h7xx_ll_usb.c ****         break;
2015:Drivers/STM32H7xx_HAL_Driver/Src/stm32h7xx_ll_usb.c ****     }
2016:Drivers/STM32H7xx_HAL_Driver/Src/stm32h7xx_ll_usb.c **** 
2017:Drivers/STM32H7xx_HAL_Driver/Src/stm32h7xx_ll_usb.c ****     /* Write packet into the Tx FIFO. */
2018:Drivers/STM32H7xx_HAL_Driver/Src/stm32h7xx_ll_usb.c ****     (void)USB_WritePacket(USBx, hc->xfer_buff, hc->ch_num, (uint16_t)hc->xfer_len, 0);
2019:Drivers/STM32H7xx_HAL_Driver/Src/stm32h7xx_ll_usb.c ****   }
2020:Drivers/STM32H7xx_HAL_Driver/Src/stm32h7xx_ll_usb.c **** 
2021:Drivers/STM32H7xx_HAL_Driver/Src/stm32h7xx_ll_usb.c ****   return HAL_OK;
2022:Drivers/STM32H7xx_HAL_Driver/Src/stm32h7xx_ll_usb.c **** }
2023:Drivers/STM32H7xx_HAL_Driver/Src/stm32h7xx_ll_usb.c **** 
2024:Drivers/STM32H7xx_HAL_Driver/Src/stm32h7xx_ll_usb.c **** /**
2025:Drivers/STM32H7xx_HAL_Driver/Src/stm32h7xx_ll_usb.c ****   * @brief Read all host channel interrupts status
2026:Drivers/STM32H7xx_HAL_Driver/Src/stm32h7xx_ll_usb.c ****   * @param  USBx  Selected device
2027:Drivers/STM32H7xx_HAL_Driver/Src/stm32h7xx_ll_usb.c ****   * @retval HAL state
2028:Drivers/STM32H7xx_HAL_Driver/Src/stm32h7xx_ll_usb.c ****   */
2029:Drivers/STM32H7xx_HAL_Driver/Src/stm32h7xx_ll_usb.c **** uint32_t USB_HC_ReadInterrupt(const USB_OTG_GlobalTypeDef *USBx)
2030:Drivers/STM32H7xx_HAL_Driver/Src/stm32h7xx_ll_usb.c **** {
 4280              		.loc 1 2030 1 is_stmt 1 view -0
 4281              		.cfi_startproc
 4282              		@ args = 0, pretend = 0, frame = 0
 4283              		@ frame_needed = 0, uses_anonymous_args = 0
 4284              		@ link register save eliminated.
2031:Drivers/STM32H7xx_HAL_Driver/Src/stm32h7xx_ll_usb.c ****   uint32_t USBx_BASE = (uint32_t)USBx;
 4285              		.loc 1 2031 3 view .LVU1374
2032:Drivers/STM32H7xx_HAL_Driver/Src/stm32h7xx_ll_usb.c **** 
2033:Drivers/STM32H7xx_HAL_Driver/Src/stm32h7xx_ll_usb.c ****   return ((USBx_HOST->HAINT) & 0xFFFFU);
 4286              		.loc 1 2033 3 view .LVU1375
 4287              		.loc 1 2033 12 is_stmt 0 view .LVU1376
 4288 0000 00F58060 		add	r0, r0, #1024
 4289              	.LVL337:
 4290              		.loc 1 2033 21 view .LVU1377
 4291 0004 4069     		ldr	r0, [r0, #20]
 4292              	.LVL338:
2034:Drivers/STM32H7xx_HAL_Driver/Src/stm32h7xx_ll_usb.c **** }
 4293              		.loc 1 2034 1 view .LVU1378
 4294 0006 80B2     		uxth	r0, r0
 4295 0008 7047     		bx	lr
 4296              		.cfi_endproc
 4297              	.LFE187:
 4299              		.section	.text.USB_HC_Halt,"ax",%progbits
 4300              		.align	1
 4301              		.global	USB_HC_Halt
 4302              		.syntax unified
 4303              		.thumb
 4304              		.thumb_func
 4306              	USB_HC_Halt:
 4307              	.LVL339:
 4308              	.LFB188:
2035:Drivers/STM32H7xx_HAL_Driver/Src/stm32h7xx_ll_usb.c **** 
2036:Drivers/STM32H7xx_HAL_Driver/Src/stm32h7xx_ll_usb.c **** /**
2037:Drivers/STM32H7xx_HAL_Driver/Src/stm32h7xx_ll_usb.c ****   * @brief  Halt a host channel
2038:Drivers/STM32H7xx_HAL_Driver/Src/stm32h7xx_ll_usb.c ****   * @param  USBx  Selected device
2039:Drivers/STM32H7xx_HAL_Driver/Src/stm32h7xx_ll_usb.c ****   * @param  hc_num  Host Channel number
ARM GAS  C:\Users\PgRick\AppData\Local\Temp\ccFebq6t.s 			page 131


2040:Drivers/STM32H7xx_HAL_Driver/Src/stm32h7xx_ll_usb.c ****   *         This parameter can be a value from 1 to 15
2041:Drivers/STM32H7xx_HAL_Driver/Src/stm32h7xx_ll_usb.c ****   * @retval HAL state
2042:Drivers/STM32H7xx_HAL_Driver/Src/stm32h7xx_ll_usb.c ****   */
2043:Drivers/STM32H7xx_HAL_Driver/Src/stm32h7xx_ll_usb.c **** HAL_StatusTypeDef USB_HC_Halt(const USB_OTG_GlobalTypeDef *USBx, uint8_t hc_num)
2044:Drivers/STM32H7xx_HAL_Driver/Src/stm32h7xx_ll_usb.c **** {
 4309              		.loc 1 2044 1 is_stmt 1 view -0
 4310              		.cfi_startproc
 4311              		@ args = 0, pretend = 0, frame = 8
 4312              		@ frame_needed = 0, uses_anonymous_args = 0
 4313              		@ link register save eliminated.
 4314              		.loc 1 2044 1 is_stmt 0 view .LVU1380
 4315 0000 70B4     		push	{r4, r5, r6}
 4316              	.LCFI59:
 4317              		.cfi_def_cfa_offset 12
 4318              		.cfi_offset 4, -12
 4319              		.cfi_offset 5, -8
 4320              		.cfi_offset 6, -4
 4321 0002 83B0     		sub	sp, sp, #12
 4322              	.LCFI60:
 4323              		.cfi_def_cfa_offset 24
2045:Drivers/STM32H7xx_HAL_Driver/Src/stm32h7xx_ll_usb.c ****   uint32_t USBx_BASE = (uint32_t)USBx;
 4324              		.loc 1 2045 3 is_stmt 1 view .LVU1381
 4325              	.LVL340:
2046:Drivers/STM32H7xx_HAL_Driver/Src/stm32h7xx_ll_usb.c ****   uint32_t hcnum = (uint32_t)hc_num;
 4326              		.loc 1 2046 3 view .LVU1382
2047:Drivers/STM32H7xx_HAL_Driver/Src/stm32h7xx_ll_usb.c ****   __IO uint32_t count = 0U;
 4327              		.loc 1 2047 3 view .LVU1383
 4328              		.loc 1 2047 17 is_stmt 0 view .LVU1384
 4329 0004 0023     		movs	r3, #0
 4330 0006 0193     		str	r3, [sp, #4]
2048:Drivers/STM32H7xx_HAL_Driver/Src/stm32h7xx_ll_usb.c ****   uint32_t HcEpType = (USBx_HC(hcnum)->HCCHAR & USB_OTG_HCCHAR_EPTYP) >> 18;
 4331              		.loc 1 2048 3 is_stmt 1 view .LVU1385
 4332              		.loc 1 2048 24 is_stmt 0 view .LVU1386
 4333 0008 00EB4111 		add	r1, r0, r1, lsl #5
 4334              	.LVL341:
 4335              		.loc 1 2048 24 view .LVU1387
 4336 000c 01F5A062 		add	r2, r1, #1280
 4337              		.loc 1 2048 38 view .LVU1388
 4338 0010 D1F80035 		ldr	r3, [r1, #1280]
 4339              		.loc 1 2048 12 view .LVU1389
 4340 0014 C3F38143 		ubfx	r3, r3, #18, #2
 4341              	.LVL342:
2049:Drivers/STM32H7xx_HAL_Driver/Src/stm32h7xx_ll_usb.c ****   uint32_t ChannelEna = (USBx_HC(hcnum)->HCCHAR & USB_OTG_HCCHAR_CHENA) >> 31;
 4342              		.loc 1 2049 3 is_stmt 1 view .LVU1390
 4343              		.loc 1 2049 40 is_stmt 0 view .LVU1391
 4344 0018 D1F80055 		ldr	r5, [r1, #1280]
 4345              	.LVL343:
2050:Drivers/STM32H7xx_HAL_Driver/Src/stm32h7xx_ll_usb.c ****   uint32_t SplitEna = (USBx_HC(hcnum)->HCSPLT & USB_OTG_HCSPLT_SPLITEN) >> 31;
 4346              		.loc 1 2050 3 is_stmt 1 view .LVU1392
 4347              		.loc 1 2050 38 is_stmt 0 view .LVU1393
 4348 001c 5468     		ldr	r4, [r2, #4]
 4349              	.LVL344:
2051:Drivers/STM32H7xx_HAL_Driver/Src/stm32h7xx_ll_usb.c **** 
2052:Drivers/STM32H7xx_HAL_Driver/Src/stm32h7xx_ll_usb.c ****   /* In buffer DMA, Channel disable must not be programmed for non-split periodic channels.
2053:Drivers/STM32H7xx_HAL_Driver/Src/stm32h7xx_ll_usb.c ****      At the end of the next uframe/frame (in the worst case), the core generates a channel halted
2054:Drivers/STM32H7xx_HAL_Driver/Src/stm32h7xx_ll_usb.c ****      and disables the channel automatically. */
2055:Drivers/STM32H7xx_HAL_Driver/Src/stm32h7xx_ll_usb.c **** 
ARM GAS  C:\Users\PgRick\AppData\Local\Temp\ccFebq6t.s 			page 132


2056:Drivers/STM32H7xx_HAL_Driver/Src/stm32h7xx_ll_usb.c ****   if ((((USBx->GAHBCFG & USB_OTG_GAHBCFG_DMAEN) == USB_OTG_GAHBCFG_DMAEN) && (SplitEna == 0U)) &&
 4350              		.loc 1 2056 3 is_stmt 1 view .LVU1394
 4351              		.loc 1 2056 14 is_stmt 0 view .LVU1395
 4352 001e 8668     		ldr	r6, [r0, #8]
 4353              		.loc 1 2056 6 view .LVU1396
 4354 0020 16F0200F 		tst	r6, #32
 4355 0024 07D0     		beq	.L278
 4356 0026 ED0F     		lsrs	r5, r5, #31
 4357              	.LVL345:
 4358              		.loc 1 2056 6 view .LVU1397
 4359 0028 E40F     		lsrs	r4, r4, #31
 4360              	.LVL346:
 4361              		.loc 1 2056 75 discriminator 1 view .LVU1398
 4362 002a 24B9     		cbnz	r4, .L278
 4363              		.loc 1 2056 96 discriminator 2 view .LVU1399
 4364 002c CDB3     		cbz	r5, .L279
2057:Drivers/STM32H7xx_HAL_Driver/Src/stm32h7xx_ll_usb.c ****       ((ChannelEna == 0U) || (((HcEpType == HCCHAR_ISOC) || (HcEpType == HCCHAR_INTR)))))
 4365              		.loc 1 2057 27 view .LVU1400
 4366 002e 032B     		cmp	r3, #3
 4367 0030 18BF     		it	ne
 4368 0032 012B     		cmpne	r3, #1
 4369 0034 35D0     		beq	.L279
 4370              	.LVL347:
 4371              	.L278:
2058:Drivers/STM32H7xx_HAL_Driver/Src/stm32h7xx_ll_usb.c ****   {
2059:Drivers/STM32H7xx_HAL_Driver/Src/stm32h7xx_ll_usb.c ****     return HAL_OK;
2060:Drivers/STM32H7xx_HAL_Driver/Src/stm32h7xx_ll_usb.c ****   }
2061:Drivers/STM32H7xx_HAL_Driver/Src/stm32h7xx_ll_usb.c **** 
2062:Drivers/STM32H7xx_HAL_Driver/Src/stm32h7xx_ll_usb.c ****   /* Check for space in the request queue to issue the halt. */
2063:Drivers/STM32H7xx_HAL_Driver/Src/stm32h7xx_ll_usb.c ****   if ((HcEpType == HCCHAR_CTRL) || (HcEpType == HCCHAR_BULK))
 4372              		.loc 1 2063 3 is_stmt 1 view .LVU1401
 4373              		.loc 1 2063 6 is_stmt 0 view .LVU1402
 4374 0036 022B     		cmp	r3, #2
 4375 0038 18BF     		it	ne
 4376 003a 002B     		cmpne	r3, #0
 4377 003c 35D1     		bne	.L280
2064:Drivers/STM32H7xx_HAL_Driver/Src/stm32h7xx_ll_usb.c ****   {
2065:Drivers/STM32H7xx_HAL_Driver/Src/stm32h7xx_ll_usb.c ****     USBx_HC(hcnum)->HCCHAR |= USB_OTG_HCCHAR_CHDIS;
 4378              		.loc 1 2065 5 is_stmt 1 view .LVU1403
 4379              		.loc 1 2065 28 is_stmt 0 view .LVU1404
 4380 003e D1F80035 		ldr	r3, [r1, #1280]
 4381              	.LVL348:
 4382              		.loc 1 2065 28 view .LVU1405
 4383 0042 43F08043 		orr	r3, r3, #1073741824
 4384 0046 C1F80035 		str	r3, [r1, #1280]
2066:Drivers/STM32H7xx_HAL_Driver/Src/stm32h7xx_ll_usb.c **** 
2067:Drivers/STM32H7xx_HAL_Driver/Src/stm32h7xx_ll_usb.c ****     if ((USBx->GAHBCFG & USB_OTG_GAHBCFG_DMAEN) == 0U)
 4385              		.loc 1 2067 5 is_stmt 1 view .LVU1406
 4386              		.loc 1 2067 14 is_stmt 0 view .LVU1407
 4387 004a 8368     		ldr	r3, [r0, #8]
 4388              		.loc 1 2067 8 view .LVU1408
 4389 004c 13F0200F 		tst	r3, #32
 4390 0050 21D1     		bne	.L281
2068:Drivers/STM32H7xx_HAL_Driver/Src/stm32h7xx_ll_usb.c ****     {
2069:Drivers/STM32H7xx_HAL_Driver/Src/stm32h7xx_ll_usb.c ****       if ((USBx->HNPTXSTS & (0xFFU << 16)) == 0U)
 4391              		.loc 1 2069 7 is_stmt 1 view .LVU1409
 4392              		.loc 1 2069 16 is_stmt 0 view .LVU1410
ARM GAS  C:\Users\PgRick\AppData\Local\Temp\ccFebq6t.s 			page 133


 4393 0052 C36A     		ldr	r3, [r0, #44]
 4394              		.loc 1 2069 10 view .LVU1411
 4395 0054 13F47F0F 		tst	r3, #16711680
 4396 0058 16D1     		bne	.L282
2070:Drivers/STM32H7xx_HAL_Driver/Src/stm32h7xx_ll_usb.c ****       {
2071:Drivers/STM32H7xx_HAL_Driver/Src/stm32h7xx_ll_usb.c ****         USBx_HC(hcnum)->HCCHAR &= ~USB_OTG_HCCHAR_CHENA;
 4397              		.loc 1 2071 9 is_stmt 1 view .LVU1412
 4398              		.loc 1 2071 32 is_stmt 0 view .LVU1413
 4399 005a D1F80035 		ldr	r3, [r1, #1280]
 4400 005e 23F00043 		bic	r3, r3, #-2147483648
 4401 0062 C1F80035 		str	r3, [r1, #1280]
2072:Drivers/STM32H7xx_HAL_Driver/Src/stm32h7xx_ll_usb.c ****         USBx_HC(hcnum)->HCCHAR |= USB_OTG_HCCHAR_CHENA;
 4402              		.loc 1 2072 9 is_stmt 1 view .LVU1414
 4403              		.loc 1 2072 32 is_stmt 0 view .LVU1415
 4404 0066 D1F80035 		ldr	r3, [r1, #1280]
 4405 006a 43F00043 		orr	r3, r3, #-2147483648
 4406 006e C1F80035 		str	r3, [r1, #1280]
 4407              	.L283:
2073:Drivers/STM32H7xx_HAL_Driver/Src/stm32h7xx_ll_usb.c ****         do
 4408              		.loc 1 2073 9 is_stmt 1 view .LVU1416
2074:Drivers/STM32H7xx_HAL_Driver/Src/stm32h7xx_ll_usb.c ****         {
2075:Drivers/STM32H7xx_HAL_Driver/Src/stm32h7xx_ll_usb.c ****           count++;
 4409              		.loc 1 2075 11 view .LVU1417
 4410              		.loc 1 2075 16 is_stmt 0 view .LVU1418
 4411 0072 019B     		ldr	r3, [sp, #4]
 4412 0074 0133     		adds	r3, r3, #1
 4413 0076 0193     		str	r3, [sp, #4]
2076:Drivers/STM32H7xx_HAL_Driver/Src/stm32h7xx_ll_usb.c **** 
2077:Drivers/STM32H7xx_HAL_Driver/Src/stm32h7xx_ll_usb.c ****           if (count > 1000U)
 4414              		.loc 1 2077 11 is_stmt 1 view .LVU1419
 4415              		.loc 1 2077 21 is_stmt 0 view .LVU1420
 4416 0078 019B     		ldr	r3, [sp, #4]
 4417              		.loc 1 2077 14 view .LVU1421
 4418 007a B3F57A7F 		cmp	r3, #1000
 4419 007e 10D8     		bhi	.L279
2078:Drivers/STM32H7xx_HAL_Driver/Src/stm32h7xx_ll_usb.c ****           {
2079:Drivers/STM32H7xx_HAL_Driver/Src/stm32h7xx_ll_usb.c ****             break;
2080:Drivers/STM32H7xx_HAL_Driver/Src/stm32h7xx_ll_usb.c ****           }
2081:Drivers/STM32H7xx_HAL_Driver/Src/stm32h7xx_ll_usb.c ****         } while ((USBx_HC(hcnum)->HCCHAR & USB_OTG_HCCHAR_CHENA) == USB_OTG_HCCHAR_CHENA);
 4420              		.loc 1 2081 17 is_stmt 1 view .LVU1422
 4421              		.loc 1 2081 33 is_stmt 0 view .LVU1423
 4422 0080 1368     		ldr	r3, [r2]
 4423              		.loc 1 2081 9 view .LVU1424
 4424 0082 002B     		cmp	r3, #0
 4425 0084 F5DB     		blt	.L283
 4426 0086 0CE0     		b	.L279
 4427              	.L282:
2082:Drivers/STM32H7xx_HAL_Driver/Src/stm32h7xx_ll_usb.c ****       }
2083:Drivers/STM32H7xx_HAL_Driver/Src/stm32h7xx_ll_usb.c ****       else
2084:Drivers/STM32H7xx_HAL_Driver/Src/stm32h7xx_ll_usb.c ****       {
2085:Drivers/STM32H7xx_HAL_Driver/Src/stm32h7xx_ll_usb.c ****         USBx_HC(hcnum)->HCCHAR |= USB_OTG_HCCHAR_CHENA;
 4428              		.loc 1 2085 9 is_stmt 1 view .LVU1425
 4429              		.loc 1 2085 32 is_stmt 0 view .LVU1426
 4430 0088 D1F80035 		ldr	r3, [r1, #1280]
 4431 008c 43F00043 		orr	r3, r3, #-2147483648
 4432 0090 C1F80035 		str	r3, [r1, #1280]
 4433 0094 05E0     		b	.L279
ARM GAS  C:\Users\PgRick\AppData\Local\Temp\ccFebq6t.s 			page 134


 4434              	.L281:
2086:Drivers/STM32H7xx_HAL_Driver/Src/stm32h7xx_ll_usb.c ****       }
2087:Drivers/STM32H7xx_HAL_Driver/Src/stm32h7xx_ll_usb.c ****     }
2088:Drivers/STM32H7xx_HAL_Driver/Src/stm32h7xx_ll_usb.c ****     else
2089:Drivers/STM32H7xx_HAL_Driver/Src/stm32h7xx_ll_usb.c ****     {
2090:Drivers/STM32H7xx_HAL_Driver/Src/stm32h7xx_ll_usb.c ****       USBx_HC(hcnum)->HCCHAR |= USB_OTG_HCCHAR_CHENA;
 4435              		.loc 1 2090 7 is_stmt 1 view .LVU1427
 4436              		.loc 1 2090 30 is_stmt 0 view .LVU1428
 4437 0096 D1F80035 		ldr	r3, [r1, #1280]
 4438 009a 43F00043 		orr	r3, r3, #-2147483648
 4439 009e C1F80035 		str	r3, [r1, #1280]
 4440              	.L279:
2091:Drivers/STM32H7xx_HAL_Driver/Src/stm32h7xx_ll_usb.c ****     }
2092:Drivers/STM32H7xx_HAL_Driver/Src/stm32h7xx_ll_usb.c ****   }
2093:Drivers/STM32H7xx_HAL_Driver/Src/stm32h7xx_ll_usb.c ****   else
2094:Drivers/STM32H7xx_HAL_Driver/Src/stm32h7xx_ll_usb.c ****   {
2095:Drivers/STM32H7xx_HAL_Driver/Src/stm32h7xx_ll_usb.c ****     USBx_HC(hcnum)->HCCHAR |= USB_OTG_HCCHAR_CHDIS;
2096:Drivers/STM32H7xx_HAL_Driver/Src/stm32h7xx_ll_usb.c **** 
2097:Drivers/STM32H7xx_HAL_Driver/Src/stm32h7xx_ll_usb.c ****     if ((USBx_HOST->HPTXSTS & (0xFFU << 16)) == 0U)
2098:Drivers/STM32H7xx_HAL_Driver/Src/stm32h7xx_ll_usb.c ****     {
2099:Drivers/STM32H7xx_HAL_Driver/Src/stm32h7xx_ll_usb.c ****       USBx_HC(hcnum)->HCCHAR &= ~USB_OTG_HCCHAR_CHENA;
2100:Drivers/STM32H7xx_HAL_Driver/Src/stm32h7xx_ll_usb.c ****       USBx_HC(hcnum)->HCCHAR |= USB_OTG_HCCHAR_CHENA;
2101:Drivers/STM32H7xx_HAL_Driver/Src/stm32h7xx_ll_usb.c ****       do
2102:Drivers/STM32H7xx_HAL_Driver/Src/stm32h7xx_ll_usb.c ****       {
2103:Drivers/STM32H7xx_HAL_Driver/Src/stm32h7xx_ll_usb.c ****         count++;
2104:Drivers/STM32H7xx_HAL_Driver/Src/stm32h7xx_ll_usb.c **** 
2105:Drivers/STM32H7xx_HAL_Driver/Src/stm32h7xx_ll_usb.c ****         if (count > 1000U)
2106:Drivers/STM32H7xx_HAL_Driver/Src/stm32h7xx_ll_usb.c ****         {
2107:Drivers/STM32H7xx_HAL_Driver/Src/stm32h7xx_ll_usb.c ****           break;
2108:Drivers/STM32H7xx_HAL_Driver/Src/stm32h7xx_ll_usb.c ****         }
2109:Drivers/STM32H7xx_HAL_Driver/Src/stm32h7xx_ll_usb.c ****       } while ((USBx_HC(hcnum)->HCCHAR & USB_OTG_HCCHAR_CHENA) == USB_OTG_HCCHAR_CHENA);
2110:Drivers/STM32H7xx_HAL_Driver/Src/stm32h7xx_ll_usb.c ****     }
2111:Drivers/STM32H7xx_HAL_Driver/Src/stm32h7xx_ll_usb.c ****     else
2112:Drivers/STM32H7xx_HAL_Driver/Src/stm32h7xx_ll_usb.c ****     {
2113:Drivers/STM32H7xx_HAL_Driver/Src/stm32h7xx_ll_usb.c ****       USBx_HC(hcnum)->HCCHAR |= USB_OTG_HCCHAR_CHENA;
2114:Drivers/STM32H7xx_HAL_Driver/Src/stm32h7xx_ll_usb.c ****     }
2115:Drivers/STM32H7xx_HAL_Driver/Src/stm32h7xx_ll_usb.c ****   }
2116:Drivers/STM32H7xx_HAL_Driver/Src/stm32h7xx_ll_usb.c **** 
2117:Drivers/STM32H7xx_HAL_Driver/Src/stm32h7xx_ll_usb.c ****   return HAL_OK;
2118:Drivers/STM32H7xx_HAL_Driver/Src/stm32h7xx_ll_usb.c **** }
 4441              		.loc 1 2118 1 view .LVU1429
 4442 00a2 0020     		movs	r0, #0
 4443              	.LVL349:
 4444              		.loc 1 2118 1 view .LVU1430
 4445 00a4 03B0     		add	sp, sp, #12
 4446              	.LCFI61:
 4447              		.cfi_remember_state
 4448              		.cfi_def_cfa_offset 12
 4449              		@ sp needed
 4450 00a6 70BC     		pop	{r4, r5, r6}
 4451              	.LCFI62:
 4452              		.cfi_restore 6
 4453              		.cfi_restore 5
 4454              		.cfi_restore 4
 4455              		.cfi_def_cfa_offset 0
 4456 00a8 7047     		bx	lr
 4457              	.LVL350:
ARM GAS  C:\Users\PgRick\AppData\Local\Temp\ccFebq6t.s 			page 135


 4458              	.L280:
 4459              	.LCFI63:
 4460              		.cfi_restore_state
2095:Drivers/STM32H7xx_HAL_Driver/Src/stm32h7xx_ll_usb.c **** 
 4461              		.loc 1 2095 5 is_stmt 1 view .LVU1431
2095:Drivers/STM32H7xx_HAL_Driver/Src/stm32h7xx_ll_usb.c **** 
 4462              		.loc 1 2095 28 is_stmt 0 view .LVU1432
 4463 00aa D1F80035 		ldr	r3, [r1, #1280]
 4464              	.LVL351:
2095:Drivers/STM32H7xx_HAL_Driver/Src/stm32h7xx_ll_usb.c **** 
 4465              		.loc 1 2095 28 view .LVU1433
 4466 00ae 43F08043 		orr	r3, r3, #1073741824
 4467 00b2 C1F80035 		str	r3, [r1, #1280]
2097:Drivers/STM32H7xx_HAL_Driver/Src/stm32h7xx_ll_usb.c ****     {
 4468              		.loc 1 2097 5 is_stmt 1 view .LVU1434
2097:Drivers/STM32H7xx_HAL_Driver/Src/stm32h7xx_ll_usb.c ****     {
 4469              		.loc 1 2097 19 is_stmt 0 view .LVU1435
 4470 00b6 D0F81034 		ldr	r3, [r0, #1040]
2097:Drivers/STM32H7xx_HAL_Driver/Src/stm32h7xx_ll_usb.c ****     {
 4471              		.loc 1 2097 8 view .LVU1436
 4472 00ba 13F47F0F 		tst	r3, #16711680
 4473 00be 16D1     		bne	.L284
2099:Drivers/STM32H7xx_HAL_Driver/Src/stm32h7xx_ll_usb.c ****       USBx_HC(hcnum)->HCCHAR |= USB_OTG_HCCHAR_CHENA;
 4474              		.loc 1 2099 7 is_stmt 1 view .LVU1437
2099:Drivers/STM32H7xx_HAL_Driver/Src/stm32h7xx_ll_usb.c ****       USBx_HC(hcnum)->HCCHAR |= USB_OTG_HCCHAR_CHENA;
 4475              		.loc 1 2099 30 is_stmt 0 view .LVU1438
 4476 00c0 D1F80035 		ldr	r3, [r1, #1280]
 4477 00c4 23F00043 		bic	r3, r3, #-2147483648
 4478 00c8 C1F80035 		str	r3, [r1, #1280]
2100:Drivers/STM32H7xx_HAL_Driver/Src/stm32h7xx_ll_usb.c ****       do
 4479              		.loc 1 2100 7 is_stmt 1 view .LVU1439
2100:Drivers/STM32H7xx_HAL_Driver/Src/stm32h7xx_ll_usb.c ****       do
 4480              		.loc 1 2100 30 is_stmt 0 view .LVU1440
 4481 00cc D1F80035 		ldr	r3, [r1, #1280]
 4482 00d0 43F00043 		orr	r3, r3, #-2147483648
 4483 00d4 C1F80035 		str	r3, [r1, #1280]
 4484              	.L285:
2101:Drivers/STM32H7xx_HAL_Driver/Src/stm32h7xx_ll_usb.c ****       {
 4485              		.loc 1 2101 7 is_stmt 1 view .LVU1441
2103:Drivers/STM32H7xx_HAL_Driver/Src/stm32h7xx_ll_usb.c **** 
 4486              		.loc 1 2103 9 view .LVU1442
2103:Drivers/STM32H7xx_HAL_Driver/Src/stm32h7xx_ll_usb.c **** 
 4487              		.loc 1 2103 14 is_stmt 0 view .LVU1443
 4488 00d8 019B     		ldr	r3, [sp, #4]
 4489 00da 0133     		adds	r3, r3, #1
 4490 00dc 0193     		str	r3, [sp, #4]
2105:Drivers/STM32H7xx_HAL_Driver/Src/stm32h7xx_ll_usb.c ****         {
 4491              		.loc 1 2105 9 is_stmt 1 view .LVU1444
2105:Drivers/STM32H7xx_HAL_Driver/Src/stm32h7xx_ll_usb.c ****         {
 4492              		.loc 1 2105 19 is_stmt 0 view .LVU1445
 4493 00de 019B     		ldr	r3, [sp, #4]
2105:Drivers/STM32H7xx_HAL_Driver/Src/stm32h7xx_ll_usb.c ****         {
 4494              		.loc 1 2105 12 view .LVU1446
 4495 00e0 B3F57A7F 		cmp	r3, #1000
 4496 00e4 DDD8     		bhi	.L279
2109:Drivers/STM32H7xx_HAL_Driver/Src/stm32h7xx_ll_usb.c ****     }
 4497              		.loc 1 2109 15 is_stmt 1 view .LVU1447
ARM GAS  C:\Users\PgRick\AppData\Local\Temp\ccFebq6t.s 			page 136


2109:Drivers/STM32H7xx_HAL_Driver/Src/stm32h7xx_ll_usb.c ****     }
 4498              		.loc 1 2109 31 is_stmt 0 view .LVU1448
 4499 00e6 1368     		ldr	r3, [r2]
2109:Drivers/STM32H7xx_HAL_Driver/Src/stm32h7xx_ll_usb.c ****     }
 4500              		.loc 1 2109 7 view .LVU1449
 4501 00e8 002B     		cmp	r3, #0
 4502 00ea F5DB     		blt	.L285
 4503 00ec D9E7     		b	.L279
 4504              	.L284:
2113:Drivers/STM32H7xx_HAL_Driver/Src/stm32h7xx_ll_usb.c ****     }
 4505              		.loc 1 2113 7 is_stmt 1 view .LVU1450
2113:Drivers/STM32H7xx_HAL_Driver/Src/stm32h7xx_ll_usb.c ****     }
 4506              		.loc 1 2113 30 is_stmt 0 view .LVU1451
 4507 00ee D1F80035 		ldr	r3, [r1, #1280]
 4508 00f2 43F00043 		orr	r3, r3, #-2147483648
 4509 00f6 C1F80035 		str	r3, [r1, #1280]
 4510 00fa D2E7     		b	.L279
 4511              		.cfi_endproc
 4512              	.LFE188:
 4514              		.section	.text.USB_DoPing,"ax",%progbits
 4515              		.align	1
 4516              		.global	USB_DoPing
 4517              		.syntax unified
 4518              		.thumb
 4519              		.thumb_func
 4521              	USB_DoPing:
 4522              	.LVL352:
 4523              	.LFB189:
2119:Drivers/STM32H7xx_HAL_Driver/Src/stm32h7xx_ll_usb.c **** 
2120:Drivers/STM32H7xx_HAL_Driver/Src/stm32h7xx_ll_usb.c **** /**
2121:Drivers/STM32H7xx_HAL_Driver/Src/stm32h7xx_ll_usb.c ****   * @brief  Initiate Do Ping protocol
2122:Drivers/STM32H7xx_HAL_Driver/Src/stm32h7xx_ll_usb.c ****   * @param  USBx  Selected device
2123:Drivers/STM32H7xx_HAL_Driver/Src/stm32h7xx_ll_usb.c ****   * @param  hc_num  Host Channel number
2124:Drivers/STM32H7xx_HAL_Driver/Src/stm32h7xx_ll_usb.c ****   *         This parameter can be a value from 1 to 15
2125:Drivers/STM32H7xx_HAL_Driver/Src/stm32h7xx_ll_usb.c ****   * @retval HAL state
2126:Drivers/STM32H7xx_HAL_Driver/Src/stm32h7xx_ll_usb.c ****   */
2127:Drivers/STM32H7xx_HAL_Driver/Src/stm32h7xx_ll_usb.c **** HAL_StatusTypeDef USB_DoPing(const USB_OTG_GlobalTypeDef *USBx, uint8_t ch_num)
2128:Drivers/STM32H7xx_HAL_Driver/Src/stm32h7xx_ll_usb.c **** {
 4524              		.loc 1 2128 1 is_stmt 1 view -0
 4525              		.cfi_startproc
 4526              		@ args = 0, pretend = 0, frame = 0
 4527              		@ frame_needed = 0, uses_anonymous_args = 0
 4528              		@ link register save eliminated.
2129:Drivers/STM32H7xx_HAL_Driver/Src/stm32h7xx_ll_usb.c ****   uint32_t USBx_BASE = (uint32_t)USBx;
 4529              		.loc 1 2129 3 view .LVU1453
2130:Drivers/STM32H7xx_HAL_Driver/Src/stm32h7xx_ll_usb.c ****   uint32_t chnum = (uint32_t)ch_num;
 4530              		.loc 1 2130 3 view .LVU1454
2131:Drivers/STM32H7xx_HAL_Driver/Src/stm32h7xx_ll_usb.c ****   uint32_t num_packets = 1U;
 4531              		.loc 1 2131 3 view .LVU1455
2132:Drivers/STM32H7xx_HAL_Driver/Src/stm32h7xx_ll_usb.c ****   uint32_t tmpreg;
 4532              		.loc 1 2132 3 view .LVU1456
2133:Drivers/STM32H7xx_HAL_Driver/Src/stm32h7xx_ll_usb.c **** 
2134:Drivers/STM32H7xx_HAL_Driver/Src/stm32h7xx_ll_usb.c ****   USBx_HC(chnum)->HCTSIZ = ((num_packets << 19) & USB_OTG_HCTSIZ_PKTCNT) |
 4533              		.loc 1 2134 3 view .LVU1457
 4534 0000 00EB4111 		add	r1, r0, r1, lsl #5
 4535              	.LVL353:
 4536              		.loc 1 2134 26 is_stmt 0 view .LVU1458
ARM GAS  C:\Users\PgRick\AppData\Local\Temp\ccFebq6t.s 			page 137


 4537 0004 064A     		ldr	r2, .L288
 4538 0006 C1F81025 		str	r2, [r1, #1296]
2135:Drivers/STM32H7xx_HAL_Driver/Src/stm32h7xx_ll_usb.c ****                            USB_OTG_HCTSIZ_DOPING;
2136:Drivers/STM32H7xx_HAL_Driver/Src/stm32h7xx_ll_usb.c **** 
2137:Drivers/STM32H7xx_HAL_Driver/Src/stm32h7xx_ll_usb.c ****   /* Set host channel enable */
2138:Drivers/STM32H7xx_HAL_Driver/Src/stm32h7xx_ll_usb.c ****   tmpreg = USBx_HC(chnum)->HCCHAR;
 4539              		.loc 1 2138 3 is_stmt 1 view .LVU1459
 4540              		.loc 1 2138 10 is_stmt 0 view .LVU1460
 4541 000a D1F80035 		ldr	r3, [r1, #1280]
 4542              	.LVL354:
2139:Drivers/STM32H7xx_HAL_Driver/Src/stm32h7xx_ll_usb.c ****   tmpreg &= ~USB_OTG_HCCHAR_CHDIS;
 4543              		.loc 1 2139 3 is_stmt 1 view .LVU1461
 4544              		.loc 1 2139 10 is_stmt 0 view .LVU1462
 4545 000e 23F08043 		bic	r3, r3, #1073741824
 4546              	.LVL355:
2140:Drivers/STM32H7xx_HAL_Driver/Src/stm32h7xx_ll_usb.c ****   tmpreg |= USB_OTG_HCCHAR_CHENA;
 4547              		.loc 1 2140 3 is_stmt 1 view .LVU1463
 4548              		.loc 1 2140 10 is_stmt 0 view .LVU1464
 4549 0012 43F00043 		orr	r3, r3, #-2147483648
 4550              	.LVL356:
2141:Drivers/STM32H7xx_HAL_Driver/Src/stm32h7xx_ll_usb.c ****   USBx_HC(chnum)->HCCHAR = tmpreg;
 4551              		.loc 1 2141 3 is_stmt 1 view .LVU1465
 4552              		.loc 1 2141 26 is_stmt 0 view .LVU1466
 4553 0016 C1F80035 		str	r3, [r1, #1280]
2142:Drivers/STM32H7xx_HAL_Driver/Src/stm32h7xx_ll_usb.c **** 
2143:Drivers/STM32H7xx_HAL_Driver/Src/stm32h7xx_ll_usb.c ****   return HAL_OK;
 4554              		.loc 1 2143 3 is_stmt 1 view .LVU1467
2144:Drivers/STM32H7xx_HAL_Driver/Src/stm32h7xx_ll_usb.c **** }
 4555              		.loc 1 2144 1 is_stmt 0 view .LVU1468
 4556 001a 0020     		movs	r0, #0
 4557              	.LVL357:
 4558              		.loc 1 2144 1 view .LVU1469
 4559 001c 7047     		bx	lr
 4560              	.L289:
 4561 001e 00BF     		.align	2
 4562              	.L288:
 4563 0020 00000880 		.word	-2146959360
 4564              		.cfi_endproc
 4565              	.LFE189:
 4567              		.section	.text.USB_HC_StartXfer,"ax",%progbits
 4568              		.align	1
 4569              		.global	USB_HC_StartXfer
 4570              		.syntax unified
 4571              		.thumb
 4572              		.thumb_func
 4574              	USB_HC_StartXfer:
 4575              	.LVL358:
 4576              	.LFB186:
1772:Drivers/STM32H7xx_HAL_Driver/Src/stm32h7xx_ll_usb.c ****   uint32_t USBx_BASE = (uint32_t)USBx;
 4577              		.loc 1 1772 1 is_stmt 1 view -0
 4578              		.cfi_startproc
 4579              		@ args = 0, pretend = 0, frame = 8
 4580              		@ frame_needed = 0, uses_anonymous_args = 0
1772:Drivers/STM32H7xx_HAL_Driver/Src/stm32h7xx_ll_usb.c ****   uint32_t USBx_BASE = (uint32_t)USBx;
 4581              		.loc 1 1772 1 is_stmt 0 view .LVU1471
 4582 0000 70B5     		push	{r4, r5, r6, lr}
 4583              	.LCFI64:
ARM GAS  C:\Users\PgRick\AppData\Local\Temp\ccFebq6t.s 			page 138


 4584              		.cfi_def_cfa_offset 16
 4585              		.cfi_offset 4, -16
 4586              		.cfi_offset 5, -12
 4587              		.cfi_offset 6, -8
 4588              		.cfi_offset 14, -4
 4589 0002 84B0     		sub	sp, sp, #16
 4590              	.LCFI65:
 4591              		.cfi_def_cfa_offset 32
1773:Drivers/STM32H7xx_HAL_Driver/Src/stm32h7xx_ll_usb.c ****   uint32_t ch_num = (uint32_t)hc->ch_num;
 4592              		.loc 1 1773 3 is_stmt 1 view .LVU1472
 4593              	.LVL359:
1774:Drivers/STM32H7xx_HAL_Driver/Src/stm32h7xx_ll_usb.c ****   __IO uint32_t tmpreg;
 4594              		.loc 1 1774 3 view .LVU1473
1774:Drivers/STM32H7xx_HAL_Driver/Src/stm32h7xx_ll_usb.c ****   __IO uint32_t tmpreg;
 4595              		.loc 1 1774 33 is_stmt 0 view .LVU1474
 4596 0004 4B78     		ldrb	r3, [r1, #1]	@ zero_extendqisi2
 4597              	.LVL360:
1775:Drivers/STM32H7xx_HAL_Driver/Src/stm32h7xx_ll_usb.c ****   uint8_t  is_oddframe;
 4598              		.loc 1 1775 3 is_stmt 1 view .LVU1475
1776:Drivers/STM32H7xx_HAL_Driver/Src/stm32h7xx_ll_usb.c ****   uint16_t len_words;
 4599              		.loc 1 1776 3 view .LVU1476
1777:Drivers/STM32H7xx_HAL_Driver/Src/stm32h7xx_ll_usb.c ****   uint16_t num_packets;
 4600              		.loc 1 1777 3 view .LVU1477
1778:Drivers/STM32H7xx_HAL_Driver/Src/stm32h7xx_ll_usb.c ****   uint16_t max_hc_pkt_count = HC_MAX_PKT_CNT;
 4601              		.loc 1 1778 3 view .LVU1478
1779:Drivers/STM32H7xx_HAL_Driver/Src/stm32h7xx_ll_usb.c **** 
 4602              		.loc 1 1779 3 view .LVU1479
1782:Drivers/STM32H7xx_HAL_Driver/Src/stm32h7xx_ll_usb.c ****   {
 4603              		.loc 1 1782 3 view .LVU1480
1782:Drivers/STM32H7xx_HAL_Driver/Src/stm32h7xx_ll_usb.c ****   {
 4604              		.loc 1 1782 6 is_stmt 0 view .LVU1481
 4605 0006 012A     		cmp	r2, #1
 4606 0008 17D0     		beq	.L322
1794:Drivers/STM32H7xx_HAL_Driver/Src/stm32h7xx_ll_usb.c ****     {
 4607              		.loc 1 1794 5 is_stmt 1 view .LVU1482
1794:Drivers/STM32H7xx_HAL_Driver/Src/stm32h7xx_ll_usb.c ****     {
 4608              		.loc 1 1794 38 is_stmt 0 view .LVU1483
 4609 000a 8C88     		ldrh	r4, [r1, #4]
1794:Drivers/STM32H7xx_HAL_Driver/Src/stm32h7xx_ll_usb.c ****     {
 4610              		.loc 1 1794 8 view .LVU1484
 4611 000c B4F5807F 		cmp	r4, #256
 4612 0010 21D0     		beq	.L323
 4613              	.L292:
1801:Drivers/STM32H7xx_HAL_Driver/Src/stm32h7xx_ll_usb.c ****   {
 4614              		.loc 1 1801 3 is_stmt 1 view .LVU1485
1801:Drivers/STM32H7xx_HAL_Driver/Src/stm32h7xx_ll_usb.c ****   {
 4615              		.loc 1 1801 9 is_stmt 0 view .LVU1486
 4616 0012 8C79     		ldrb	r4, [r1, #6]	@ zero_extendqisi2
1801:Drivers/STM32H7xx_HAL_Driver/Src/stm32h7xx_ll_usb.c ****   {
 4617              		.loc 1 1801 6 view .LVU1487
 4618 0014 012C     		cmp	r4, #1
 4619 0016 24D0     		beq	.L324
1859:Drivers/STM32H7xx_HAL_Driver/Src/stm32h7xx_ll_usb.c ****     {
 4620              		.loc 1 1859 5 is_stmt 1 view .LVU1488
1859:Drivers/STM32H7xx_HAL_Driver/Src/stm32h7xx_ll_usb.c ****     {
 4621              		.loc 1 1859 11 is_stmt 0 view .LVU1489
 4622 0018 0D6A     		ldr	r5, [r1, #32]
ARM GAS  C:\Users\PgRick\AppData\Local\Temp\ccFebq6t.s 			page 139


1859:Drivers/STM32H7xx_HAL_Driver/Src/stm32h7xx_ll_usb.c ****     {
 4623              		.loc 1 1859 8 view .LVU1490
 4624 001a 002D     		cmp	r5, #0
 4625 001c 55D0     		beq	.L320
1861:Drivers/STM32H7xx_HAL_Driver/Src/stm32h7xx_ll_usb.c **** 
 4626              		.loc 1 1861 7 is_stmt 1 view .LVU1491
1861:Drivers/STM32H7xx_HAL_Driver/Src/stm32h7xx_ll_usb.c **** 
 4627              		.loc 1 1861 50 is_stmt 0 view .LVU1492
 4628 001e 8E8A     		ldrh	r6, [r1, #20]
1861:Drivers/STM32H7xx_HAL_Driver/Src/stm32h7xx_ll_usb.c **** 
 4629              		.loc 1 1861 46 view .LVU1493
 4630 0020 AC19     		adds	r4, r5, r6
1861:Drivers/STM32H7xx_HAL_Driver/Src/stm32h7xx_ll_usb.c **** 
 4631              		.loc 1 1861 63 view .LVU1494
 4632 0022 013C     		subs	r4, r4, #1
1861:Drivers/STM32H7xx_HAL_Driver/Src/stm32h7xx_ll_usb.c **** 
 4633              		.loc 1 1861 69 view .LVU1495
 4634 0024 B4FBF6F4 		udiv	r4, r4, r6
1861:Drivers/STM32H7xx_HAL_Driver/Src/stm32h7xx_ll_usb.c **** 
 4635              		.loc 1 1861 19 view .LVU1496
 4636 0028 A4B2     		uxth	r4, r4
 4637              	.LVL361:
1863:Drivers/STM32H7xx_HAL_Driver/Src/stm32h7xx_ll_usb.c ****       {
 4638              		.loc 1 1863 7 is_stmt 1 view .LVU1497
1863:Drivers/STM32H7xx_HAL_Driver/Src/stm32h7xx_ll_usb.c ****       {
 4639              		.loc 1 1863 10 is_stmt 0 view .LVU1498
 4640 002a B4F5807F 		cmp	r4, #256
 4641 002e 4DD9     		bls	.L302
1865:Drivers/STM32H7xx_HAL_Driver/Src/stm32h7xx_ll_usb.c ****         hc->XferSize = (uint32_t)num_packets * hc->max_packet;
 4642              		.loc 1 1865 9 is_stmt 1 view .LVU1499
 4643              	.LVL362:
1866:Drivers/STM32H7xx_HAL_Driver/Src/stm32h7xx_ll_usb.c ****       }
 4644              		.loc 1 1866 9 view .LVU1500
1866:Drivers/STM32H7xx_HAL_Driver/Src/stm32h7xx_ll_usb.c ****       }
 4645              		.loc 1 1866 46 is_stmt 0 view .LVU1501
 4646 0030 3602     		lsls	r6, r6, #8
1866:Drivers/STM32H7xx_HAL_Driver/Src/stm32h7xx_ll_usb.c ****       }
 4647              		.loc 1 1866 22 view .LVU1502
 4648 0032 CE61     		str	r6, [r1, #28]
1865:Drivers/STM32H7xx_HAL_Driver/Src/stm32h7xx_ll_usb.c ****         hc->XferSize = (uint32_t)num_packets * hc->max_packet;
 4649              		.loc 1 1865 21 view .LVU1503
 4650 0034 4FF48074 		mov	r4, #256
 4651 0038 48E0     		b	.L302
 4652              	.LVL363:
 4653              	.L322:
1784:Drivers/STM32H7xx_HAL_Driver/Src/stm32h7xx_ll_usb.c ****     {
 4654              		.loc 1 1784 5 is_stmt 1 view .LVU1504
1784:Drivers/STM32H7xx_HAL_Driver/Src/stm32h7xx_ll_usb.c ****     {
 4655              		.loc 1 1784 12 is_stmt 0 view .LVU1505
 4656 003a 8C7C     		ldrb	r4, [r1, #18]	@ zero_extendqisi2
1784:Drivers/STM32H7xx_HAL_Driver/Src/stm32h7xx_ll_usb.c ****     {
 4657              		.loc 1 1784 8 view .LVU1506
 4658 003c 022C     		cmp	r4, #2
 4659 003e 18BF     		it	ne
 4660 0040 002C     		cmpne	r4, #0
 4661 0042 E6D1     		bne	.L292
1787:Drivers/STM32H7xx_HAL_Driver/Src/stm32h7xx_ll_usb.c ****                                                USB_OTG_HCINTMSK_ACKM |
ARM GAS  C:\Users\PgRick\AppData\Local\Temp\ccFebq6t.s 			page 140


 4662              		.loc 1 1787 7 is_stmt 1 view .LVU1507
1787:Drivers/STM32H7xx_HAL_Driver/Src/stm32h7xx_ll_usb.c ****                                                USB_OTG_HCINTMSK_ACKM |
 4663              		.loc 1 1787 43 is_stmt 0 view .LVU1508
 4664 0044 00EB4314 		add	r4, r0, r3, lsl #5
 4665 0048 D4F80C55 		ldr	r5, [r4, #1292]
 4666 004c 25F07005 		bic	r5, r5, #112
 4667 0050 C4F80C55 		str	r5, [r4, #1292]
 4668 0054 DDE7     		b	.L292
 4669              	.L323:
1796:Drivers/STM32H7xx_HAL_Driver/Src/stm32h7xx_ll_usb.c ****       return HAL_OK;
 4670              		.loc 1 1796 7 is_stmt 1 view .LVU1509
1796:Drivers/STM32H7xx_HAL_Driver/Src/stm32h7xx_ll_usb.c ****       return HAL_OK;
 4671              		.loc 1 1796 13 is_stmt 0 view .LVU1510
 4672 0056 1946     		mov	r1, r3
 4673              	.LVL364:
1796:Drivers/STM32H7xx_HAL_Driver/Src/stm32h7xx_ll_usb.c ****       return HAL_OK;
 4674              		.loc 1 1796 13 view .LVU1511
 4675 0058 FFF7FEFF 		bl	USB_DoPing
 4676              	.LVL365:
1797:Drivers/STM32H7xx_HAL_Driver/Src/stm32h7xx_ll_usb.c ****     }
 4677              		.loc 1 1797 7 is_stmt 1 view .LVU1512
 4678              	.L293:
2022:Drivers/STM32H7xx_HAL_Driver/Src/stm32h7xx_ll_usb.c **** 
 4679              		.loc 1 2022 1 is_stmt 0 view .LVU1513
 4680 005c 0020     		movs	r0, #0
 4681 005e 04B0     		add	sp, sp, #16
 4682              	.LCFI66:
 4683              		.cfi_remember_state
 4684              		.cfi_def_cfa_offset 16
 4685              		@ sp needed
 4686 0060 70BD     		pop	{r4, r5, r6, pc}
 4687              	.LVL366:
 4688              	.L324:
 4689              	.LCFI67:
 4690              		.cfi_restore_state
1804:Drivers/STM32H7xx_HAL_Driver/Src/stm32h7xx_ll_usb.c **** 
 4691              		.loc 1 1804 5 is_stmt 1 view .LVU1514
1806:Drivers/STM32H7xx_HAL_Driver/Src/stm32h7xx_ll_usb.c ****     {
 4692              		.loc 1 1806 5 view .LVU1515
1806:Drivers/STM32H7xx_HAL_Driver/Src/stm32h7xx_ll_usb.c ****     {
 4693              		.loc 1 1806 11 is_stmt 0 view .LVU1516
 4694 0062 CC78     		ldrb	r4, [r1, #3]	@ zero_extendqisi2
1806:Drivers/STM32H7xx_HAL_Driver/Src/stm32h7xx_ll_usb.c ****     {
 4695              		.loc 1 1806 8 view .LVU1517
 4696 0064 1CB1     		cbz	r4, .L295
1808:Drivers/STM32H7xx_HAL_Driver/Src/stm32h7xx_ll_usb.c ****     }
 4697              		.loc 1 1808 7 is_stmt 1 view .LVU1518
1808:Drivers/STM32H7xx_HAL_Driver/Src/stm32h7xx_ll_usb.c ****     }
 4698              		.loc 1 1808 48 is_stmt 0 view .LVU1519
 4699 0066 8C8A     		ldrh	r4, [r1, #20]
1808:Drivers/STM32H7xx_HAL_Driver/Src/stm32h7xx_ll_usb.c ****     }
 4700              		.loc 1 1808 20 view .LVU1520
 4701 0068 CC61     		str	r4, [r1, #28]
1804:Drivers/STM32H7xx_HAL_Driver/Src/stm32h7xx_ll_usb.c **** 
 4702              		.loc 1 1804 17 view .LVU1521
 4703 006a 0124     		movs	r4, #1
 4704 006c 35E0     		b	.L296
ARM GAS  C:\Users\PgRick\AppData\Local\Temp\ccFebq6t.s 			page 141


 4705              	.L295:
1812:Drivers/STM32H7xx_HAL_Driver/Src/stm32h7xx_ll_usb.c ****       {
 4706              		.loc 1 1812 7 is_stmt 1 view .LVU1522
1812:Drivers/STM32H7xx_HAL_Driver/Src/stm32h7xx_ll_usb.c ****       {
 4707              		.loc 1 1812 13 is_stmt 0 view .LVU1523
 4708 006e 8C7C     		ldrb	r4, [r1, #18]	@ zero_extendqisi2
1812:Drivers/STM32H7xx_HAL_Driver/Src/stm32h7xx_ll_usb.c ****       {
 4709              		.loc 1 1812 10 view .LVU1524
 4710 0070 012C     		cmp	r4, #1
 4711 0072 05D0     		beq	.L325
1845:Drivers/STM32H7xx_HAL_Driver/Src/stm32h7xx_ll_usb.c ****         {
 4712              		.loc 1 1845 9 is_stmt 1 view .LVU1525
1845:Drivers/STM32H7xx_HAL_Driver/Src/stm32h7xx_ll_usb.c ****         {
 4713              		.loc 1 1845 12 is_stmt 0 view .LVU1526
 4714 0074 012A     		cmp	r2, #1
 4715 0076 21D0     		beq	.L326
 4716              	.L301:
1851:Drivers/STM32H7xx_HAL_Driver/Src/stm32h7xx_ll_usb.c ****         }
 4717              		.loc 1 1851 11 is_stmt 1 view .LVU1527
1851:Drivers/STM32H7xx_HAL_Driver/Src/stm32h7xx_ll_usb.c ****         }
 4718              		.loc 1 1851 28 is_stmt 0 view .LVU1528
 4719 0078 0C6A     		ldr	r4, [r1, #32]
1851:Drivers/STM32H7xx_HAL_Driver/Src/stm32h7xx_ll_usb.c ****         }
 4720              		.loc 1 1851 24 view .LVU1529
 4721 007a CC61     		str	r4, [r1, #28]
1804:Drivers/STM32H7xx_HAL_Driver/Src/stm32h7xx_ll_usb.c **** 
 4722              		.loc 1 1804 17 view .LVU1530
 4723 007c 0124     		movs	r4, #1
 4724 007e 2CE0     		b	.L296
 4725              	.L325:
1814:Drivers/STM32H7xx_HAL_Driver/Src/stm32h7xx_ll_usb.c ****         {
 4726              		.loc 1 1814 9 is_stmt 1 view .LVU1531
1814:Drivers/STM32H7xx_HAL_Driver/Src/stm32h7xx_ll_usb.c ****         {
 4727              		.loc 1 1814 15 is_stmt 0 view .LVU1532
 4728 0080 0C6A     		ldr	r4, [r1, #32]
1814:Drivers/STM32H7xx_HAL_Driver/Src/stm32h7xx_ll_usb.c ****         {
 4729              		.loc 1 1814 12 view .LVU1533
 4730 0082 BC2C     		cmp	r4, #188
 4731 0084 0DD9     		bls	.L298
1817:Drivers/STM32H7xx_HAL_Driver/Src/stm32h7xx_ll_usb.c ****           hc->xfer_len = hc->XferSize;
 4732              		.loc 1 1817 11 is_stmt 1 view .LVU1534
1817:Drivers/STM32H7xx_HAL_Driver/Src/stm32h7xx_ll_usb.c ****           hc->xfer_len = hc->XferSize;
 4733              		.loc 1 1817 28 is_stmt 0 view .LVU1535
 4734 0086 8C8A     		ldrh	r4, [r1, #20]
1817:Drivers/STM32H7xx_HAL_Driver/Src/stm32h7xx_ll_usb.c ****           hc->xfer_len = hc->XferSize;
 4735              		.loc 1 1817 24 view .LVU1536
 4736 0088 CC61     		str	r4, [r1, #28]
1818:Drivers/STM32H7xx_HAL_Driver/Src/stm32h7xx_ll_usb.c **** 
 4737              		.loc 1 1818 11 is_stmt 1 view .LVU1537
1818:Drivers/STM32H7xx_HAL_Driver/Src/stm32h7xx_ll_usb.c **** 
 4738              		.loc 1 1818 24 is_stmt 0 view .LVU1538
 4739 008a 0C62     		str	r4, [r1, #32]
1820:Drivers/STM32H7xx_HAL_Driver/Src/stm32h7xx_ll_usb.c ****           {
 4740              		.loc 1 1820 11 is_stmt 1 view .LVU1539
1820:Drivers/STM32H7xx_HAL_Driver/Src/stm32h7xx_ll_usb.c ****           {
 4741              		.loc 1 1820 18 is_stmt 0 view .LVU1540
 4742 008c CC68     		ldr	r4, [r1, #12]
ARM GAS  C:\Users\PgRick\AppData\Local\Temp\ccFebq6t.s 			page 142


1820:Drivers/STM32H7xx_HAL_Driver/Src/stm32h7xx_ll_usb.c ****           {
 4743              		.loc 1 1820 54 view .LVU1541
 4744 008e 013C     		subs	r4, r4, #1
1820:Drivers/STM32H7xx_HAL_Driver/Src/stm32h7xx_ll_usb.c ****           {
 4745              		.loc 1 1820 14 view .LVU1542
 4746 0090 012C     		cmp	r4, #1
 4747 0092 02D9     		bls	.L327
1826:Drivers/STM32H7xx_HAL_Driver/Src/stm32h7xx_ll_usb.c ****           }
 4748              		.loc 1 1826 13 is_stmt 1 view .LVU1543
1826:Drivers/STM32H7xx_HAL_Driver/Src/stm32h7xx_ll_usb.c ****           }
 4749              		.loc 1 1826 34 is_stmt 0 view .LVU1544
 4750 0094 0124     		movs	r4, #1
 4751 0096 CC60     		str	r4, [r1, #12]
 4752 0098 1FE0     		b	.L296
 4753              	.L327:
1822:Drivers/STM32H7xx_HAL_Driver/Src/stm32h7xx_ll_usb.c ****           }
 4754              		.loc 1 1822 13 is_stmt 1 view .LVU1545
1822:Drivers/STM32H7xx_HAL_Driver/Src/stm32h7xx_ll_usb.c ****           }
 4755              		.loc 1 1822 34 is_stmt 0 view .LVU1546
 4756 009a 0224     		movs	r4, #2
 4757 009c CC60     		str	r4, [r1, #12]
1804:Drivers/STM32H7xx_HAL_Driver/Src/stm32h7xx_ll_usb.c **** 
 4758              		.loc 1 1804 17 view .LVU1547
 4759 009e 0124     		movs	r4, #1
 4760 00a0 1BE0     		b	.L296
 4761              	.L298:
1831:Drivers/STM32H7xx_HAL_Driver/Src/stm32h7xx_ll_usb.c **** 
 4762              		.loc 1 1831 11 is_stmt 1 view .LVU1548
1831:Drivers/STM32H7xx_HAL_Driver/Src/stm32h7xx_ll_usb.c **** 
 4763              		.loc 1 1831 24 is_stmt 0 view .LVU1549
 4764 00a2 CC61     		str	r4, [r1, #28]
1833:Drivers/STM32H7xx_HAL_Driver/Src/stm32h7xx_ll_usb.c ****           {
 4765              		.loc 1 1833 11 is_stmt 1 view .LVU1550
1833:Drivers/STM32H7xx_HAL_Driver/Src/stm32h7xx_ll_usb.c ****           {
 4766              		.loc 1 1833 18 is_stmt 0 view .LVU1551
 4767 00a4 CC68     		ldr	r4, [r1, #12]
1833:Drivers/STM32H7xx_HAL_Driver/Src/stm32h7xx_ll_usb.c ****           {
 4768              		.loc 1 1833 54 view .LVU1552
 4769 00a6 013C     		subs	r4, r4, #1
1833:Drivers/STM32H7xx_HAL_Driver/Src/stm32h7xx_ll_usb.c ****           {
 4770              		.loc 1 1833 14 view .LVU1553
 4771 00a8 012C     		cmp	r4, #1
 4772 00aa 03D9     		bls	.L300
1835:Drivers/STM32H7xx_HAL_Driver/Src/stm32h7xx_ll_usb.c ****           }
 4773              		.loc 1 1835 13 is_stmt 1 view .LVU1554
1835:Drivers/STM32H7xx_HAL_Driver/Src/stm32h7xx_ll_usb.c ****           }
 4774              		.loc 1 1835 34 is_stmt 0 view .LVU1555
 4775 00ac 0424     		movs	r4, #4
 4776 00ae CC60     		str	r4, [r1, #12]
1804:Drivers/STM32H7xx_HAL_Driver/Src/stm32h7xx_ll_usb.c **** 
 4777              		.loc 1 1804 17 view .LVU1556
 4778 00b0 0124     		movs	r4, #1
 4779 00b2 12E0     		b	.L296
 4780              	.L300:
1839:Drivers/STM32H7xx_HAL_Driver/Src/stm32h7xx_ll_usb.c ****           }
 4781              		.loc 1 1839 13 is_stmt 1 view .LVU1557
1839:Drivers/STM32H7xx_HAL_Driver/Src/stm32h7xx_ll_usb.c ****           }
ARM GAS  C:\Users\PgRick\AppData\Local\Temp\ccFebq6t.s 			page 143


 4782              		.loc 1 1839 34 is_stmt 0 view .LVU1558
 4783 00b4 0324     		movs	r4, #3
 4784 00b6 CC60     		str	r4, [r1, #12]
1804:Drivers/STM32H7xx_HAL_Driver/Src/stm32h7xx_ll_usb.c **** 
 4785              		.loc 1 1804 17 view .LVU1559
 4786 00b8 0124     		movs	r4, #1
 4787 00ba 0EE0     		b	.L296
 4788              	.L326:
1845:Drivers/STM32H7xx_HAL_Driver/Src/stm32h7xx_ll_usb.c ****         {
 4789              		.loc 1 1845 31 discriminator 1 view .LVU1560
 4790 00bc 0D6A     		ldr	r5, [r1, #32]
1845:Drivers/STM32H7xx_HAL_Driver/Src/stm32h7xx_ll_usb.c ****         {
 4791              		.loc 1 1845 46 discriminator 1 view .LVU1561
 4792 00be 8C8A     		ldrh	r4, [r1, #20]
1845:Drivers/STM32H7xx_HAL_Driver/Src/stm32h7xx_ll_usb.c ****         {
 4793              		.loc 1 1845 25 discriminator 1 view .LVU1562
 4794 00c0 A542     		cmp	r5, r4
 4795 00c2 D9D9     		bls	.L301
1847:Drivers/STM32H7xx_HAL_Driver/Src/stm32h7xx_ll_usb.c ****         }
 4796              		.loc 1 1847 11 is_stmt 1 view .LVU1563
1847:Drivers/STM32H7xx_HAL_Driver/Src/stm32h7xx_ll_usb.c ****         }
 4797              		.loc 1 1847 24 is_stmt 0 view .LVU1564
 4798 00c4 CC61     		str	r4, [r1, #28]
1804:Drivers/STM32H7xx_HAL_Driver/Src/stm32h7xx_ll_usb.c **** 
 4799              		.loc 1 1804 17 view .LVU1565
 4800 00c6 0124     		movs	r4, #1
1847:Drivers/STM32H7xx_HAL_Driver/Src/stm32h7xx_ll_usb.c ****         }
 4801              		.loc 1 1847 24 view .LVU1566
 4802 00c8 07E0     		b	.L296
 4803              	.LVL367:
 4804              	.L320:
1871:Drivers/STM32H7xx_HAL_Driver/Src/stm32h7xx_ll_usb.c ****     }
 4805              		.loc 1 1871 19 view .LVU1567
 4806 00ca 0124     		movs	r4, #1
 4807              	.L302:
 4808              	.LVL368:
1878:Drivers/STM32H7xx_HAL_Driver/Src/stm32h7xx_ll_usb.c ****     {
 4809              		.loc 1 1878 5 is_stmt 1 view .LVU1568
1878:Drivers/STM32H7xx_HAL_Driver/Src/stm32h7xx_ll_usb.c ****     {
 4810              		.loc 1 1878 11 is_stmt 0 view .LVU1569
 4811 00cc CE78     		ldrb	r6, [r1, #3]	@ zero_extendqisi2
1878:Drivers/STM32H7xx_HAL_Driver/Src/stm32h7xx_ll_usb.c ****     {
 4812              		.loc 1 1878 8 view .LVU1570
 4813 00ce 002E     		cmp	r6, #0
 4814 00d0 61D0     		beq	.L303
1880:Drivers/STM32H7xx_HAL_Driver/Src/stm32h7xx_ll_usb.c ****     }
 4815              		.loc 1 1880 7 is_stmt 1 view .LVU1571
1880:Drivers/STM32H7xx_HAL_Driver/Src/stm32h7xx_ll_usb.c ****     }
 4816              		.loc 1 1880 48 is_stmt 0 view .LVU1572
 4817 00d2 8D8A     		ldrh	r5, [r1, #20]
1880:Drivers/STM32H7xx_HAL_Driver/Src/stm32h7xx_ll_usb.c ****     }
 4818              		.loc 1 1880 44 view .LVU1573
 4819 00d4 04FB05F5 		mul	r5, r4, r5
1880:Drivers/STM32H7xx_HAL_Driver/Src/stm32h7xx_ll_usb.c ****     }
 4820              		.loc 1 1880 20 view .LVU1574
 4821 00d8 CD61     		str	r5, [r1, #28]
 4822              	.LVL369:
ARM GAS  C:\Users\PgRick\AppData\Local\Temp\ccFebq6t.s 			page 144


 4823              	.L296:
1889:Drivers/STM32H7xx_HAL_Driver/Src/stm32h7xx_ll_usb.c ****                             (((uint32_t)num_packets << 19) & USB_OTG_HCTSIZ_PKTCNT) |
 4824              		.loc 1 1889 3 is_stmt 1 view .LVU1575
1889:Drivers/STM32H7xx_HAL_Driver/Src/stm32h7xx_ll_usb.c ****                             (((uint32_t)num_packets << 19) & USB_OTG_HCTSIZ_PKTCNT) |
 4825              		.loc 1 1889 43 is_stmt 0 view .LVU1576
 4826 00da CD69     		ldr	r5, [r1, #28]
 4827 00dc C5F3120C 		ubfx	ip, r5, #0, #19
1890:Drivers/STM32H7xx_HAL_Driver/Src/stm32h7xx_ll_usb.c ****                             (((uint32_t)hc->data_pid << 29) & USB_OTG_HCTSIZ_DPID);
 4828              		.loc 1 1890 60 view .LVU1577
 4829 00e0 6F4D     		ldr	r5, .L331
 4830 00e2 05EAC444 		and	r4, r5, r4, lsl #19
 4831              	.LVL370:
1889:Drivers/STM32H7xx_HAL_Driver/Src/stm32h7xx_ll_usb.c ****                             (((uint32_t)num_packets << 19) & USB_OTG_HCTSIZ_PKTCNT) |
 4832              		.loc 1 1889 68 view .LVU1578
 4833 00e6 4CEA040C 		orr	ip, ip, r4
1891:Drivers/STM32H7xx_HAL_Driver/Src/stm32h7xx_ll_usb.c **** 
 4834              		.loc 1 1891 43 view .LVU1579
 4835 00ea 8C7D     		ldrb	r4, [r1, #22]	@ zero_extendqisi2
1891:Drivers/STM32H7xx_HAL_Driver/Src/stm32h7xx_ll_usb.c **** 
 4836              		.loc 1 1891 54 view .LVU1580
 4837 00ec 6407     		lsls	r4, r4, #29
1891:Drivers/STM32H7xx_HAL_Driver/Src/stm32h7xx_ll_usb.c **** 
 4838              		.loc 1 1891 61 view .LVU1581
 4839 00ee 04F0C044 		and	r4, r4, #1610612736
1889:Drivers/STM32H7xx_HAL_Driver/Src/stm32h7xx_ll_usb.c ****                             (((uint32_t)num_packets << 19) & USB_OTG_HCTSIZ_PKTCNT) |
 4840              		.loc 1 1889 3 view .LVU1582
 4841 00f2 00EB4313 		add	r3, r0, r3, lsl #5
 4842              	.LVL371:
1889:Drivers/STM32H7xx_HAL_Driver/Src/stm32h7xx_ll_usb.c ****                             (((uint32_t)num_packets << 19) & USB_OTG_HCTSIZ_PKTCNT) |
 4843              		.loc 1 1889 3 view .LVU1583
 4844 00f6 03F5A06E 		add	lr, r3, #1280
1890:Drivers/STM32H7xx_HAL_Driver/Src/stm32h7xx_ll_usb.c ****                             (((uint32_t)hc->data_pid << 29) & USB_OTG_HCTSIZ_DPID);
 4845              		.loc 1 1890 85 view .LVU1584
 4846 00fa 4CEA0404 		orr	r4, ip, r4
1889:Drivers/STM32H7xx_HAL_Driver/Src/stm32h7xx_ll_usb.c ****                             (((uint32_t)num_packets << 19) & USB_OTG_HCTSIZ_PKTCNT) |
 4847              		.loc 1 1889 27 view .LVU1585
 4848 00fe CEF81040 		str	r4, [lr, #16]
1893:Drivers/STM32H7xx_HAL_Driver/Src/stm32h7xx_ll_usb.c ****   {
 4849              		.loc 1 1893 3 is_stmt 1 view .LVU1586
1893:Drivers/STM32H7xx_HAL_Driver/Src/stm32h7xx_ll_usb.c ****   {
 4850              		.loc 1 1893 6 is_stmt 0 view .LVU1587
 4851 0102 12B1     		cbz	r2, .L304
1896:Drivers/STM32H7xx_HAL_Driver/Src/stm32h7xx_ll_usb.c ****   }
 4852              		.loc 1 1896 5 is_stmt 1 view .LVU1588
1896:Drivers/STM32H7xx_HAL_Driver/Src/stm32h7xx_ll_usb.c ****   }
 4853              		.loc 1 1896 42 is_stmt 0 view .LVU1589
 4854 0104 8C69     		ldr	r4, [r1, #24]
1896:Drivers/STM32H7xx_HAL_Driver/Src/stm32h7xx_ll_usb.c ****   }
 4855              		.loc 1 1896 28 view .LVU1590
 4856 0106 CEF81440 		str	r4, [lr, #20]
 4857              	.L304:
1899:Drivers/STM32H7xx_HAL_Driver/Src/stm32h7xx_ll_usb.c ****   USBx_HC(ch_num)->HCCHAR &= ~USB_OTG_HCCHAR_ODDFRM;
 4858              		.loc 1 1899 3 is_stmt 1 view .LVU1591
1899:Drivers/STM32H7xx_HAL_Driver/Src/stm32h7xx_ll_usb.c ****   USBx_HC(ch_num)->HCCHAR &= ~USB_OTG_HCCHAR_ODDFRM;
 4859              		.loc 1 1899 29 is_stmt 0 view .LVU1592
 4860 010a 00F5806C 		add	ip, r0, #1024
1899:Drivers/STM32H7xx_HAL_Driver/Src/stm32h7xx_ll_usb.c ****   USBx_HC(ch_num)->HCCHAR &= ~USB_OTG_HCCHAR_ODDFRM;
ARM GAS  C:\Users\PgRick\AppData\Local\Temp\ccFebq6t.s 			page 145


 4861              		.loc 1 1899 38 view .LVU1593
 4862 010e DCF80840 		ldr	r4, [ip, #8]
1899:Drivers/STM32H7xx_HAL_Driver/Src/stm32h7xx_ll_usb.c ****   USBx_HC(ch_num)->HCCHAR &= ~USB_OTG_HCCHAR_ODDFRM;
 4863              		.loc 1 1899 67 view .LVU1594
 4864 0112 14F0010F 		tst	r4, #1
 4865 0116 0CBF     		ite	eq
 4866 0118 0126     		moveq	r6, #1
 4867 011a 0026     		movne	r6, #0
 4868              	.LVL372:
1900:Drivers/STM32H7xx_HAL_Driver/Src/stm32h7xx_ll_usb.c ****   USBx_HC(ch_num)->HCCHAR |= (uint32_t)is_oddframe << 29;
 4869              		.loc 1 1900 3 is_stmt 1 view .LVU1595
1900:Drivers/STM32H7xx_HAL_Driver/Src/stm32h7xx_ll_usb.c ****   USBx_HC(ch_num)->HCCHAR |= (uint32_t)is_oddframe << 29;
 4870              		.loc 1 1900 27 is_stmt 0 view .LVU1596
 4871 011c D3F80055 		ldr	r5, [r3, #1280]
 4872 0120 25F00055 		bic	r5, r5, #536870912
 4873 0124 C3F80055 		str	r5, [r3, #1280]
1901:Drivers/STM32H7xx_HAL_Driver/Src/stm32h7xx_ll_usb.c **** 
 4874              		.loc 1 1901 3 is_stmt 1 view .LVU1597
1901:Drivers/STM32H7xx_HAL_Driver/Src/stm32h7xx_ll_usb.c **** 
 4875              		.loc 1 1901 27 is_stmt 0 view .LVU1598
 4876 0128 D3F80045 		ldr	r4, [r3, #1280]
 4877 012c 44EA4674 		orr	r4, r4, r6, lsl #29
 4878 0130 C3F80045 		str	r4, [r3, #1280]
1903:Drivers/STM32H7xx_HAL_Driver/Src/stm32h7xx_ll_usb.c ****   {
 4879              		.loc 1 1903 3 is_stmt 1 view .LVU1599
1903:Drivers/STM32H7xx_HAL_Driver/Src/stm32h7xx_ll_usb.c ****   {
 4880              		.loc 1 1903 9 is_stmt 0 view .LVU1600
 4881 0134 8C79     		ldrb	r4, [r1, #6]	@ zero_extendqisi2
1903:Drivers/STM32H7xx_HAL_Driver/Src/stm32h7xx_ll_usb.c ****   {
 4882              		.loc 1 1903 6 view .LVU1601
 4883 0136 012C     		cmp	r4, #1
 4884 0138 2FD0     		beq	.L328
1959:Drivers/STM32H7xx_HAL_Driver/Src/stm32h7xx_ll_usb.c ****   }
 4885              		.loc 1 1959 5 is_stmt 1 view .LVU1602
1959:Drivers/STM32H7xx_HAL_Driver/Src/stm32h7xx_ll_usb.c ****   }
 4886              		.loc 1 1959 39 is_stmt 0 view .LVU1603
 4887 013a 0024     		movs	r4, #0
 4888 013c CEF80440 		str	r4, [lr, #4]
 4889              	.L308:
1963:Drivers/STM32H7xx_HAL_Driver/Src/stm32h7xx_ll_usb.c ****   tmpreg &= ~USB_OTG_HCCHAR_CHDIS;
 4890              		.loc 1 1963 3 is_stmt 1 view .LVU1604
1963:Drivers/STM32H7xx_HAL_Driver/Src/stm32h7xx_ll_usb.c ****   tmpreg &= ~USB_OTG_HCCHAR_CHDIS;
 4891              		.loc 1 1963 27 is_stmt 0 view .LVU1605
 4892 0140 D3F80045 		ldr	r4, [r3, #1280]
1963:Drivers/STM32H7xx_HAL_Driver/Src/stm32h7xx_ll_usb.c ****   tmpreg &= ~USB_OTG_HCCHAR_CHDIS;
 4893              		.loc 1 1963 10 view .LVU1606
 4894 0144 0394     		str	r4, [sp, #12]
1964:Drivers/STM32H7xx_HAL_Driver/Src/stm32h7xx_ll_usb.c **** 
 4895              		.loc 1 1964 3 is_stmt 1 view .LVU1607
1964:Drivers/STM32H7xx_HAL_Driver/Src/stm32h7xx_ll_usb.c **** 
 4896              		.loc 1 1964 10 is_stmt 0 view .LVU1608
 4897 0146 039C     		ldr	r4, [sp, #12]
 4898 0148 24F08044 		bic	r4, r4, #1073741824
 4899 014c 0394     		str	r4, [sp, #12]
1967:Drivers/STM32H7xx_HAL_Driver/Src/stm32h7xx_ll_usb.c ****   {
 4900              		.loc 1 1967 3 is_stmt 1 view .LVU1609
1967:Drivers/STM32H7xx_HAL_Driver/Src/stm32h7xx_ll_usb.c ****   {
ARM GAS  C:\Users\PgRick\AppData\Local\Temp\ccFebq6t.s 			page 146


 4901              		.loc 1 1967 9 is_stmt 0 view .LVU1610
 4902 014e CC78     		ldrb	r4, [r1, #3]	@ zero_extendqisi2
1967:Drivers/STM32H7xx_HAL_Driver/Src/stm32h7xx_ll_usb.c ****   {
 4903              		.loc 1 1967 6 view .LVU1611
 4904 0150 002C     		cmp	r4, #0
 4905 0152 7FD0     		beq	.L314
1969:Drivers/STM32H7xx_HAL_Driver/Src/stm32h7xx_ll_usb.c ****   }
 4906              		.loc 1 1969 5 is_stmt 1 view .LVU1612
1969:Drivers/STM32H7xx_HAL_Driver/Src/stm32h7xx_ll_usb.c ****   }
 4907              		.loc 1 1969 12 is_stmt 0 view .LVU1613
 4908 0154 039C     		ldr	r4, [sp, #12]
 4909 0156 44F40044 		orr	r4, r4, #32768
 4910 015a 0394     		str	r4, [sp, #12]
 4911              	.L315:
1975:Drivers/STM32H7xx_HAL_Driver/Src/stm32h7xx_ll_usb.c ****   USBx_HC(ch_num)->HCCHAR = tmpreg;
 4912              		.loc 1 1975 3 is_stmt 1 view .LVU1614
1975:Drivers/STM32H7xx_HAL_Driver/Src/stm32h7xx_ll_usb.c ****   USBx_HC(ch_num)->HCCHAR = tmpreg;
 4913              		.loc 1 1975 10 is_stmt 0 view .LVU1615
 4914 015c 039C     		ldr	r4, [sp, #12]
 4915 015e 44F00044 		orr	r4, r4, #-2147483648
 4916 0162 0394     		str	r4, [sp, #12]
1976:Drivers/STM32H7xx_HAL_Driver/Src/stm32h7xx_ll_usb.c **** 
 4917              		.loc 1 1976 3 is_stmt 1 view .LVU1616
1976:Drivers/STM32H7xx_HAL_Driver/Src/stm32h7xx_ll_usb.c **** 
 4918              		.loc 1 1976 27 is_stmt 0 view .LVU1617
 4919 0164 039C     		ldr	r4, [sp, #12]
 4920 0166 C3F80045 		str	r4, [r3, #1280]
1978:Drivers/STM32H7xx_HAL_Driver/Src/stm32h7xx_ll_usb.c ****   {
 4921              		.loc 1 1978 3 is_stmt 1 view .LVU1618
1978:Drivers/STM32H7xx_HAL_Driver/Src/stm32h7xx_ll_usb.c ****   {
 4922              		.loc 1 1978 6 is_stmt 0 view .LVU1619
 4923 016a 002A     		cmp	r2, #0
 4924 016c 7FF476AF 		bne	.L293
1983:Drivers/STM32H7xx_HAL_Driver/Src/stm32h7xx_ll_usb.c ****   {
 4925              		.loc 1 1983 3 is_stmt 1 view .LVU1620
1983:Drivers/STM32H7xx_HAL_Driver/Src/stm32h7xx_ll_usb.c ****   {
 4926              		.loc 1 1983 10 is_stmt 0 view .LVU1621
 4927 0170 CB78     		ldrb	r3, [r1, #3]	@ zero_extendqisi2
1983:Drivers/STM32H7xx_HAL_Driver/Src/stm32h7xx_ll_usb.c ****   {
 4928              		.loc 1 1983 6 view .LVU1622
 4929 0172 002B     		cmp	r3, #0
 4930 0174 7FF472AF 		bne	.L293
1983:Drivers/STM32H7xx_HAL_Driver/Src/stm32h7xx_ll_usb.c ****   {
 4931              		.loc 1 1983 34 discriminator 1 view .LVU1623
 4932 0178 0B6A     		ldr	r3, [r1, #32]
1983:Drivers/STM32H7xx_HAL_Driver/Src/stm32h7xx_ll_usb.c ****   {
 4933              		.loc 1 1983 28 discriminator 1 view .LVU1624
 4934 017a 002B     		cmp	r3, #0
 4935 017c 3FF46EAF 		beq	.L293
1983:Drivers/STM32H7xx_HAL_Driver/Src/stm32h7xx_ll_usb.c ****   {
 4936              		.loc 1 1983 57 discriminator 2 view .LVU1625
 4937 0180 CA79     		ldrb	r2, [r1, #7]	@ zero_extendqisi2
 4938              	.LVL373:
1983:Drivers/STM32H7xx_HAL_Driver/Src/stm32h7xx_ll_usb.c ****   {
 4939              		.loc 1 1983 51 discriminator 2 view .LVU1626
 4940 0182 002A     		cmp	r2, #0
 4941 0184 7FF46AAF 		bne	.L293
ARM GAS  C:\Users\PgRick\AppData\Local\Temp\ccFebq6t.s 			page 147


1985:Drivers/STM32H7xx_HAL_Driver/Src/stm32h7xx_ll_usb.c ****     {
 4942              		.loc 1 1985 5 is_stmt 1 view .LVU1627
1985:Drivers/STM32H7xx_HAL_Driver/Src/stm32h7xx_ll_usb.c ****     {
 4943              		.loc 1 1985 15 is_stmt 0 view .LVU1628
 4944 0188 8A7C     		ldrb	r2, [r1, #18]	@ zero_extendqisi2
1985:Drivers/STM32H7xx_HAL_Driver/Src/stm32h7xx_ll_usb.c ****     {
 4945              		.loc 1 1985 5 view .LVU1629
 4946 018a 032A     		cmp	r2, #3
 4947 018c 72D8     		bhi	.L316
 4948 018e DFE802F0 		tbb	[pc, r2]
 4949              	.L318:
 4950 0192 66       		.byte	(.L319-.L318)/2
 4951 0193 79       		.byte	(.L317-.L318)/2
 4952 0194 66       		.byte	(.L319-.L318)/2
 4953 0195 79       		.byte	(.L317-.L318)/2
 4954              	.LVL374:
 4955              		.p2align 1
 4956              	.L303:
1884:Drivers/STM32H7xx_HAL_Driver/Src/stm32h7xx_ll_usb.c ****     }
 4957              		.loc 1 1884 7 is_stmt 1 view .LVU1630
1884:Drivers/STM32H7xx_HAL_Driver/Src/stm32h7xx_ll_usb.c ****     }
 4958              		.loc 1 1884 20 is_stmt 0 view .LVU1631
 4959 0196 CD61     		str	r5, [r1, #28]
 4960 0198 9FE7     		b	.L296
 4961              	.LVL375:
 4962              	.L328:
1906:Drivers/STM32H7xx_HAL_Driver/Src/stm32h7xx_ll_usb.c ****                                         (uint32_t)hc->hub_port_nbr | USB_OTG_HCSPLT_SPLITEN;
 4963              		.loc 1 1906 5 is_stmt 1 view .LVU1632
1906:Drivers/STM32H7xx_HAL_Driver/Src/stm32h7xx_ll_usb.c ****                                         (uint32_t)hc->hub_port_nbr | USB_OTG_HCSPLT_SPLITEN;
 4964              		.loc 1 1906 54 is_stmt 0 view .LVU1633
 4965 019a 4D7C     		ldrb	r5, [r1, #17]	@ zero_extendqisi2
1907:Drivers/STM32H7xx_HAL_Driver/Src/stm32h7xx_ll_usb.c **** 
 4966              		.loc 1 1907 53 view .LVU1634
 4967 019c 0C7C     		ldrb	r4, [r1, #16]	@ zero_extendqisi2
1906:Drivers/STM32H7xx_HAL_Driver/Src/stm32h7xx_ll_usb.c ****                                         (uint32_t)hc->hub_port_nbr | USB_OTG_HCSPLT_SPLITEN;
 4968              		.loc 1 1906 96 view .LVU1635
 4969 019e 44EAC514 		orr	r4, r4, r5, lsl #7
1907:Drivers/STM32H7xx_HAL_Driver/Src/stm32h7xx_ll_usb.c **** 
 4970              		.loc 1 1907 68 view .LVU1636
 4971 01a2 44F00044 		orr	r4, r4, #-2147483648
1906:Drivers/STM32H7xx_HAL_Driver/Src/stm32h7xx_ll_usb.c ****                                         (uint32_t)hc->hub_port_nbr | USB_OTG_HCSPLT_SPLITEN;
 4972              		.loc 1 1906 39 view .LVU1637
 4973 01a6 CEF80440 		str	r4, [lr, #4]
1910:Drivers/STM32H7xx_HAL_Driver/Src/stm32h7xx_ll_usb.c ****                                             USB_OTG_HCINTMSK_NYET);
 4974              		.loc 1 1910 5 is_stmt 1 view .LVU1638
1910:Drivers/STM32H7xx_HAL_Driver/Src/stm32h7xx_ll_usb.c ****                                             USB_OTG_HCINTMSK_NYET);
 4975              		.loc 1 1910 41 is_stmt 0 view .LVU1639
 4976 01aa DEF80C40 		ldr	r4, [lr, #12]
 4977 01ae 44F06004 		orr	r4, r4, #96
 4978 01b2 CEF80C40 		str	r4, [lr, #12]
1913:Drivers/STM32H7xx_HAL_Driver/Src/stm32h7xx_ll_usb.c ****     {
 4979              		.loc 1 1913 5 is_stmt 1 view .LVU1640
1913:Drivers/STM32H7xx_HAL_Driver/Src/stm32h7xx_ll_usb.c ****     {
 4980              		.loc 1 1913 12 is_stmt 0 view .LVU1641
 4981 01b6 CC79     		ldrb	r4, [r1, #7]	@ zero_extendqisi2
1913:Drivers/STM32H7xx_HAL_Driver/Src/stm32h7xx_ll_usb.c ****     {
 4982              		.loc 1 1913 8 view .LVU1642
ARM GAS  C:\Users\PgRick\AppData\Local\Temp\ccFebq6t.s 			page 148


 4983 01b8 012C     		cmp	r4, #1
 4984 01ba 15D0     		beq	.L329
 4985              	.L306:
1919:Drivers/STM32H7xx_HAL_Driver/Src/stm32h7xx_ll_usb.c ****         (hc->do_csplit == 1U) && (hc->ep_is_in == 1U))
 4986              		.loc 1 1919 5 is_stmt 1 view .LVU1643
1919:Drivers/STM32H7xx_HAL_Driver/Src/stm32h7xx_ll_usb.c ****         (hc->do_csplit == 1U) && (hc->ep_is_in == 1U))
 4987              		.loc 1 1919 13 is_stmt 0 view .LVU1644
 4988 01bc 8C7C     		ldrb	r4, [r1, #18]	@ zero_extendqisi2
1919:Drivers/STM32H7xx_HAL_Driver/Src/stm32h7xx_ll_usb.c ****         (hc->do_csplit == 1U) && (hc->ep_is_in == 1U))
 4989              		.loc 1 1919 8 view .LVU1645
 4990 01be 032C     		cmp	r4, #3
 4991 01c0 18BF     		it	ne
 4992 01c2 012C     		cmpne	r4, #1
 4993 01c4 02D1     		bne	.L307
1920:Drivers/STM32H7xx_HAL_Driver/Src/stm32h7xx_ll_usb.c ****     {
 4994              		.loc 1 1920 12 discriminator 1 view .LVU1646
 4995 01c6 CC79     		ldrb	r4, [r1, #7]	@ zero_extendqisi2
1919:Drivers/STM32H7xx_HAL_Driver/Src/stm32h7xx_ll_usb.c ****         (hc->do_csplit == 1U) && (hc->ep_is_in == 1U))
 4996              		.loc 1 1919 74 discriminator 1 view .LVU1647
 4997 01c8 012C     		cmp	r4, #1
 4998 01ca 1DD0     		beq	.L330
 4999              	.L307:
1926:Drivers/STM32H7xx_HAL_Driver/Src/stm32h7xx_ll_usb.c ****     {
 5000              		.loc 1 1926 5 is_stmt 1 view .LVU1648
1926:Drivers/STM32H7xx_HAL_Driver/Src/stm32h7xx_ll_usb.c ****     {
 5001              		.loc 1 1926 12 is_stmt 0 view .LVU1649
 5002 01cc 8C7C     		ldrb	r4, [r1, #18]	@ zero_extendqisi2
1926:Drivers/STM32H7xx_HAL_Driver/Src/stm32h7xx_ll_usb.c ****     {
 5003              		.loc 1 1926 8 view .LVU1650
 5004 01ce 012C     		cmp	r4, #1
 5005 01d0 B6D1     		bne	.L308
1926:Drivers/STM32H7xx_HAL_Driver/Src/stm32h7xx_ll_usb.c ****     {
 5006              		.loc 1 1926 45 discriminator 1 view .LVU1651
 5007 01d2 CC78     		ldrb	r4, [r1, #3]	@ zero_extendqisi2
1926:Drivers/STM32H7xx_HAL_Driver/Src/stm32h7xx_ll_usb.c ****     {
 5008              		.loc 1 1926 39 discriminator 1 view .LVU1652
 5009 01d4 002C     		cmp	r4, #0
 5010 01d6 B3D1     		bne	.L308
1929:Drivers/STM32H7xx_HAL_Driver/Src/stm32h7xx_ll_usb.c ****       {
 5011              		.loc 1 1929 7 is_stmt 1 view .LVU1653
1929:Drivers/STM32H7xx_HAL_Driver/Src/stm32h7xx_ll_usb.c ****       {
 5012              		.loc 1 1929 17 is_stmt 0 view .LVU1654
 5013 01d8 CC68     		ldr	r4, [r1, #12]
1929:Drivers/STM32H7xx_HAL_Driver/Src/stm32h7xx_ll_usb.c ****       {
 5014              		.loc 1 1929 7 view .LVU1655
 5015 01da 013C     		subs	r4, r4, #1
 5016 01dc 032C     		cmp	r4, #3
 5017 01de AFD8     		bhi	.L308
 5018 01e0 DFE804F0 		tbb	[pc, r4]
 5019              	.L310:
 5020 01e4 1C       		.byte	(.L313-.L310)/2
 5021 01e5 23       		.byte	(.L312-.L310)/2
 5022 01e6 2A       		.byte	(.L311-.L310)/2
 5023 01e7 31       		.byte	(.L309-.L310)/2
 5024              		.p2align 1
 5025              	.L329:
1913:Drivers/STM32H7xx_HAL_Driver/Src/stm32h7xx_ll_usb.c ****     {
ARM GAS  C:\Users\PgRick\AppData\Local\Temp\ccFebq6t.s 			page 149


 5026              		.loc 1 1913 37 discriminator 1 view .LVU1656
 5027 01e8 CC78     		ldrb	r4, [r1, #3]	@ zero_extendqisi2
1913:Drivers/STM32H7xx_HAL_Driver/Src/stm32h7xx_ll_usb.c ****     {
 5028              		.loc 1 1913 31 discriminator 1 view .LVU1657
 5029 01ea 002C     		cmp	r4, #0
 5030 01ec E6D1     		bne	.L306
1915:Drivers/STM32H7xx_HAL_Driver/Src/stm32h7xx_ll_usb.c ****       USBx_HC((uint32_t)ch_num)->HCINTMSK |= USB_OTG_HCINTMSK_NYET;
 5031              		.loc 1 1915 7 is_stmt 1 view .LVU1658
1915:Drivers/STM32H7xx_HAL_Driver/Src/stm32h7xx_ll_usb.c ****       USBx_HC((uint32_t)ch_num)->HCINTMSK |= USB_OTG_HCINTMSK_NYET;
 5032              		.loc 1 1915 41 is_stmt 0 view .LVU1659
 5033 01ee DEF80440 		ldr	r4, [lr, #4]
 5034 01f2 44F48034 		orr	r4, r4, #65536
 5035 01f6 CEF80440 		str	r4, [lr, #4]
1916:Drivers/STM32H7xx_HAL_Driver/Src/stm32h7xx_ll_usb.c ****     }
 5036              		.loc 1 1916 7 is_stmt 1 view .LVU1660
1916:Drivers/STM32H7xx_HAL_Driver/Src/stm32h7xx_ll_usb.c ****     }
 5037              		.loc 1 1916 43 is_stmt 0 view .LVU1661
 5038 01fa DEF80C40 		ldr	r4, [lr, #12]
 5039 01fe 44F04004 		orr	r4, r4, #64
 5040 0202 CEF80C40 		str	r4, [lr, #12]
 5041 0206 D9E7     		b	.L306
 5042              	.L330:
1920:Drivers/STM32H7xx_HAL_Driver/Src/stm32h7xx_ll_usb.c ****     {
 5043              		.loc 1 1920 37 view .LVU1662
 5044 0208 CC78     		ldrb	r4, [r1, #3]	@ zero_extendqisi2
1920:Drivers/STM32H7xx_HAL_Driver/Src/stm32h7xx_ll_usb.c ****     {
 5045              		.loc 1 1920 31 view .LVU1663
 5046 020a 012C     		cmp	r4, #1
 5047 020c DED1     		bne	.L307
1922:Drivers/STM32H7xx_HAL_Driver/Src/stm32h7xx_ll_usb.c ****     }
 5048              		.loc 1 1922 7 is_stmt 1 view .LVU1664
1922:Drivers/STM32H7xx_HAL_Driver/Src/stm32h7xx_ll_usb.c ****     }
 5049              		.loc 1 1922 41 is_stmt 0 view .LVU1665
 5050 020e DEF80440 		ldr	r4, [lr, #4]
 5051 0212 44F48034 		orr	r4, r4, #65536
 5052 0216 CEF80440 		str	r4, [lr, #4]
 5053 021a D7E7     		b	.L307
 5054              	.L313:
1933:Drivers/STM32H7xx_HAL_Driver/Src/stm32h7xx_ll_usb.c ****           break;
 5055              		.loc 1 1933 11 is_stmt 1 view .LVU1666
1933:Drivers/STM32H7xx_HAL_Driver/Src/stm32h7xx_ll_usb.c ****           break;
 5056              		.loc 1 1933 45 is_stmt 0 view .LVU1667
 5057 021c DEF80440 		ldr	r4, [lr, #4]
 5058 0220 44F40044 		orr	r4, r4, #32768
 5059 0224 CEF80440 		str	r4, [lr, #4]
1934:Drivers/STM32H7xx_HAL_Driver/Src/stm32h7xx_ll_usb.c **** 
 5060              		.loc 1 1934 11 is_stmt 1 view .LVU1668
 5061 0228 8AE7     		b	.L308
 5062              	.L312:
1938:Drivers/STM32H7xx_HAL_Driver/Src/stm32h7xx_ll_usb.c ****           break;
 5063              		.loc 1 1938 11 view .LVU1669
1938:Drivers/STM32H7xx_HAL_Driver/Src/stm32h7xx_ll_usb.c ****           break;
 5064              		.loc 1 1938 45 is_stmt 0 view .LVU1670
 5065 022a DEF80440 		ldr	r4, [lr, #4]
 5066 022e 44F00E04 		orr	r4, r4, #14
 5067 0232 CEF80440 		str	r4, [lr, #4]
1939:Drivers/STM32H7xx_HAL_Driver/Src/stm32h7xx_ll_usb.c **** 
ARM GAS  C:\Users\PgRick\AppData\Local\Temp\ccFebq6t.s 			page 150


 5068              		.loc 1 1939 11 is_stmt 1 view .LVU1671
 5069 0236 83E7     		b	.L308
 5070              	.L311:
1943:Drivers/STM32H7xx_HAL_Driver/Src/stm32h7xx_ll_usb.c ****           break;
 5071              		.loc 1 1943 11 view .LVU1672
1943:Drivers/STM32H7xx_HAL_Driver/Src/stm32h7xx_ll_usb.c ****           break;
 5072              		.loc 1 1943 45 is_stmt 0 view .LVU1673
 5073 0238 DEF80440 		ldr	r4, [lr, #4]
 5074 023c 44F48044 		orr	r4, r4, #16384
 5075 0240 CEF80440 		str	r4, [lr, #4]
1944:Drivers/STM32H7xx_HAL_Driver/Src/stm32h7xx_ll_usb.c **** 
 5076              		.loc 1 1944 11 is_stmt 1 view .LVU1674
 5077 0244 7CE7     		b	.L308
 5078              	.L309:
1948:Drivers/STM32H7xx_HAL_Driver/Src/stm32h7xx_ll_usb.c ****           break;
 5079              		.loc 1 1948 11 view .LVU1675
1948:Drivers/STM32H7xx_HAL_Driver/Src/stm32h7xx_ll_usb.c ****           break;
 5080              		.loc 1 1948 45 is_stmt 0 view .LVU1676
 5081 0246 DEF80440 		ldr	r4, [lr, #4]
 5082 024a 44F44044 		orr	r4, r4, #49152
 5083 024e CEF80440 		str	r4, [lr, #4]
1949:Drivers/STM32H7xx_HAL_Driver/Src/stm32h7xx_ll_usb.c **** 
 5084              		.loc 1 1949 11 is_stmt 1 view .LVU1677
 5085 0252 75E7     		b	.L308
 5086              	.L314:
1973:Drivers/STM32H7xx_HAL_Driver/Src/stm32h7xx_ll_usb.c ****   }
 5087              		.loc 1 1973 5 view .LVU1678
1973:Drivers/STM32H7xx_HAL_Driver/Src/stm32h7xx_ll_usb.c ****   }
 5088              		.loc 1 1973 12 is_stmt 0 view .LVU1679
 5089 0254 039C     		ldr	r4, [sp, #12]
 5090 0256 24F40044 		bic	r4, r4, #32768
 5091 025a 0394     		str	r4, [sp, #12]
 5092 025c 7EE7     		b	.L315
 5093              	.LVL376:
 5094              	.L319:
1991:Drivers/STM32H7xx_HAL_Driver/Src/stm32h7xx_ll_usb.c **** 
 5095              		.loc 1 1991 9 is_stmt 1 view .LVU1680
1991:Drivers/STM32H7xx_HAL_Driver/Src/stm32h7xx_ll_usb.c **** 
 5096              		.loc 1 1991 46 is_stmt 0 view .LVU1681
 5097 025e 0333     		adds	r3, r3, #3
 5098              	.LVL377:
1994:Drivers/STM32H7xx_HAL_Driver/Src/stm32h7xx_ll_usb.c ****         {
 5099              		.loc 1 1994 9 is_stmt 1 view .LVU1682
1994:Drivers/STM32H7xx_HAL_Driver/Src/stm32h7xx_ll_usb.c ****         {
 5100              		.loc 1 1994 30 is_stmt 0 view .LVU1683
 5101 0260 C26A     		ldr	r2, [r0, #44]
1994:Drivers/STM32H7xx_HAL_Driver/Src/stm32h7xx_ll_usb.c ****         {
 5102              		.loc 1 1994 41 view .LVU1684
 5103 0262 92B2     		uxth	r2, r2
1994:Drivers/STM32H7xx_HAL_Driver/Src/stm32h7xx_ll_usb.c ****         {
 5104              		.loc 1 1994 12 view .LVU1685
 5105 0264 C3F38F03 		ubfx	r3, r3, #2, #16
 5106              	.LVL378:
1994:Drivers/STM32H7xx_HAL_Driver/Src/stm32h7xx_ll_usb.c ****         {
 5107              		.loc 1 1994 12 view .LVU1686
 5108 0268 9342     		cmp	r3, r2
 5109 026a 03D9     		bls	.L316
ARM GAS  C:\Users\PgRick\AppData\Local\Temp\ccFebq6t.s 			page 151


1997:Drivers/STM32H7xx_HAL_Driver/Src/stm32h7xx_ll_usb.c ****         }
 5110              		.loc 1 1997 11 is_stmt 1 view .LVU1687
1997:Drivers/STM32H7xx_HAL_Driver/Src/stm32h7xx_ll_usb.c ****         }
 5111              		.loc 1 1997 25 is_stmt 0 view .LVU1688
 5112 026c 8369     		ldr	r3, [r0, #24]
 5113 026e 43F02003 		orr	r3, r3, #32
 5114 0272 8361     		str	r3, [r0, #24]
 5115              	.LVL379:
 5116              	.L316:
2018:Drivers/STM32H7xx_HAL_Driver/Src/stm32h7xx_ll_usb.c ****   }
 5117              		.loc 1 2018 5 is_stmt 1 view .LVU1689
2018:Drivers/STM32H7xx_HAL_Driver/Src/stm32h7xx_ll_usb.c ****   }
 5118              		.loc 1 2018 11 is_stmt 0 view .LVU1690
 5119 0274 0023     		movs	r3, #0
 5120 0276 0093     		str	r3, [sp]
 5121 0278 0B8C     		ldrh	r3, [r1, #32]
 5122 027a 4A78     		ldrb	r2, [r1, #1]	@ zero_extendqisi2
 5123 027c 8969     		ldr	r1, [r1, #24]
 5124              	.LVL380:
2018:Drivers/STM32H7xx_HAL_Driver/Src/stm32h7xx_ll_usb.c ****   }
 5125              		.loc 1 2018 11 view .LVU1691
 5126 027e FFF7FEFF 		bl	USB_WritePacket
 5127              	.LVL381:
2018:Drivers/STM32H7xx_HAL_Driver/Src/stm32h7xx_ll_usb.c ****   }
 5128              		.loc 1 2018 11 view .LVU1692
 5129 0282 EBE6     		b	.L293
 5130              	.LVL382:
 5131              	.L317:
2004:Drivers/STM32H7xx_HAL_Driver/Src/stm32h7xx_ll_usb.c ****         /* check if there is enough space in FIFO space */
 5132              		.loc 1 2004 9 is_stmt 1 view .LVU1693
2004:Drivers/STM32H7xx_HAL_Driver/Src/stm32h7xx_ll_usb.c ****         /* check if there is enough space in FIFO space */
 5133              		.loc 1 2004 46 is_stmt 0 view .LVU1694
 5134 0284 0333     		adds	r3, r3, #3
 5135              	.LVL383:
2006:Drivers/STM32H7xx_HAL_Driver/Src/stm32h7xx_ll_usb.c ****         {
 5136              		.loc 1 2006 9 is_stmt 1 view .LVU1695
2006:Drivers/STM32H7xx_HAL_Driver/Src/stm32h7xx_ll_usb.c ****         {
 5137              		.loc 1 2006 35 is_stmt 0 view .LVU1696
 5138 0286 DCF81020 		ldr	r2, [ip, #16]
2006:Drivers/STM32H7xx_HAL_Driver/Src/stm32h7xx_ll_usb.c ****         {
 5139              		.loc 1 2006 45 view .LVU1697
 5140 028a 92B2     		uxth	r2, r2
2006:Drivers/STM32H7xx_HAL_Driver/Src/stm32h7xx_ll_usb.c ****         {
 5141              		.loc 1 2006 12 view .LVU1698
 5142 028c C3F38F03 		ubfx	r3, r3, #2, #16
 5143              	.LVL384:
2006:Drivers/STM32H7xx_HAL_Driver/Src/stm32h7xx_ll_usb.c ****         {
 5144              		.loc 1 2006 12 view .LVU1699
 5145 0290 9A42     		cmp	r2, r3
 5146 0292 EFD2     		bcs	.L316
2009:Drivers/STM32H7xx_HAL_Driver/Src/stm32h7xx_ll_usb.c ****         }
 5147              		.loc 1 2009 11 is_stmt 1 view .LVU1700
2009:Drivers/STM32H7xx_HAL_Driver/Src/stm32h7xx_ll_usb.c ****         }
 5148              		.loc 1 2009 25 is_stmt 0 view .LVU1701
 5149 0294 8369     		ldr	r3, [r0, #24]
 5150 0296 43F08063 		orr	r3, r3, #67108864
 5151 029a 8361     		str	r3, [r0, #24]
ARM GAS  C:\Users\PgRick\AppData\Local\Temp\ccFebq6t.s 			page 152


 5152              	.LVL385:
2009:Drivers/STM32H7xx_HAL_Driver/Src/stm32h7xx_ll_usb.c ****         }
 5153              		.loc 1 2009 25 view .LVU1702
 5154 029c EAE7     		b	.L316
 5155              	.L332:
 5156 029e 00BF     		.align	2
 5157              	.L331:
 5158 02a0 0000F81F 		.word	536346624
 5159              		.cfi_endproc
 5160              	.LFE186:
 5162              		.section	.text.USB_StopHost,"ax",%progbits
 5163              		.align	1
 5164              		.global	USB_StopHost
 5165              		.syntax unified
 5166              		.thumb
 5167              		.thumb_func
 5169              	USB_StopHost:
 5170              	.LVL386:
 5171              	.LFB190:
2145:Drivers/STM32H7xx_HAL_Driver/Src/stm32h7xx_ll_usb.c **** 
2146:Drivers/STM32H7xx_HAL_Driver/Src/stm32h7xx_ll_usb.c **** /**
2147:Drivers/STM32H7xx_HAL_Driver/Src/stm32h7xx_ll_usb.c ****   * @brief  Stop Host Core
2148:Drivers/STM32H7xx_HAL_Driver/Src/stm32h7xx_ll_usb.c ****   * @param  USBx  Selected device
2149:Drivers/STM32H7xx_HAL_Driver/Src/stm32h7xx_ll_usb.c ****   * @retval HAL state
2150:Drivers/STM32H7xx_HAL_Driver/Src/stm32h7xx_ll_usb.c ****   */
2151:Drivers/STM32H7xx_HAL_Driver/Src/stm32h7xx_ll_usb.c **** HAL_StatusTypeDef USB_StopHost(USB_OTG_GlobalTypeDef *USBx)
2152:Drivers/STM32H7xx_HAL_Driver/Src/stm32h7xx_ll_usb.c **** {
 5172              		.loc 1 2152 1 is_stmt 1 view -0
 5173              		.cfi_startproc
 5174              		@ args = 0, pretend = 0, frame = 8
 5175              		@ frame_needed = 0, uses_anonymous_args = 0
 5176              		.loc 1 2152 1 is_stmt 0 view .LVU1704
 5177 0000 30B5     		push	{r4, r5, lr}
 5178              	.LCFI68:
 5179              		.cfi_def_cfa_offset 12
 5180              		.cfi_offset 4, -12
 5181              		.cfi_offset 5, -8
 5182              		.cfi_offset 14, -4
 5183 0002 83B0     		sub	sp, sp, #12
 5184              	.LCFI69:
 5185              		.cfi_def_cfa_offset 24
 5186 0004 0446     		mov	r4, r0
2153:Drivers/STM32H7xx_HAL_Driver/Src/stm32h7xx_ll_usb.c ****   HAL_StatusTypeDef ret = HAL_OK;
 5187              		.loc 1 2153 3 is_stmt 1 view .LVU1705
 5188              	.LVL387:
2154:Drivers/STM32H7xx_HAL_Driver/Src/stm32h7xx_ll_usb.c ****   uint32_t USBx_BASE = (uint32_t)USBx;
 5189              		.loc 1 2154 3 view .LVU1706
2155:Drivers/STM32H7xx_HAL_Driver/Src/stm32h7xx_ll_usb.c ****   __IO uint32_t count = 0U;
 5190              		.loc 1 2155 3 view .LVU1707
 5191              		.loc 1 2155 17 is_stmt 0 view .LVU1708
 5192 0006 0023     		movs	r3, #0
 5193 0008 0193     		str	r3, [sp, #4]
2156:Drivers/STM32H7xx_HAL_Driver/Src/stm32h7xx_ll_usb.c ****   uint32_t value;
 5194              		.loc 1 2156 3 is_stmt 1 view .LVU1709
2157:Drivers/STM32H7xx_HAL_Driver/Src/stm32h7xx_ll_usb.c ****   uint32_t i;
 5195              		.loc 1 2157 3 view .LVU1710
2158:Drivers/STM32H7xx_HAL_Driver/Src/stm32h7xx_ll_usb.c **** 
ARM GAS  C:\Users\PgRick\AppData\Local\Temp\ccFebq6t.s 			page 153


2159:Drivers/STM32H7xx_HAL_Driver/Src/stm32h7xx_ll_usb.c ****   (void)USB_DisableGlobalInt(USBx);
 5196              		.loc 1 2159 3 view .LVU1711
 5197              		.loc 1 2159 9 is_stmt 0 view .LVU1712
 5198 000a FFF7FEFF 		bl	USB_DisableGlobalInt
 5199              	.LVL388:
2160:Drivers/STM32H7xx_HAL_Driver/Src/stm32h7xx_ll_usb.c **** 
2161:Drivers/STM32H7xx_HAL_Driver/Src/stm32h7xx_ll_usb.c ****   /* Flush USB FIFO */
2162:Drivers/STM32H7xx_HAL_Driver/Src/stm32h7xx_ll_usb.c ****   if (USB_FlushTxFifo(USBx, 0x10U) != HAL_OK) /* all Tx FIFOs */
 5200              		.loc 1 2162 3 is_stmt 1 view .LVU1713
 5201              		.loc 1 2162 7 is_stmt 0 view .LVU1714
 5202 000e 1021     		movs	r1, #16
 5203 0010 2046     		mov	r0, r4
 5204 0012 FFF7FEFF 		bl	USB_FlushTxFifo
 5205              	.LVL389:
 5206              		.loc 1 2162 6 view .LVU1715
 5207 0016 0546     		mov	r5, r0
 5208 0018 00B1     		cbz	r0, .L334
2163:Drivers/STM32H7xx_HAL_Driver/Src/stm32h7xx_ll_usb.c ****   {
2164:Drivers/STM32H7xx_HAL_Driver/Src/stm32h7xx_ll_usb.c ****     ret = HAL_ERROR;
 5209              		.loc 1 2164 9 view .LVU1716
 5210 001a 0125     		movs	r5, #1
 5211              	.L334:
 5212              	.LVL390:
2165:Drivers/STM32H7xx_HAL_Driver/Src/stm32h7xx_ll_usb.c ****   }
2166:Drivers/STM32H7xx_HAL_Driver/Src/stm32h7xx_ll_usb.c **** 
2167:Drivers/STM32H7xx_HAL_Driver/Src/stm32h7xx_ll_usb.c ****   if (USB_FlushRxFifo(USBx) != HAL_OK)
 5213              		.loc 1 2167 3 is_stmt 1 view .LVU1717
 5214              		.loc 1 2167 7 is_stmt 0 view .LVU1718
 5215 001c 2046     		mov	r0, r4
 5216 001e FFF7FEFF 		bl	USB_FlushRxFifo
 5217              	.LVL391:
 5218              		.loc 1 2167 6 view .LVU1719
 5219 0022 00B1     		cbz	r0, .L335
2168:Drivers/STM32H7xx_HAL_Driver/Src/stm32h7xx_ll_usb.c ****   {
2169:Drivers/STM32H7xx_HAL_Driver/Src/stm32h7xx_ll_usb.c ****     ret = HAL_ERROR;
 5220              		.loc 1 2169 9 view .LVU1720
 5221 0024 0125     		movs	r5, #1
 5222              	.LVL392:
 5223              	.L335:
2170:Drivers/STM32H7xx_HAL_Driver/Src/stm32h7xx_ll_usb.c ****   }
2171:Drivers/STM32H7xx_HAL_Driver/Src/stm32h7xx_ll_usb.c **** 
2172:Drivers/STM32H7xx_HAL_Driver/Src/stm32h7xx_ll_usb.c ****   /* Flush out any leftover queued requests. */
2173:Drivers/STM32H7xx_HAL_Driver/Src/stm32h7xx_ll_usb.c ****   for (i = 0U; i <= 15U; i++)
 5224              		.loc 1 2173 3 is_stmt 1 view .LVU1721
 5225              		.loc 1 2173 10 is_stmt 0 view .LVU1722
 5226 0026 0022     		movs	r2, #0
 5227              		.loc 1 2173 3 view .LVU1723
 5228 0028 0AE0     		b	.L336
 5229              	.LVL393:
 5230              	.L337:
2174:Drivers/STM32H7xx_HAL_Driver/Src/stm32h7xx_ll_usb.c ****   {
2175:Drivers/STM32H7xx_HAL_Driver/Src/stm32h7xx_ll_usb.c ****     value = USBx_HC(i)->HCCHAR;
 5231              		.loc 1 2175 5 is_stmt 1 discriminator 3 view .LVU1724
 5232              		.loc 1 2175 13 is_stmt 0 discriminator 3 view .LVU1725
 5233 002a 04EB4211 		add	r1, r4, r2, lsl #5
 5234              		.loc 1 2175 11 discriminator 3 view .LVU1726
 5235 002e D1F80035 		ldr	r3, [r1, #1280]
ARM GAS  C:\Users\PgRick\AppData\Local\Temp\ccFebq6t.s 			page 154


 5236              	.LVL394:
2176:Drivers/STM32H7xx_HAL_Driver/Src/stm32h7xx_ll_usb.c ****     value |=  USB_OTG_HCCHAR_CHDIS;
 5237              		.loc 1 2176 5 is_stmt 1 discriminator 3 view .LVU1727
2177:Drivers/STM32H7xx_HAL_Driver/Src/stm32h7xx_ll_usb.c ****     value &= ~USB_OTG_HCCHAR_CHENA;
 5238              		.loc 1 2177 5 discriminator 3 view .LVU1728
2178:Drivers/STM32H7xx_HAL_Driver/Src/stm32h7xx_ll_usb.c ****     value &= ~USB_OTG_HCCHAR_EPDIR;
 5239              		.loc 1 2178 5 discriminator 3 view .LVU1729
 5240 0032 23F08023 		bic	r3, r3, #-2147450880
 5241              	.LVL395:
 5242              		.loc 1 2178 11 is_stmt 0 discriminator 3 view .LVU1730
 5243 0036 43F08043 		orr	r3, r3, #1073741824
 5244              	.LVL396:
2179:Drivers/STM32H7xx_HAL_Driver/Src/stm32h7xx_ll_usb.c ****     USBx_HC(i)->HCCHAR = value;
 5245              		.loc 1 2179 5 is_stmt 1 discriminator 3 view .LVU1731
 5246              		.loc 1 2179 24 is_stmt 0 discriminator 3 view .LVU1732
 5247 003a C1F80035 		str	r3, [r1, #1280]
2173:Drivers/STM32H7xx_HAL_Driver/Src/stm32h7xx_ll_usb.c ****   {
 5248              		.loc 1 2173 26 is_stmt 1 discriminator 3 view .LVU1733
2173:Drivers/STM32H7xx_HAL_Driver/Src/stm32h7xx_ll_usb.c ****   {
 5249              		.loc 1 2173 27 is_stmt 0 discriminator 3 view .LVU1734
 5250 003e 0132     		adds	r2, r2, #1
 5251              	.LVL397:
 5252              	.L336:
2173:Drivers/STM32H7xx_HAL_Driver/Src/stm32h7xx_ll_usb.c ****   {
 5253              		.loc 1 2173 16 is_stmt 1 discriminator 1 view .LVU1735
2173:Drivers/STM32H7xx_HAL_Driver/Src/stm32h7xx_ll_usb.c ****   {
 5254              		.loc 1 2173 3 is_stmt 0 discriminator 1 view .LVU1736
 5255 0040 0F2A     		cmp	r2, #15
 5256 0042 F2D9     		bls	.L337
2180:Drivers/STM32H7xx_HAL_Driver/Src/stm32h7xx_ll_usb.c ****   }
2181:Drivers/STM32H7xx_HAL_Driver/Src/stm32h7xx_ll_usb.c **** 
2182:Drivers/STM32H7xx_HAL_Driver/Src/stm32h7xx_ll_usb.c ****   /* Halt all channels to put them into a known state. */
2183:Drivers/STM32H7xx_HAL_Driver/Src/stm32h7xx_ll_usb.c ****   for (i = 0U; i <= 15U; i++)
 5257              		.loc 1 2183 10 view .LVU1737
 5258 0044 0021     		movs	r1, #0
 5259 0046 00E0     		b	.L338
 5260              	.LVL398:
 5261              	.L339:
 5262              		.loc 1 2183 26 is_stmt 1 discriminator 2 view .LVU1738
 5263              		.loc 1 2183 27 is_stmt 0 discriminator 2 view .LVU1739
 5264 0048 0131     		adds	r1, r1, #1
 5265              	.LVL399:
 5266              	.L338:
 5267              		.loc 1 2183 16 is_stmt 1 discriminator 1 view .LVU1740
 5268              		.loc 1 2183 3 is_stmt 0 discriminator 1 view .LVU1741
 5269 004a 0F29     		cmp	r1, #15
 5270 004c 16D8     		bhi	.L345
2184:Drivers/STM32H7xx_HAL_Driver/Src/stm32h7xx_ll_usb.c ****   {
2185:Drivers/STM32H7xx_HAL_Driver/Src/stm32h7xx_ll_usb.c ****     value = USBx_HC(i)->HCCHAR;
 5271              		.loc 1 2185 5 is_stmt 1 view .LVU1742
 5272              		.loc 1 2185 13 is_stmt 0 view .LVU1743
 5273 004e 04EB4110 		add	r0, r4, r1, lsl #5
 5274 0052 00F5A062 		add	r2, r0, #1280
 5275              		.loc 1 2185 11 view .LVU1744
 5276 0056 D0F80035 		ldr	r3, [r0, #1280]
 5277              	.LVL400:
2186:Drivers/STM32H7xx_HAL_Driver/Src/stm32h7xx_ll_usb.c ****     value |= USB_OTG_HCCHAR_CHDIS;
ARM GAS  C:\Users\PgRick\AppData\Local\Temp\ccFebq6t.s 			page 155


 5278              		.loc 1 2186 5 is_stmt 1 view .LVU1745
2187:Drivers/STM32H7xx_HAL_Driver/Src/stm32h7xx_ll_usb.c ****     value |= USB_OTG_HCCHAR_CHENA;
 5279              		.loc 1 2187 5 view .LVU1746
2188:Drivers/STM32H7xx_HAL_Driver/Src/stm32h7xx_ll_usb.c ****     value &= ~USB_OTG_HCCHAR_EPDIR;
 5280              		.loc 1 2188 5 view .LVU1747
 5281 005a 23F40043 		bic	r3, r3, #32768
 5282              	.LVL401:
 5283              		.loc 1 2188 11 is_stmt 0 view .LVU1748
 5284 005e 43F04043 		orr	r3, r3, #-1073741824
 5285              	.LVL402:
2189:Drivers/STM32H7xx_HAL_Driver/Src/stm32h7xx_ll_usb.c ****     USBx_HC(i)->HCCHAR = value;
 5286              		.loc 1 2189 5 is_stmt 1 view .LVU1749
 5287              		.loc 1 2189 24 is_stmt 0 view .LVU1750
 5288 0062 C0F80035 		str	r3, [r0, #1280]
 5289              	.LVL403:
 5290              	.L340:
2190:Drivers/STM32H7xx_HAL_Driver/Src/stm32h7xx_ll_usb.c **** 
2191:Drivers/STM32H7xx_HAL_Driver/Src/stm32h7xx_ll_usb.c ****     do
 5291              		.loc 1 2191 5 is_stmt 1 view .LVU1751
2192:Drivers/STM32H7xx_HAL_Driver/Src/stm32h7xx_ll_usb.c ****     {
2193:Drivers/STM32H7xx_HAL_Driver/Src/stm32h7xx_ll_usb.c ****       count++;
 5292              		.loc 1 2193 7 view .LVU1752
 5293              		.loc 1 2193 12 is_stmt 0 view .LVU1753
 5294 0066 019B     		ldr	r3, [sp, #4]
 5295 0068 0133     		adds	r3, r3, #1
 5296 006a 0193     		str	r3, [sp, #4]
2194:Drivers/STM32H7xx_HAL_Driver/Src/stm32h7xx_ll_usb.c **** 
2195:Drivers/STM32H7xx_HAL_Driver/Src/stm32h7xx_ll_usb.c ****       if (count > 1000U)
 5297              		.loc 1 2195 7 is_stmt 1 view .LVU1754
 5298              		.loc 1 2195 17 is_stmt 0 view .LVU1755
 5299 006c 019B     		ldr	r3, [sp, #4]
 5300              		.loc 1 2195 10 view .LVU1756
 5301 006e B3F57A7F 		cmp	r3, #1000
 5302 0072 E9D8     		bhi	.L339
2196:Drivers/STM32H7xx_HAL_Driver/Src/stm32h7xx_ll_usb.c ****       {
2197:Drivers/STM32H7xx_HAL_Driver/Src/stm32h7xx_ll_usb.c ****         break;
2198:Drivers/STM32H7xx_HAL_Driver/Src/stm32h7xx_ll_usb.c ****       }
2199:Drivers/STM32H7xx_HAL_Driver/Src/stm32h7xx_ll_usb.c ****     } while ((USBx_HC(i)->HCCHAR & USB_OTG_HCCHAR_CHENA) == USB_OTG_HCCHAR_CHENA);
 5303              		.loc 1 2199 13 is_stmt 1 view .LVU1757
 5304              		.loc 1 2199 25 is_stmt 0 view .LVU1758
 5305 0074 1368     		ldr	r3, [r2]
 5306              		.loc 1 2199 5 view .LVU1759
 5307 0076 002B     		cmp	r3, #0
 5308 0078 F5DB     		blt	.L340
 5309 007a E5E7     		b	.L339
 5310              	.L345:
2200:Drivers/STM32H7xx_HAL_Driver/Src/stm32h7xx_ll_usb.c ****   }
2201:Drivers/STM32H7xx_HAL_Driver/Src/stm32h7xx_ll_usb.c **** 
2202:Drivers/STM32H7xx_HAL_Driver/Src/stm32h7xx_ll_usb.c ****   /* Clear any pending Host interrupts */
2203:Drivers/STM32H7xx_HAL_Driver/Src/stm32h7xx_ll_usb.c ****   USBx_HOST->HAINT = CLEAR_INTERRUPT_MASK;
 5311              		.loc 1 2203 3 is_stmt 1 view .LVU1760
 5312              		.loc 1 2203 20 is_stmt 0 view .LVU1761
 5313 007c 4FF0FF33 		mov	r3, #-1
 5314 0080 C4F81434 		str	r3, [r4, #1044]
2204:Drivers/STM32H7xx_HAL_Driver/Src/stm32h7xx_ll_usb.c ****   USBx->GINTSTS = CLEAR_INTERRUPT_MASK;
 5315              		.loc 1 2204 3 is_stmt 1 view .LVU1762
 5316              		.loc 1 2204 17 is_stmt 0 view .LVU1763
ARM GAS  C:\Users\PgRick\AppData\Local\Temp\ccFebq6t.s 			page 156


 5317 0084 6361     		str	r3, [r4, #20]
2205:Drivers/STM32H7xx_HAL_Driver/Src/stm32h7xx_ll_usb.c **** 
2206:Drivers/STM32H7xx_HAL_Driver/Src/stm32h7xx_ll_usb.c ****   (void)USB_EnableGlobalInt(USBx);
 5318              		.loc 1 2206 3 is_stmt 1 view .LVU1764
 5319              		.loc 1 2206 9 is_stmt 0 view .LVU1765
 5320 0086 2046     		mov	r0, r4
 5321 0088 FFF7FEFF 		bl	USB_EnableGlobalInt
 5322              	.LVL404:
2207:Drivers/STM32H7xx_HAL_Driver/Src/stm32h7xx_ll_usb.c **** 
2208:Drivers/STM32H7xx_HAL_Driver/Src/stm32h7xx_ll_usb.c ****   return ret;
 5323              		.loc 1 2208 3 is_stmt 1 view .LVU1766
2209:Drivers/STM32H7xx_HAL_Driver/Src/stm32h7xx_ll_usb.c **** }
 5324              		.loc 1 2209 1 is_stmt 0 view .LVU1767
 5325 008c 2846     		mov	r0, r5
 5326 008e 03B0     		add	sp, sp, #12
 5327              	.LCFI70:
 5328              		.cfi_def_cfa_offset 12
 5329              		@ sp needed
 5330 0090 30BD     		pop	{r4, r5, pc}
 5331              		.loc 1 2209 1 view .LVU1768
 5332              		.cfi_endproc
 5333              	.LFE190:
 5335              		.section	.text.USB_ActivateRemoteWakeup,"ax",%progbits
 5336              		.align	1
 5337              		.global	USB_ActivateRemoteWakeup
 5338              		.syntax unified
 5339              		.thumb
 5340              		.thumb_func
 5342              	USB_ActivateRemoteWakeup:
 5343              	.LVL405:
 5344              	.LFB191:
2210:Drivers/STM32H7xx_HAL_Driver/Src/stm32h7xx_ll_usb.c **** 
2211:Drivers/STM32H7xx_HAL_Driver/Src/stm32h7xx_ll_usb.c **** /**
2212:Drivers/STM32H7xx_HAL_Driver/Src/stm32h7xx_ll_usb.c ****   * @brief  USB_ActivateRemoteWakeup active remote wakeup signalling
2213:Drivers/STM32H7xx_HAL_Driver/Src/stm32h7xx_ll_usb.c ****   * @param  USBx Selected device
2214:Drivers/STM32H7xx_HAL_Driver/Src/stm32h7xx_ll_usb.c ****   * @retval HAL status
2215:Drivers/STM32H7xx_HAL_Driver/Src/stm32h7xx_ll_usb.c ****   */
2216:Drivers/STM32H7xx_HAL_Driver/Src/stm32h7xx_ll_usb.c **** HAL_StatusTypeDef USB_ActivateRemoteWakeup(const USB_OTG_GlobalTypeDef *USBx)
2217:Drivers/STM32H7xx_HAL_Driver/Src/stm32h7xx_ll_usb.c **** {
 5345              		.loc 1 2217 1 is_stmt 1 view -0
 5346              		.cfi_startproc
 5347              		@ args = 0, pretend = 0, frame = 0
 5348              		@ frame_needed = 0, uses_anonymous_args = 0
 5349              		@ link register save eliminated.
2218:Drivers/STM32H7xx_HAL_Driver/Src/stm32h7xx_ll_usb.c ****   uint32_t USBx_BASE = (uint32_t)USBx;
 5350              		.loc 1 2218 3 view .LVU1770
2219:Drivers/STM32H7xx_HAL_Driver/Src/stm32h7xx_ll_usb.c **** 
2220:Drivers/STM32H7xx_HAL_Driver/Src/stm32h7xx_ll_usb.c ****   if ((USBx_DEVICE->DSTS & USB_OTG_DSTS_SUSPSTS) == USB_OTG_DSTS_SUSPSTS)
 5351              		.loc 1 2220 3 view .LVU1771
 5352              		.loc 1 2220 19 is_stmt 0 view .LVU1772
 5353 0000 D0F80838 		ldr	r3, [r0, #2056]
 5354              		.loc 1 2220 8 view .LVU1773
 5355 0004 00F50060 		add	r0, r0, #2048
 5356              	.LVL406:
 5357              		.loc 1 2220 6 view .LVU1774
 5358 0008 13F0010F 		tst	r3, #1
 5359 000c 03D0     		beq	.L347
ARM GAS  C:\Users\PgRick\AppData\Local\Temp\ccFebq6t.s 			page 157


2221:Drivers/STM32H7xx_HAL_Driver/Src/stm32h7xx_ll_usb.c ****   {
2222:Drivers/STM32H7xx_HAL_Driver/Src/stm32h7xx_ll_usb.c ****     /* active Remote wakeup signalling */
2223:Drivers/STM32H7xx_HAL_Driver/Src/stm32h7xx_ll_usb.c ****     USBx_DEVICE->DCTL |= USB_OTG_DCTL_RWUSIG;
 5360              		.loc 1 2223 5 is_stmt 1 view .LVU1775
 5361              		.loc 1 2223 23 is_stmt 0 view .LVU1776
 5362 000e 4368     		ldr	r3, [r0, #4]
 5363 0010 43F00103 		orr	r3, r3, #1
 5364 0014 4360     		str	r3, [r0, #4]
 5365              	.L347:
2224:Drivers/STM32H7xx_HAL_Driver/Src/stm32h7xx_ll_usb.c ****   }
2225:Drivers/STM32H7xx_HAL_Driver/Src/stm32h7xx_ll_usb.c **** 
2226:Drivers/STM32H7xx_HAL_Driver/Src/stm32h7xx_ll_usb.c ****   return HAL_OK;
 5366              		.loc 1 2226 3 is_stmt 1 view .LVU1777
2227:Drivers/STM32H7xx_HAL_Driver/Src/stm32h7xx_ll_usb.c **** }
 5367              		.loc 1 2227 1 is_stmt 0 view .LVU1778
 5368 0016 0020     		movs	r0, #0
 5369              	.LVL407:
 5370              		.loc 1 2227 1 view .LVU1779
 5371 0018 7047     		bx	lr
 5372              		.cfi_endproc
 5373              	.LFE191:
 5375              		.section	.text.USB_DeActivateRemoteWakeup,"ax",%progbits
 5376              		.align	1
 5377              		.global	USB_DeActivateRemoteWakeup
 5378              		.syntax unified
 5379              		.thumb
 5380              		.thumb_func
 5382              	USB_DeActivateRemoteWakeup:
 5383              	.LVL408:
 5384              	.LFB192:
2228:Drivers/STM32H7xx_HAL_Driver/Src/stm32h7xx_ll_usb.c **** 
2229:Drivers/STM32H7xx_HAL_Driver/Src/stm32h7xx_ll_usb.c **** /**
2230:Drivers/STM32H7xx_HAL_Driver/Src/stm32h7xx_ll_usb.c ****   * @brief  USB_DeActivateRemoteWakeup de-active remote wakeup signalling
2231:Drivers/STM32H7xx_HAL_Driver/Src/stm32h7xx_ll_usb.c ****   * @param  USBx Selected device
2232:Drivers/STM32H7xx_HAL_Driver/Src/stm32h7xx_ll_usb.c ****   * @retval HAL status
2233:Drivers/STM32H7xx_HAL_Driver/Src/stm32h7xx_ll_usb.c ****   */
2234:Drivers/STM32H7xx_HAL_Driver/Src/stm32h7xx_ll_usb.c **** HAL_StatusTypeDef USB_DeActivateRemoteWakeup(const USB_OTG_GlobalTypeDef *USBx)
2235:Drivers/STM32H7xx_HAL_Driver/Src/stm32h7xx_ll_usb.c **** {
 5385              		.loc 1 2235 1 is_stmt 1 view -0
 5386              		.cfi_startproc
 5387              		@ args = 0, pretend = 0, frame = 0
 5388              		@ frame_needed = 0, uses_anonymous_args = 0
 5389              		@ link register save eliminated.
2236:Drivers/STM32H7xx_HAL_Driver/Src/stm32h7xx_ll_usb.c ****   uint32_t USBx_BASE = (uint32_t)USBx;
 5390              		.loc 1 2236 3 view .LVU1781
2237:Drivers/STM32H7xx_HAL_Driver/Src/stm32h7xx_ll_usb.c **** 
2238:Drivers/STM32H7xx_HAL_Driver/Src/stm32h7xx_ll_usb.c ****   /* active Remote wakeup signalling */
2239:Drivers/STM32H7xx_HAL_Driver/Src/stm32h7xx_ll_usb.c ****   USBx_DEVICE->DCTL &= ~(USB_OTG_DCTL_RWUSIG);
 5391              		.loc 1 2239 3 view .LVU1782
 5392              		.loc 1 2239 21 is_stmt 0 view .LVU1783
 5393 0000 D0F80438 		ldr	r3, [r0, #2052]
 5394 0004 23F00103 		bic	r3, r3, #1
 5395 0008 C0F80438 		str	r3, [r0, #2052]
2240:Drivers/STM32H7xx_HAL_Driver/Src/stm32h7xx_ll_usb.c **** 
2241:Drivers/STM32H7xx_HAL_Driver/Src/stm32h7xx_ll_usb.c ****   return HAL_OK;
 5396              		.loc 1 2241 3 is_stmt 1 view .LVU1784
2242:Drivers/STM32H7xx_HAL_Driver/Src/stm32h7xx_ll_usb.c **** }
ARM GAS  C:\Users\PgRick\AppData\Local\Temp\ccFebq6t.s 			page 158


 5397              		.loc 1 2242 1 is_stmt 0 view .LVU1785
 5398 000c 0020     		movs	r0, #0
 5399              	.LVL409:
 5400              		.loc 1 2242 1 view .LVU1786
 5401 000e 7047     		bx	lr
 5402              		.cfi_endproc
 5403              	.LFE192:
 5405              		.text
 5406              	.Letext0:
 5407              		.file 2 "c:\\program files (x86)\\gnu arm embedded toolchain\\10 2021.10\\arm-none-eabi\\include\\
 5408              		.file 3 "c:\\program files (x86)\\gnu arm embedded toolchain\\10 2021.10\\arm-none-eabi\\include\\
 5409              		.file 4 "Drivers/CMSIS/Include/cmsis_gcc.h"
 5410              		.file 5 "Drivers/CMSIS/Device/ST/STM32H7xx/Include/stm32h753xx.h"
 5411              		.file 6 "Drivers/STM32H7xx_HAL_Driver/Inc/stm32h7xx_hal_def.h"
 5412              		.file 7 "Drivers/STM32H7xx_HAL_Driver/Inc/stm32h7xx_ll_usb.h"
 5413              		.file 8 "Drivers/STM32H7xx_HAL_Driver/Inc/stm32h7xx_hal.h"
ARM GAS  C:\Users\PgRick\AppData\Local\Temp\ccFebq6t.s 			page 159


DEFINED SYMBOLS
                            *ABS*:00000000 stm32h7xx_ll_usb.c
C:\Users\PgRick\AppData\Local\Temp\ccFebq6t.s:19     .text.USB_CoreReset:00000000 $t
C:\Users\PgRick\AppData\Local\Temp\ccFebq6t.s:24     .text.USB_CoreReset:00000000 USB_CoreReset
C:\Users\PgRick\AppData\Local\Temp\ccFebq6t.s:119    .text.USB_CoreInit:00000000 $t
C:\Users\PgRick\AppData\Local\Temp\ccFebq6t.s:125    .text.USB_CoreInit:00000000 USB_CoreInit
C:\Users\PgRick\AppData\Local\Temp\ccFebq6t.s:270    .text.USB_CoreInit:0000009c $d
C:\Users\PgRick\AppData\Local\Temp\ccFebq6t.s:276    .text.USB_SetTurnaroundTime:00000000 $t
C:\Users\PgRick\AppData\Local\Temp\ccFebq6t.s:282    .text.USB_SetTurnaroundTime:00000000 USB_SetTurnaroundTime
C:\Users\PgRick\AppData\Local\Temp\ccFebq6t.s:462    .text.USB_SetTurnaroundTime:0000009c $d
C:\Users\PgRick\AppData\Local\Temp\ccFebq6t.s:484    .text.USB_EnableGlobalInt:00000000 $t
C:\Users\PgRick\AppData\Local\Temp\ccFebq6t.s:490    .text.USB_EnableGlobalInt:00000000 USB_EnableGlobalInt
C:\Users\PgRick\AppData\Local\Temp\ccFebq6t.s:513    .text.USB_DisableGlobalInt:00000000 $t
C:\Users\PgRick\AppData\Local\Temp\ccFebq6t.s:519    .text.USB_DisableGlobalInt:00000000 USB_DisableGlobalInt
C:\Users\PgRick\AppData\Local\Temp\ccFebq6t.s:542    .text.USB_FlushTxFifo:00000000 $t
C:\Users\PgRick\AppData\Local\Temp\ccFebq6t.s:548    .text.USB_FlushTxFifo:00000000 USB_FlushTxFifo
C:\Users\PgRick\AppData\Local\Temp\ccFebq6t.s:645    .text.USB_FlushRxFifo:00000000 $t
C:\Users\PgRick\AppData\Local\Temp\ccFebq6t.s:651    .text.USB_FlushRxFifo:00000000 USB_FlushRxFifo
C:\Users\PgRick\AppData\Local\Temp\ccFebq6t.s:744    .text.USB_SetDevSpeed:00000000 $t
C:\Users\PgRick\AppData\Local\Temp\ccFebq6t.s:750    .text.USB_SetDevSpeed:00000000 USB_SetDevSpeed
C:\Users\PgRick\AppData\Local\Temp\ccFebq6t.s:776    .text.USB_DevInit:00000000 $t
C:\Users\PgRick\AppData\Local\Temp\ccFebq6t.s:782    .text.USB_DevInit:00000000 USB_DevInit
C:\Users\PgRick\AppData\Local\Temp\ccFebq6t.s:1137   .text.USB_DevInit:00000184 $d
C:\Users\PgRick\AppData\Local\Temp\ccFebq6t.s:1143   .text.USB_GetDevSpeed:00000000 $t
C:\Users\PgRick\AppData\Local\Temp\ccFebq6t.s:1149   .text.USB_GetDevSpeed:00000000 USB_GetDevSpeed
C:\Users\PgRick\AppData\Local\Temp\ccFebq6t.s:1199   .text.USB_ActivateEndpoint:00000000 $t
C:\Users\PgRick\AppData\Local\Temp\ccFebq6t.s:1205   .text.USB_ActivateEndpoint:00000000 USB_ActivateEndpoint
C:\Users\PgRick\AppData\Local\Temp\ccFebq6t.s:1321   .text.USB_ActivateEndpoint:00000098 $d
C:\Users\PgRick\AppData\Local\Temp\ccFebq6t.s:1326   .text.USB_ActivateDedicatedEndpoint:00000000 $t
C:\Users\PgRick\AppData\Local\Temp\ccFebq6t.s:1332   .text.USB_ActivateDedicatedEndpoint:00000000 USB_ActivateDedicatedEndpoint
C:\Users\PgRick\AppData\Local\Temp\ccFebq6t.s:1466   .text.USB_ActivateDedicatedEndpoint:00000098 $d
C:\Users\PgRick\AppData\Local\Temp\ccFebq6t.s:1471   .text.USB_DeactivateEndpoint:00000000 $t
C:\Users\PgRick\AppData\Local\Temp\ccFebq6t.s:1477   .text.USB_DeactivateEndpoint:00000000 USB_DeactivateEndpoint
C:\Users\PgRick\AppData\Local\Temp\ccFebq6t.s:1642   .text.USB_DeactivateEndpoint:000000d8 $d
C:\Users\PgRick\AppData\Local\Temp\ccFebq6t.s:1648   .text.USB_DeactivateDedicatedEndpoint:00000000 $t
C:\Users\PgRick\AppData\Local\Temp\ccFebq6t.s:1654   .text.USB_DeactivateDedicatedEndpoint:00000000 USB_DeactivateDedicatedEndpoint
C:\Users\PgRick\AppData\Local\Temp\ccFebq6t.s:1777   .text.USB_EPStopXfer:00000000 $t
C:\Users\PgRick\AppData\Local\Temp\ccFebq6t.s:1783   .text.USB_EPStopXfer:00000000 USB_EPStopXfer
C:\Users\PgRick\AppData\Local\Temp\ccFebq6t.s:1941   .text.USB_WritePacket:00000000 $t
C:\Users\PgRick\AppData\Local\Temp\ccFebq6t.s:1947   .text.USB_WritePacket:00000000 USB_WritePacket
C:\Users\PgRick\AppData\Local\Temp\ccFebq6t.s:2018   .text.USB_EPStartXfer:00000000 $t
C:\Users\PgRick\AppData\Local\Temp\ccFebq6t.s:2024   .text.USB_EPStartXfer:00000000 USB_EPStartXfer
C:\Users\PgRick\AppData\Local\Temp\ccFebq6t.s:2472   .text.USB_EPStartXfer:00000230 $d
C:\Users\PgRick\AppData\Local\Temp\ccFebq6t.s:2479   .text.USB_ReadPacket:00000000 $t
C:\Users\PgRick\AppData\Local\Temp\ccFebq6t.s:2485   .text.USB_ReadPacket:00000000 USB_ReadPacket
C:\Users\PgRick\AppData\Local\Temp\ccFebq6t.s:2595   .text.USB_EPSetStall:00000000 $t
C:\Users\PgRick\AppData\Local\Temp\ccFebq6t.s:2601   .text.USB_EPSetStall:00000000 USB_EPSetStall
C:\Users\PgRick\AppData\Local\Temp\ccFebq6t.s:2682   .text.USB_EPClearStall:00000000 $t
C:\Users\PgRick\AppData\Local\Temp\ccFebq6t.s:2688   .text.USB_EPClearStall:00000000 USB_EPClearStall
C:\Users\PgRick\AppData\Local\Temp\ccFebq6t.s:2771   .text.USB_StopDevice:00000000 $t
C:\Users\PgRick\AppData\Local\Temp\ccFebq6t.s:2777   .text.USB_StopDevice:00000000 USB_StopDevice
C:\Users\PgRick\AppData\Local\Temp\ccFebq6t.s:2860   .text.USB_SetDevAddress:00000000 $t
C:\Users\PgRick\AppData\Local\Temp\ccFebq6t.s:2866   .text.USB_SetDevAddress:00000000 USB_SetDevAddress
C:\Users\PgRick\AppData\Local\Temp\ccFebq6t.s:2901   .text.USB_DevConnect:00000000 $t
C:\Users\PgRick\AppData\Local\Temp\ccFebq6t.s:2907   .text.USB_DevConnect:00000000 USB_DevConnect
C:\Users\PgRick\AppData\Local\Temp\ccFebq6t.s:2936   .text.USB_DevDisconnect:00000000 $t
C:\Users\PgRick\AppData\Local\Temp\ccFebq6t.s:2942   .text.USB_DevDisconnect:00000000 USB_DevDisconnect
ARM GAS  C:\Users\PgRick\AppData\Local\Temp\ccFebq6t.s 			page 160


C:\Users\PgRick\AppData\Local\Temp\ccFebq6t.s:2971   .text.USB_ReadInterrupts:00000000 $t
C:\Users\PgRick\AppData\Local\Temp\ccFebq6t.s:2977   .text.USB_ReadInterrupts:00000000 USB_ReadInterrupts
C:\Users\PgRick\AppData\Local\Temp\ccFebq6t.s:3004   .text.USB_ReadChInterrupts:00000000 $t
C:\Users\PgRick\AppData\Local\Temp\ccFebq6t.s:3010   .text.USB_ReadChInterrupts:00000000 USB_ReadChInterrupts
C:\Users\PgRick\AppData\Local\Temp\ccFebq6t.s:3041   .text.USB_ReadDevAllOutEpInterrupt:00000000 $t
C:\Users\PgRick\AppData\Local\Temp\ccFebq6t.s:3047   .text.USB_ReadDevAllOutEpInterrupt:00000000 USB_ReadDevAllOutEpInterrupt
C:\Users\PgRick\AppData\Local\Temp\ccFebq6t.s:3080   .text.USB_ReadDevAllInEpInterrupt:00000000 $t
C:\Users\PgRick\AppData\Local\Temp\ccFebq6t.s:3086   .text.USB_ReadDevAllInEpInterrupt:00000000 USB_ReadDevAllInEpInterrupt
C:\Users\PgRick\AppData\Local\Temp\ccFebq6t.s:3119   .text.USB_ReadDevOutEPInterrupt:00000000 $t
C:\Users\PgRick\AppData\Local\Temp\ccFebq6t.s:3125   .text.USB_ReadDevOutEPInterrupt:00000000 USB_ReadDevOutEPInterrupt
C:\Users\PgRick\AppData\Local\Temp\ccFebq6t.s:3159   .text.USB_ReadDevInEPInterrupt:00000000 $t
C:\Users\PgRick\AppData\Local\Temp\ccFebq6t.s:3165   .text.USB_ReadDevInEPInterrupt:00000000 USB_ReadDevInEPInterrupt
C:\Users\PgRick\AppData\Local\Temp\ccFebq6t.s:3226   .text.USB_ClearInterrupts:00000000 $t
C:\Users\PgRick\AppData\Local\Temp\ccFebq6t.s:3232   .text.USB_ClearInterrupts:00000000 USB_ClearInterrupts
C:\Users\PgRick\AppData\Local\Temp\ccFebq6t.s:3251   .text.USB_GetMode:00000000 $t
C:\Users\PgRick\AppData\Local\Temp\ccFebq6t.s:3257   .text.USB_GetMode:00000000 USB_GetMode
C:\Users\PgRick\AppData\Local\Temp\ccFebq6t.s:3276   .text.USB_SetCurrentMode:00000000 $t
C:\Users\PgRick\AppData\Local\Temp\ccFebq6t.s:3282   .text.USB_SetCurrentMode:00000000 USB_SetCurrentMode
C:\Users\PgRick\AppData\Local\Temp\ccFebq6t.s:3399   .text.USB_ActivateSetup:00000000 $t
C:\Users\PgRick\AppData\Local\Temp\ccFebq6t.s:3405   .text.USB_ActivateSetup:00000000 USB_ActivateSetup
C:\Users\PgRick\AppData\Local\Temp\ccFebq6t.s:3434   .text.USB_ActivateSetup:0000001c $d
C:\Users\PgRick\AppData\Local\Temp\ccFebq6t.s:3439   .text.USB_EP0_OutStart:00000000 $t
C:\Users\PgRick\AppData\Local\Temp\ccFebq6t.s:3445   .text.USB_EP0_OutStart:00000000 USB_EP0_OutStart
C:\Users\PgRick\AppData\Local\Temp\ccFebq6t.s:3528   .text.USB_EP0_OutStart:0000005c $d
C:\Users\PgRick\AppData\Local\Temp\ccFebq6t.s:3533   .text.USB_HostInit:00000000 $t
C:\Users\PgRick\AppData\Local\Temp\ccFebq6t.s:3539   .text.USB_HostInit:00000000 USB_HostInit
C:\Users\PgRick\AppData\Local\Temp\ccFebq6t.s:3721   .text.USB_HostInit:000000d0 $d
C:\Users\PgRick\AppData\Local\Temp\ccFebq6t.s:3727   .text.USB_InitFSLSPClkSel:00000000 $t
C:\Users\PgRick\AppData\Local\Temp\ccFebq6t.s:3733   .text.USB_InitFSLSPClkSel:00000000 USB_InitFSLSPClkSel
C:\Users\PgRick\AppData\Local\Temp\ccFebq6t.s:3795   .text.USB_ResetPort:00000000 $t
C:\Users\PgRick\AppData\Local\Temp\ccFebq6t.s:3801   .text.USB_ResetPort:00000000 USB_ResetPort
C:\Users\PgRick\AppData\Local\Temp\ccFebq6t.s:3870   .text.USB_DriveVbus:00000000 $t
C:\Users\PgRick\AppData\Local\Temp\ccFebq6t.s:3876   .text.USB_DriveVbus:00000000 USB_DriveVbus
C:\Users\PgRick\AppData\Local\Temp\ccFebq6t.s:3955   .text.USB_GetHostSpeed:00000000 $t
C:\Users\PgRick\AppData\Local\Temp\ccFebq6t.s:3961   .text.USB_GetHostSpeed:00000000 USB_GetHostSpeed
C:\Users\PgRick\AppData\Local\Temp\ccFebq6t.s:3999   .text.USB_GetCurrentFrame:00000000 $t
C:\Users\PgRick\AppData\Local\Temp\ccFebq6t.s:4005   .text.USB_GetCurrentFrame:00000000 USB_GetCurrentFrame
C:\Users\PgRick\AppData\Local\Temp\ccFebq6t.s:4028   .text.USB_HC_Init:00000000 $t
C:\Users\PgRick\AppData\Local\Temp\ccFebq6t.s:4034   .text.USB_HC_Init:00000000 USB_HC_Init
C:\Users\PgRick\AppData\Local\Temp\ccFebq6t.s:4076   .text.USB_HC_Init:00000022 $d
C:\Users\PgRick\AppData\Local\Temp\ccFebq6t.s:4080   .text.USB_HC_Init:00000026 $t
C:\Users\PgRick\AppData\Local\Temp\ccFebq6t.s:4271   .text.USB_HC_ReadInterrupt:00000000 $t
C:\Users\PgRick\AppData\Local\Temp\ccFebq6t.s:4277   .text.USB_HC_ReadInterrupt:00000000 USB_HC_ReadInterrupt
C:\Users\PgRick\AppData\Local\Temp\ccFebq6t.s:4300   .text.USB_HC_Halt:00000000 $t
C:\Users\PgRick\AppData\Local\Temp\ccFebq6t.s:4306   .text.USB_HC_Halt:00000000 USB_HC_Halt
C:\Users\PgRick\AppData\Local\Temp\ccFebq6t.s:4515   .text.USB_DoPing:00000000 $t
C:\Users\PgRick\AppData\Local\Temp\ccFebq6t.s:4521   .text.USB_DoPing:00000000 USB_DoPing
C:\Users\PgRick\AppData\Local\Temp\ccFebq6t.s:4563   .text.USB_DoPing:00000020 $d
C:\Users\PgRick\AppData\Local\Temp\ccFebq6t.s:4568   .text.USB_HC_StartXfer:00000000 $t
C:\Users\PgRick\AppData\Local\Temp\ccFebq6t.s:4574   .text.USB_HC_StartXfer:00000000 USB_HC_StartXfer
C:\Users\PgRick\AppData\Local\Temp\ccFebq6t.s:4950   .text.USB_HC_StartXfer:00000192 $d
C:\Users\PgRick\AppData\Local\Temp\ccFebq6t.s:4955   .text.USB_HC_StartXfer:00000196 $t
C:\Users\PgRick\AppData\Local\Temp\ccFebq6t.s:5020   .text.USB_HC_StartXfer:000001e4 $d
C:\Users\PgRick\AppData\Local\Temp\ccFebq6t.s:5024   .text.USB_HC_StartXfer:000001e8 $t
C:\Users\PgRick\AppData\Local\Temp\ccFebq6t.s:5158   .text.USB_HC_StartXfer:000002a0 $d
C:\Users\PgRick\AppData\Local\Temp\ccFebq6t.s:5163   .text.USB_StopHost:00000000 $t
C:\Users\PgRick\AppData\Local\Temp\ccFebq6t.s:5169   .text.USB_StopHost:00000000 USB_StopHost
ARM GAS  C:\Users\PgRick\AppData\Local\Temp\ccFebq6t.s 			page 161


C:\Users\PgRick\AppData\Local\Temp\ccFebq6t.s:5336   .text.USB_ActivateRemoteWakeup:00000000 $t
C:\Users\PgRick\AppData\Local\Temp\ccFebq6t.s:5342   .text.USB_ActivateRemoteWakeup:00000000 USB_ActivateRemoteWakeup
C:\Users\PgRick\AppData\Local\Temp\ccFebq6t.s:5376   .text.USB_DeActivateRemoteWakeup:00000000 $t
C:\Users\PgRick\AppData\Local\Temp\ccFebq6t.s:5382   .text.USB_DeActivateRemoteWakeup:00000000 USB_DeActivateRemoteWakeup

UNDEFINED SYMBOLS
HAL_Delay
